
E:/8.AWS-FreeRTOS-HiFive1/Workspace/sifive-hifive1-revb-i2c/src/debug/empty.elf:     file format elf32-littleriscv
E:/8.AWS-FreeRTOS-HiFive1/Workspace/sifive-hifive1-revb-i2c/src/debug/empty.elf
architecture: riscv:rv32, flags 0x00000112:
EXEC_P, HAS_SYMS, D_PAGED
start address 0x20010000

Program Header:
    LOAD off    0x00001000 vaddr 0x20010000 paddr 0x20010000 align 2**12
         filesz 0x00007cc4 memsz 0x00007cc4 flags rwx
    LOAD off    0x00009ad0 vaddr 0x80000ad0 paddr 0x80000ad0 align 2**12
         filesz 0x00000000 memsz 0x00000ca0 flags rw-
    LOAD off    0x00009000 vaddr 0x80000000 paddr 0x20017cc8 align 2**12
         filesz 0x00000ad0 memsz 0x00000ad0 flags rw-
    LOAD off    0x00009ad0 vaddr 0x00000000 paddr 0x00000000 align 2**12
         filesz 0x00000000 memsz 0x00000000 flags ---
    LOAD off    0x00009ad0 vaddr 0x00000000 paddr 0x00000000 align 2**12
         filesz 0x00000000 memsz 0x00000000 flags ---

Sections:
Idx Name              Size      VMA       LMA       File off  Algn  Flags
  0 .init             00000194  20010000  20010000  00001000  2**2  CONTENTS, ALLOC, LOAD, READONLY, CODE
  1 .text             00006ba0  20010200  20010200  00001200  2**7  CONTENTS, ALLOC, LOAD, READONLY, CODE
  2 .rodata           00000f18  20016da0  20016da0  00007da0  2**2  CONTENTS, ALLOC, LOAD, READONLY, DATA
  3 .init_array       0000000c  20017cb8  20017cb8  00008cb8  2**2  CONTENTS, ALLOC, LOAD, DATA
  4 .data             00000ad0  80000000  20017cc8  00009000  2**3  CONTENTS, ALLOC, LOAD, DATA
  5 .bss              000000a0  80000ad0  80000ad0  00009ad0  2**3  ALLOC
  6 .stack            00000400  80000b70  80000b70  00009ad0  2**0  ALLOC
  7 .heap             00000800  80000f70  80000f70  00009ad0  2**0  ALLOC
  8 .debug_info       00029b17  00000000  00000000  00009ad0  2**0  CONTENTS, READONLY, DEBUGGING
  9 .debug_abbrev     00004158  00000000  00000000  000335e7  2**0  CONTENTS, READONLY, DEBUGGING
 10 .debug_aranges    00000b28  00000000  00000000  00037740  2**3  CONTENTS, READONLY, DEBUGGING
 11 .debug_ranges     00000ab8  00000000  00000000  00038268  2**3  CONTENTS, READONLY, DEBUGGING
 12 .debug_line       0000d50d  00000000  00000000  00038d20  2**0  CONTENTS, READONLY, DEBUGGING
 13 .debug_str        00004c1a  00000000  00000000  0004622d  2**0  CONTENTS, READONLY, DEBUGGING
 14 .comment          00000028  00000000  00000000  0004ae47  2**0  CONTENTS, READONLY
 15 .riscv.attributes 0000002b  00000000  00000000  0004ae6f  2**0  CONTENTS, READONLY
 16 .debug_frame      00002b14  00000000  00000000  0004ae9c  2**2  CONTENTS, READONLY, DEBUGGING
 17 .debug_loc        00001539  00000000  00000000  0004d9b0  2**0  CONTENTS, READONLY, DEBUGGING
SYMBOL TABLE:
20010000 l    d  .init	00000000 .init
20010200 l    d  .text	00000000 .text
20016da0 l    d  .rodata	00000000 .rodata
20017cb8 l    d  .init_array	00000000 .init_array
80000000 l    d  .data	00000000 .data
80000ad0 l    d  .bss	00000000 .bss
80000b70 l    d  .stack	00000000 .stack
80000f70 l    d  .heap	00000000 .heap
00000000 l    d  .debug_info	00000000 .debug_info
00000000 l    d  .debug_abbrev	00000000 .debug_abbrev
00000000 l    d  .debug_aranges	00000000 .debug_aranges
00000000 l    d  .debug_ranges	00000000 .debug_ranges
00000000 l    d  .debug_line	00000000 .debug_line
00000000 l    d  .debug_str	00000000 .debug_str
00000000 l    d  .comment	00000000 .comment
00000000 l    d  .riscv.attributes	00000000 .riscv.attributes
00000000 l    d  .debug_frame	00000000 .debug_frame
00000000 l    d  .debug_loc	00000000 .debug_loc
00000000 l    df *ABS*	00000000 libriscv__mmachine__sifive-hifive1-revb_a-entry.o
20010060 l       .init	00000000 early_trap_vector
00000000 l    df *ABS*	00000000 synchronize_harts.c
00000000 l    df *ABS*	00000000 crt0.o
20010136 l       .init	00000000 _skip_init
20017ba4 l       .rodata	00000000 argv
20017ba8 l       .rodata	00000000 envp
20017bac l       .rodata	00000000 name
00000000 l    df *ABS*	00000000 main.c
00000000 l    df *ABS*	00000000 drv_i2c0.c
80000ad0 l     O .bss	00000004 _baud_rate
20010444 l     F .text	00000148 driver_i2c0_write_addr
2001058c l     F .text	0000005a driver_sifive_gpio0_enable_io
00000000 l    df *ABS*	00000000 printf.c
00000000 l    df *ABS*	00000000 puts.c
00000000 l    df *ABS*	00000000 time.c
00000000 l    df *ABS*	00000000 wbuf.c
00000000 l    df *ABS*	00000000 wsetup.c
00000000 l    df *ABS*	00000000 fflush.c
00000000 l    df *ABS*	00000000 findfp.c
20010f3c l     F .text	00000068 std
00000000 l    df *ABS*	00000000 fwalk.c
00000000 l    df *ABS*	00000000 gettimeofdayr.c
00000000 l    df *ABS*	00000000 makebuf.c
00000000 l    df *ABS*	00000000 nano-mallocr.c
00000000 l    df *ABS*	00000000 nano-mallocr.c
00000000 l    df *ABS*	00000000 nano-vfprintf.c
20011412 l     F .text	0000002a __sfputc_r
00000000 l    df *ABS*	00000000 sbrkr.c
00000000 l    df *ABS*	00000000 stdio.c
00000000 l    df *ABS*	00000000 writer.c
00000000 l    df *ABS*	00000000 closer.c
00000000 l    df *ABS*	00000000 fstatr.c
00000000 l    df *ABS*	00000000 isattyr.c
00000000 l    df *ABS*	00000000 lseekr.c
00000000 l    df *ABS*	00000000 memchr.c
00000000 l    df *ABS*	00000000 mlock.c
00000000 l    df *ABS*	00000000 nano-vfprintf_i.c
00000000 l    df *ABS*	00000000 readr.c
00000000 l    df *ABS*	00000000 riscv_clint0.c
20011cd0 l     F .text	0000002a __metal_driver_sifive_clint0_control_base
20011cfa l     F .text	00000028 __metal_driver_sifive_clint0_num_interrupts
20011d22 l     F .text	0000003c __metal_driver_sifive_clint0_interrupt_parents
20011d5e l     F .text	00000030 __metal_driver_sifive_clint0_interrupt_lines
20011ebe l     F .text	00000036 _get_cpu_intc
00000000 l    df *ABS*	00000000 riscv_cpu.c
200123f0 l     F .text	00000024 __metal_driver_cpu_hartid
20012414 l     F .text	0000002a __metal_driver_cpu_timebase
2001243e l     F .text	0000002a __metal_driver_cpu_interrupt_controller
00000000 l    df *ABS*	00000000 riscv_plic0.c
20013cde l     F .text	0000002a __metal_driver_sifive_plic0_control_base
20013d08 l     F .text	0000002a __metal_driver_sifive_plic0_num_interrupts
20013d32 l     F .text	00000028 __metal_driver_sifive_plic0_max_priority
20013d5a l     F .text	00000028 __metal_driver_sifive_plic0_interrupt_parents
20013d82 l     F .text	00000022 __metal_driver_sifive_plic0_interrupt_lines
00000000 l    df *ABS*	00000000 sifive_fe310-g000_hfrosc.c
200142c6 l     F .text	0000001a __metal_driver_sifive_fe310_g000_hfrosc_ref
200142e0 l     F .text	00000016 __metal_driver_sifive_fe310_g000_hfrosc_config_base
200142f6 l     F .text	00000014 __metal_driver_sifive_fe310_g000_hfrosc_config_offset
2001430a l     F .text	00000012 __metal_driver_sifive_fe310_g000_prci_vtable
00000000 l    df *ABS*	00000000 sifive_fe310-g000_hfxosc.c
200143c2 l     F .text	0000001a __metal_driver_sifive_fe310_g000_hfxosc_ref
200143dc l     F .text	00000016 __metal_driver_sifive_fe310_g000_hfxosc_config_base
200143f2 l     F .text	00000014 __metal_driver_sifive_fe310_g000_hfxosc_config_offset
20014406 l     F .text	00000012 __metal_driver_sifive_fe310_g000_prci_vtable
00000000 l    df *ABS*	00000000 sifive_fe310-g000_pll.c
200144ae l     F .text	0000001a __metal_driver_sifive_fe310_g000_pll_pllsel0
200144c8 l     F .text	0000001a __metal_driver_sifive_fe310_g000_pll_pllref
200144e2 l     F .text	00000016 __metal_driver_sifive_fe310_g000_pll_divider_base
200144f8 l     F .text	00000014 __metal_driver_sifive_fe310_g000_pll_divider_offset
2001450c l     F .text	00000012 __metal_driver_sifive_fe310_g000_pll_config_base
2001451e l     F .text	00000010 __metal_driver_sifive_fe310_g000_pll_config_offset
2001452e l     F .text	00000016 __metal_driver_sifive_fe310_g000_pll_init_rate
20014544 l     F .text	00000012 __metal_driver_sifive_fe310_g000_prci_base
20014556 l     F .text	00000012 __metal_driver_sifive_fe310_g000_prci_vtable
2001727c l     O .rodata	00000880 pll_configs
20014568 l     F .text	0000004e get_pll_config_freq
200145b6 l     F .text	00000028 metal_sifive_fe310_g000_pll_init
200147f2 l     F .text	000000ac find_closest_config
2001489e l     F .text	00000132 configure_pll
20014b36 l     F .text	0000002a use_hfxosc
00000000 l    df *ABS*	00000000 sifive_fe310-g000_prci.c
20014b60 l     F .text	00000012 __metal_driver_sifive_fe310_g000_prci_base
00000000 l    df *ABS*	00000000 sifive_gpio0.c
20014bd8 l     F .text	00000026 __metal_driver_sifive_gpio0_base
20014bfe l     F .text	0000002a __metal_driver_sifive_gpio0_interrupt_parent
20014c28 l     F .text	0000035e __metal_driver_sifive_gpio0_interrupt_lines
00000000 l    df *ABS*	00000000 sifive_uart0.c
2001563c l     F .text	00000040 __metal_driver_sifive_uart0_control_base
2001567c l     F .text	00000042 __metal_driver_sifive_uart0_interrupt_parent
200156be l     F .text	0000003c __metal_driver_sifive_uart0_interrupt_line
200156fa l     F .text	00000048 __metal_driver_sifive_uart0_clock
20015742 l     F .text	00000040 __metal_driver_sifive_uart0_pinmux
20015782 l     F .text	00000040 __metal_driver_sifive_uart0_pinmux_output_selector
200157c2 l     F .text	00000040 __metal_driver_sifive_uart0_pinmux_source_selector
200159d0 l     F .text	000000d8 pre_rate_change_callback_func
20015aa8 l     F .text	0000002e post_rate_change_callback_func
00000000 l    df *ABS*	00000000 clock.c
00000000 l    df *ABS*	00000000 cpu.c
00000000 l    df *ABS*	00000000 shutdown.c
00000000 l    df *ABS*	00000000 time.c
00000000 l    df *ABS*	00000000 uart.c
00000000 l    df *ABS*	00000000 libriscv__mmachine__sifive-hifive1-revb_a-vector.o
20016000 l       .text	00000000 IRQ_0
20016004 l       .text	00000000 IRQ_1
20016008 l       .text	00000000 IRQ_2
2001600c l       .text	00000000 IRQ_3
20016010 l       .text	00000000 IRQ_4
20016014 l       .text	00000000 IRQ_5
20016018 l       .text	00000000 IRQ_6
2001601c l       .text	00000000 IRQ_7
20016020 l       .text	00000000 IRQ_8
20016024 l       .text	00000000 IRQ_9
20016028 l       .text	00000000 IRQ_10
2001602c l       .text	00000000 IRQ_11
20016030 l       .text	00000000 IRQ_12
20016034 l       .text	00000000 IRQ_13
20016038 l       .text	00000000 IRQ_14
2001603c l       .text	00000000 IRQ_15
20016040 l       .text	00000000 IRQ_LC0
20016044 l       .text	00000000 IRQ_LC1
20016048 l       .text	00000000 IRQ_LC2
2001604c l       .text	00000000 IRQ_LC3
20016050 l       .text	00000000 IRQ_LC4
20016054 l       .text	00000000 IRQ_LC5
20016058 l       .text	00000000 IRQ_LC6
2001605c l       .text	00000000 IRQ_LC7
20016060 l       .text	00000000 IRQ_LC8
20016064 l       .text	00000000 IRQ_LC9
20016068 l       .text	00000000 IRQ_LC10
2001606c l       .text	00000000 IRQ_LC11
20016070 l       .text	00000000 IRQ_LC12
20016074 l       .text	00000000 IRQ_LC13
20016078 l       .text	00000000 IRQ_LC14
2001607c l       .text	00000000 IRQ_LC15
00000000 l    df *ABS*	00000000 fixed-clock.c
20016080 l     F .text	00000070 __metal_driver_fixed_clock_rate
00000000 l    df *ABS*	00000000 timer.c
00000000 l    df *ABS*	00000000 sys_close.c
00000000 l    df *ABS*	00000000 sys_fstat.c
00000000 l    df *ABS*	00000000 sys_gettimeofday.c
00000000 l    df *ABS*	00000000 sys_isatty.c
00000000 l    df *ABS*	00000000 sys_lseek.c
00000000 l    df *ABS*	00000000 sys_read.c
00000000 l    df *ABS*	00000000 sys_sbrk.c
80000ac8 l     O .data	00000004 brk
00000000 l    df *ABS*	00000000 sys_write.c
00000000 l    df *ABS*	00000000 atexit.c
00000000 l    df *ABS*	00000000 errno.c
00000000 l    df *ABS*	00000000 exit.c
00000000 l    df *ABS*	00000000 fini.c
00000000 l    df *ABS*	00000000 init.c
00000000 l    df *ABS*	00000000 __atexit.c
80000ae0 l     O .bss	0000008c _global_atexit0
00000000 l    df *ABS*	00000000 __call_atexit.c
00000000 l    df *ABS*	00000000 libgcc2.c
00000000 l    df *ABS*	00000000 libgcc2.c
00000000 l    df *ABS*	00000000 tty.c
20016d68 l     F .text	00000024 metal_tty_init
00000000 l    df *ABS*	00000000 sys_exit.c
00000000 l    df *ABS*	00000000 libgcc2.c
00000000 l    df *ABS*	00000000 impure.c
80000000 l     O .data	00000060 impure_data
00000000 l    df *ABS*	00000000 inline.c
00000000 l    df *ABS*	00000000 
20017cc4 l       .init_array	00000000 __fini_array_end
20017cc4 l       .init_array	00000000 __fini_array_start
20017cc4 l       .init_array	00000000 __init_array_end
20017cb8 l       .init_array	00000000 __preinit_array_end
20017cb8 l       .init_array	00000000 __init_array_start
20017cb8 l       .init_array	00000000 __preinit_array_start
20017b84 g     O .rodata	00000020 __metal_driver_vtable_sifive_uart0
2001187e g     F .text	0000002a _isatty_r
20012c50  w    F .text	00000096 metal_lc4_interrupt_vector_handler
20010aa0 g     F .text	000000da _puts_r
200118a8 g     F .text	0000002e _lseek_r
20015c3a g     F .text	00000026 metal_clock_get_rate_hz
20015930 g     F .text	000000a0 __metal_driver_sifive_uart0_set_baud_rate
2001209a g     F .text	00000054 __metal_driver_riscv_clint0_set_vector_mode
20012bba  w    F .text	00000096 metal_lc3_interrupt_vector_handler
20011168 g     F .text	0000002c _gettimeofday_r
20013440 g     F .text	00000038 __metal_valid_interrupt_id
20010a5c g     F .text	00000044 printf
80001288 g       .data	00000000 __global_pointer$
20013864 g     F .text	0000001c __metal_driver_riscv_cpu_controller_get_vector_mode
20015be6 g     F .text	00000054 _metal_clock_append_to_callbacks
20013dd2 g     F .text	00000038 __metal_plic0_complete_interrupt
200136c0 g     F .text	0000014e __metal_driver_riscv_cpu_controller_interrupt_register
200117be g     F .text	00000036 __sseek
20010ff2 g     F .text	0000006a __sinit
20010bbe g     F .text	000000c0 __swbuf_r
20010fae g     F .text	00000044 __sfmoreglue
200118f2 g     F .text	00000002 __malloc_unlock
20015d88 g     F .text	0000002e metal_cpu_get
80000a20 g     O .data	00000020 __metal_dt_serial_10013000
20015216 g     F .text	0000004a __metal_driver_sifive_gpio0_disable_io
20016fdc g     O .rodata	0000004c __metal_driver_vtable_riscv_clint0
80000b70 g       .bss	00000000 metal_segment_bss_target_end
20011d8e g     F .text	0000009a __metal_clint0_mtime_get
20013c72 g     F .text	0000002e __metal_driver_cpu_get_instruction_length
00000000 g       *ABS*	00000000 __metal_chicken_bit
20014fc6 g     F .text	00000046 __metal_driver_sifive_gpio0_disable_input
2001643a g     F .text	0000000c __errno
08000000 g       .init_array	00000000 metal_segment_itim_target_start
20015d38 g     F .text	0000002a metal_cpu_get_timebase
20015846 g     F .text	00000034 __metal_driver_sifive_uart0_txready
20010070 g     F .init	0000000e __metal_synchronize_harts
80000ad0 g       .bss	00000000 metal_segment_bss_target_start
20011e28 g     F .text	00000096 __metal_driver_riscv_clint0_mtimecmp_set
20011852 g     F .text	0000002c _fstat_r
20015466 g     F .text	00000188 __metal_driver_sifive_gpio0_clear_int
80000b6c g     O .bss	00000004 errno
20014682 g     F .text	00000170 __metal_driver_sifive_fe310_g000_pll_get_rate_hz
00000400 g       *ABS*	00000000 __stack_size
20015caa g     F .text	00000032 metal_clock_register_pre_rate_change_callback
20012f3e  w    F .text	00000096 metal_lc9_interrupt_vector_handler
80000a40 g     O .data	00000020 __metal_dt_serial_10023000
20017230 g     O .rodata	0000004c __metal_driver_vtable_riscv_plic0
200171f0 g     O .rodata	00000040 __metal_driver_vtable_cpu
20015f5c g     F .text	0000002e metal_uart_set_baud_rate
20015ad6 g     F .text	000000d0 __metal_driver_sifive_uart0_init
200138f8 g     F .text	00000072 __metal_driver_cpu_mcycle_get
20017afc g     O .rodata	0000000c __metal_driver_vtable_sifive_fe310_g000_pll
80000f70 g       .heap	00000000 metal_segment_heap_target_start
20010fa4 g     F .text	0000000a _cleanup_r
80000a9c g     O .data	00000004 __metal_dt_cpu_0
20012ea8  w    F .text	00000096 metal_lc8_interrupt_vector_handler
200149d0 g     F .text	00000166 __metal_driver_sifive_fe310_g000_pll_set_rate_hz
2001617a g     F .text	0000004a metal_timer_get_timebase_frequency
20010b7a g     F .text	0000000e puts
20013196  w    F .text	00000096 metal_lc13_interrupt_vector_handler
200125d6 g     F .text	00000018 __metal_default_exception_handler
200161e6 g     F .text	00000026 _fstat
200123bc g     F .text	00000034 __metal_driver_riscv_clint0_set_interrupt
20013e6e g     F .text	00000062 __metal_plic0_set_priority
20013880 g     F .text	0000005c __metal_driver_riscv_cpu_controller_set_vector_mode
20012468 g     F .text	00000030 __metal_driver_cpu_get
200171a4 g     O .rodata	0000004c __metal_driver_vtable_riscv_cpu_intc
200124ca g     F .text	00000018 __metal_interrupt_global_disable
20012e12  w    F .text	00000096 metal_lc7_interrupt_vector_handler
20012fd4  w    F .text	00000096 metal_lc10_interrupt_vector_handler
20011716 g     F .text	0000002a _sbrk_r
2001427e g     F .text	00000048 __metal_driver_riscv_plic0_disable
20013534 g     F .text	0000004e __metal_exception_register
20011ca2 g     F .text	0000002e _read_r
20013a8c g     F .text	0000001a __metal_driver_cpu_timer_controller_interrupt
200150a8 g     F .text	00000040 __metal_driver_sifive_gpio0_enable_output
200126c6 g     F .text	00000068 __metal_default_sw_handler
20015cdc g     F .text	00000032 metal_clock_register_post_rate_change_callback
8000006c g     O .data	0000000c __metal_dt_clock_2
20015802 g     F .text	00000020 __metal_driver_sifive_uart0_interrupt_controller
200169c2 g     F .text	00000352 .hidden __umoddi3
200162f2 g     F .text	00000020 _isatty
2001516e g     F .text	00000040 __metal_driver_sifive_gpio0_output_toggle
80000ac0 g     O .data	00000008 __metal_driver_vtable_fixed_clock
80000a90 g     O .data	00000004 _global_impure_ptr
2001272e  w    F .text	00000092 metal_timer_interrupt_vector_handler
200164aa g     F .text	0000006a __libc_init_array
200150e8 g     F .text	00000040 __metal_driver_sifive_gpio0_output_set
2001306a  w    F .text	00000096 metal_lc11_interrupt_vector_handler
20016664 g     F .text	0000035e .hidden __udivdi3
2001448c g     F .text	00000022 __metal_driver_sifive_fe310_g000_hfxosc_set_rate_hz
2001380e g     F .text	0000002a __metal_driver_riscv_cpu_controller_interrupt_enable
20016366 g     F .text	0000005a _sbrk
20015062 g     F .text	00000046 __metal_driver_sifive_gpio0_disable_output
20015ba6 g     F .text	00000040 _metal_clock_call_all_callbacks
20010174 g     F .init	00000002 _init
2001252c g     F .text	0000001a __metal_interrupt_timer_disable
20015260 g     F .text	00000206 __metal_driver_sifive_gpio0_config_int
20013b4a g     F .text	00000062 __metal_driver_cpu_clear_sw_ipi
20017b48 g     O .rodata	0000003c __metal_driver_vtable_sifive_gpio0
200151ae g     F .text	00000068 __metal_driver_sifive_gpio0_enable_io
20016472 g     F .text	00000038 __libc_fini_array
80000a78 g     O .data	0000000c __metal_dt_clock_4
200155ee g     F .text	00000020 __metal_driver_gpio_interrupt_controller
20013ad4 g     F .text	00000014 __metal_driver_cpu_get_sw_interrupt_id
80000000 g       .data	00000000 metal_segment_data_target_start
2001257e g     F .text	0000002c __metal_interrupt_local_enable
20012388 g     F .text	00000034 __metal_driver_riscv_clint0_clear_interrupt
20016d14 g     F .text	0000002c metal_tty_putc
20013f90 g     F .text	00000018 __metal_plic0_default_handler
80000060 g     O .data	0000000c __metal_dt_clock_0
20015dde g     F .text	000000ea metal_gettimeofday
00000800 g       *ABS*	00000000 __heap_size
20016f40 g     O .rodata	00000020 __sf_fake_stderr
20012562 g     F .text	0000001c __metal_interrupt_external_disable
20015822 g     F .text	00000024 __metal_driver_sifive_uart0_get_interrupt_id
200138dc g     F .text	0000001c __metal_driver_riscv_cpu_controller_command_request
20010882 g     F .text	00000132 driver_i2c0_read
20013582 g     F .text	0000013e __metal_driver_riscv_cpu_controller_interrupt_init
2001143c g     F .text	00000042 __sfputs_r
20013c2c g     F .text	00000046 __metal_driver_cpu_exception_register
200124e2 g     F .text	00000018 __metal_interrupt_software_enable
20012a8e  w    F .text	00000096 metal_lc1_interrupt_vector_handler
200118d6 g     F .text	0000001a memchr
20011288 g     F .text	000000ac _free_r
80000adc g     O .bss	00000004 _global_atexit
20013358 g     F .text	00000050 __metal_controller_interrupt_vector_mode
2001659c g     F .text	000000c8 __call_exitprocs
80000f70 g       .stack	00000000 _sp
2001007e g     F .init	00000000 _start
2001431c g     F .text	00000084 __metal_driver_sifive_fe310_g000_hfrosc_get_rate_hz
20016130 g     F .text	0000004a metal_timer_get_cyclecount
20016312 g     F .text	0000002a _lseek
20013c0c g     F .text	00000020 __metal_driver_cpu_controller_interrupt
20013ca0 g     F .text	0000001e __metal_driver_cpu_get_exception_pc
20010740 g     F .text	00000142 driver_i2c0_write
20012546 g     F .text	0000001c __metal_interrupt_external_enable
20016514 g     F .text	00000088 __register_exitproc
2001587a g     F .text	00000040 __metal_driver_sifive_uart0_putc
20014036 g     F .text	0000013e __metal_driver_riscv_plic0_init
20014236 g     F .text	00000048 __metal_driver_riscv_plic0_enable
20015036 g     F .text	0000002c __metal_driver_sifive_gpio0_output
20012d7c  w    F .text	00000096 metal_lc6_interrupt_vector_handler
20012498 g     F .text	0000001a __metal_myhart_id
2001560e g     F .text	0000002e __metal_driver_gpio_get_interrupt_id
20012634  w    F .text	00000092 metal_software_interrupt_vector_handler
20013838 g     F .text	0000002c __metal_driver_riscv_cpu_controller_interrupt_disable
20011828 g     F .text	0000002a _close_r
20015d0e g     F .text	0000002a metal_cpu_get_timer
20015910 g     F .text	00000020 __metal_driver_sifive_uart0_get_baud_rate
20011f7c g     F .text	000000da __metal_driver_riscv_clint0_register
80000a94 g     O .data	00000008 __metal_dt_clint_2000000
20010c7e g     F .text	00000110 __swsetup_r
2001105c g     F .text	000000a0 __sfp
20015c60 g     F .text	0000004a metal_clock_set_rate_hz
20011740 g     F .text	00000030 __sread
20014f86 g     F .text	00000040 __metal_driver_sifive_gpio0_enable_input
20010176  w    F .init	00000000 secondary_main
20012606  w    F .text	0000002e metal_interrupt_vector_handler
200118f0 g     F .text	00000002 __malloc_lock
20010ed8 g     F .text	00000064 _fflush_r
20013e42 g     F .text	0000002c __metal_plic0_get_threshold
20014b72 g     F .text	0000002e __metal_driver_sifive_fe310_g000_prci_get_reg
20016f60 g     O .rodata	00000020 __sf_fake_stdin
20013478 g     F .text	000000bc __metal_local_interrupt_enable
20012252 g     F .text	00000136 __metal_driver_riscv_clint0_command_request
200109b4 g     F .text	000000a8 memset
20012ce6  w    F .text	00000096 metal_lc5_interrupt_vector_handler
20010200 g     F .text	00000244 main
80000ad0 g       .data	00000000 metal_segment_data_target_end
80000aa8 g     O .data	00000008 __metal_driver_vtable_sifive_fe310_g000_hfrosc
20013ae8 g     F .text	00000062 __metal_driver_cpu_set_sw_ipi
20013bac g     F .text	00000060 __metal_driver_cpu_get_msip
20015dd0 g     F .text	0000000e metal_shutdown
08000000 g       .init_array	00000000 metal_segment_itim_target_end
20013cbe g     F .text	00000020 __metal_driver_cpu_set_exception_pc
20013da4 g     F .text	0000002e __metal_plic0_claim_interrupt
200117f4 g     F .text	00000006 __sclose
20013100  w    F .text	00000096 metal_lc12_interrupt_vector_handler
20011334 g     F .text	000000de _malloc_r
20010b88 g     F .text	00000036 time
2001207e g     F .text	0000001c __metal_driver_riscv_clint0_get_vector_mode
80000aa4 g     O .data	00000004 __metal_dt_prci_10008000
2001396a g     F .text	00000046 __metal_driver_cpu_timebase_get
20010000 g       .init	00000000 _enter
20015db6 g     F .text	0000001a metal_cpu_get_current_hartid
20014418 g     F .text	00000074 __metal_driver_sifive_fe310_g000_hfxosc_get_rate_hz
20016000 g       .text	00000000 __metal_vector_table
20017cc8 g       *ABS*	00000000 metal_segment_itim_source_start
80000a88  w    O .data	00000004 __metal_cpu_table
80000090 g     O .data	000003b8 __metal_dt_cpu_0_interrupt_controller
20010174 g     F .init	00000002 _fini
20010a5c g     F .text	00000044 iprintf
20017bb8 g     O .rodata	00000100 .hidden __clz_tab
200124b2 g     F .text	00000018 __metal_interrupt_global_enable
20016430 g     F .text	0000000a atexit
20016d40 g     F .text	00000028 metal_tty_putc_raw
200117fa g     F .text	0000002e _write_r
20012512 g     F .text	0000001a __metal_interrupt_timer_enable
200158ba g     F .text	00000056 __metal_driver_sifive_uart0_getc
200121a0 g     F .text	000000b2 __metal_driver_riscv_clint0_disable
200118f4 g     F .text	0000010c _printf_common
80000a8c g     O .data	00000004 _impure_ptr
20013a16 g     F .text	00000076 __metal_driver_cpu_mtimecmp_set
20010d8e g     F .text	0000014a __sflush_r
200145de g     F .text	000000a4 __metal_driver_sifive_fe310_g000_pll_init
80000078 g     O .data	0000000c __metal_dt_clock_5
20014ba0 g     F .text	00000038 __metal_driver_sifive_fe310_g000_prci_set_reg
200160f0 g     F .text	0000001e __metal_driver_fixed_clock_get_rate_hz
200120ee g     F .text	000000b2 __metal_driver_riscv_clint0_enable
20017cc8 g       *ABS*	00000000 metal_segment_data_source_start
80001770 g       .heap	00000000 metal_segment_heap_target_end
200133a8 g     F .text	00000098 __metal_controller_interrupt_vector
80000a6c g     O .data	0000000c __metal_dt_clock_1
80000448 g     O .data	000005d8 __metal_dt_interrupt_controller_c000000
20011194 g     F .text	00000058 __swhatbuf_r
20015128 g     F .text	00000046 __metal_driver_sifive_gpio0_output_clear
200127c0 g     F .text	00000066 __metal_default_timer_handler
200163c0 g     F .text	00000070 _write
20013fa8 g     F .text	0000008e __metal_plic0_handler
20012b24  w    F .text	00000096 metal_lc2_interrupt_vector_handler
200132c2  w    F .text	00000096 metal_lc15_interrupt_vector_handler
20015d62 g     F .text	00000026 metal_cpu_interrupt_controller
20011770 g     F .text	0000004e __swrite
20016446 g     F .text	0000002c exit
2001147e g     F .text	00000298 _vfiprintf_r
200110fc g     F .text	0000006c _fwalk_reent
200105e6 g     F .text	00000060 driver_i2c0_init
2001610e g     F .text	00000022 __metal_driver_fixed_clock_set_rate_hz
20016f80 g     O .rodata	00000020 __sf_fake_stdout
2001620c g     F .text	000000e6 _gettimeofday
80000aa0 g     O .data	00000004 __metal_dt_gpio_10012000
200125ee g     F .text	00000018 __metal_default_interrupt_handler
20015f2e g     F .text	0000002e metal_uart_putc
2001633c g     F .text	0000002a _read
2001500c g     F .text	0000002a __metal_driver_sifive_gpio0_input
20012880 g     F .text	00000152 __metal_exception_handler
200129f8  w    F .text	00000096 metal_lc0_interrupt_vector_handler
20016d8c g     F .text	00000014 _exit
200139b0 g     F .text	00000066 __metal_driver_cpu_mtime_get
200111ec g     F .text	0000009c __smakebuf_r
20012056 g     F .text	00000028 __metal_driver_riscv_clint0_vector_register
20011a00 g     F .text	000002a2 _printf_i
80000ad8 g     O .bss	00000004 __malloc_sbrk_start
2001322c  w    F .text	00000096 metal_lc14_interrupt_vector_handler
80000ab0 g     O .data	00000008 __metal_driver_vtable_sifive_fe310_g000_hfxosc
20011ef4 g     F .text	00000088 __metal_driver_riscv_clint0_init
80000ad4 g     O .bss	00000004 __malloc_free_list
20010646 g     F .text	000000fa driver_i2c0_set_baud_rate
2001147e g     F .text	00000298 _vfprintf_r
20013aa6 g     F .text	00000014 __metal_driver_cpu_get_timer_interrupt_id
20013f04 g     F .text	0000008c __metal_plic0_enable
2001006e  w      .init	00000000 __register_frame_info
200143a0 g     F .text	00000022 __metal_driver_sifive_fe310_g000_hfrosc_set_rate_hz
20013aba g     F .text	0000001a __metal_driver_cpu_sw_controller_interrupt
200125aa g     F .text	0000002c __metal_interrupt_local_disable
200124fa g     F .text	00000018 __metal_interrupt_software_disable
20013ed0 g     F .text	00000034 __metal_plic0_get_priority
20015ec8 g     F .text	0000003a metal_time
20015f02 g     F .text	0000002c metal_uart_init
80000a60 g     O .data	0000000c __metal_dt_clock_3
80000084 g     O .data	0000000c __metal_dt_clock_6
20013e0a g     F .text	00000038 __metal_plic0_set_threshold
200161c4 g     F .text	00000022 _close
80000ab8 g     O .data	00000008 __metal_driver_vtable_sifive_fe310_g000_prci
00000000 g       *ABS*	00000000 __metal_boot_hart
20014174 g     F .text	000000c2 __metal_driver_riscv_plic0_register



Disassembly of section .init:

20010000 <_enter>:
_enter():
E:/8.AWS-FreeRTOS-HiFive1/Workspace/sifive-hifive1-revb-i2c/freedom-metal/src/entry.S:24
     * it's not valid to obtain the address of any symbol without GP
     * configured.  The C environment might go ahead and do this again, but
     * that's safe as it's a fixed register. */
.option push
.option norelax
    la gp, __global_pointer$
20010000:	5fff1197          	auipc	gp,0x5fff1
20010004:	28818193          	addi	gp,gp,648 # 80001288 <__global_pointer$>
E:/8.AWS-FreeRTOS-HiFive1/Workspace/sifive-hifive1-revb-i2c/freedom-metal/src/entry.S:29
.option pop

    /* Set up a simple trap vector to catch anything that goes wrong early in
     * the boot process. */
    la t0, early_trap_vector
20010008:	00000297          	auipc	t0,0x0
2001000c:	05828293          	addi	t0,t0,88 # 20010060 <early_trap_vector>
E:/8.AWS-FreeRTOS-HiFive1/Workspace/sifive-hifive1-revb-i2c/freedom-metal/src/entry.S:30
    csrw mtvec, t0
20010010:	30529073          	csrw	mtvec,t0
E:/8.AWS-FreeRTOS-HiFive1/Workspace/sifive-hifive1-revb-i2c/freedom-metal/src/entry.S:32
    /* enable chicken bit if core is bullet series*/
    la t0, __metal_chicken_bit
20010014:	00000293          	li	t0,0
E:/8.AWS-FreeRTOS-HiFive1/Workspace/sifive-hifive1-revb-i2c/freedom-metal/src/entry.S:33
    beqz t0, 1f
20010018:	00028463          	beqz	t0,20010020 <_enter+0x20>
E:/8.AWS-FreeRTOS-HiFive1/Workspace/sifive-hifive1-revb-i2c/freedom-metal/src/entry.S:34
    csrwi 0x7C1, 0
2001001c:	7c105073          	csrwi	0x7c1,0
E:/8.AWS-FreeRTOS-HiFive1/Workspace/sifive-hifive1-revb-i2c/freedom-metal/src/entry.S:43
     * C, so here we set up a C environment.  First we set up a stack pointer,
     * which is left as a weak reference in order to allow initialization
     * routines that do not need a stack to be set up to transparently be
     * called. */
    .weak __metal_stack_pointer
    la sp, __metal_stack_pointer
20010020:	dfff0117          	auipc	sp,0xdfff0
20010024:	fe010113          	addi	sp,sp,-32 # 0 <__metal_boot_hart>
E:/8.AWS-FreeRTOS-HiFive1/Workspace/sifive-hifive1-revb-i2c/freedom-metal/src/entry.S:52
     * actually a full C function, as it doesn't end up with the .bss or .data
     * segments having been initialized.  This is done to avoid putting a
     * burden on systems that can be initialized without having a C environment
     * set up. */
    .weak __metal_before_start
    la ra, __metal_before_start
20010028:	dfff0097          	auipc	ra,0xdfff0
2001002c:	fd808093          	addi	ra,ra,-40 # 0 <__metal_boot_hart>
E:/8.AWS-FreeRTOS-HiFive1/Workspace/sifive-hifive1-revb-i2c/freedom-metal/src/entry.S:53
    beqz ra, 1f
20010030:	00008363          	beqz	ra,20010036 <_enter+0x36>
E:/8.AWS-FreeRTOS-HiFive1/Workspace/sifive-hifive1-revb-i2c/freedom-metal/src/entry.S:54
    jalr ra
20010034:	9082                	jalr	ra
E:/8.AWS-FreeRTOS-HiFive1/Workspace/sifive-hifive1-revb-i2c/freedom-metal/src/entry.S:60
1:

    /* At this point we can enter the C runtime's startup file.  The arguments
     * to this function are designed to match those provided to the SEE, just
     * so we don't have to write another ABI. */
    csrr a0, mhartid
20010036:	f1402573          	csrr	a0,mhartid
E:/8.AWS-FreeRTOS-HiFive1/Workspace/sifive-hifive1-revb-i2c/freedom-metal/src/entry.S:61
    li a1, 0
2001003a:	4581                	li	a1,0
E:/8.AWS-FreeRTOS-HiFive1/Workspace/sifive-hifive1-revb-i2c/freedom-metal/src/entry.S:62
    li a2, 0
2001003c:	4601                	li	a2,0
E:/8.AWS-FreeRTOS-HiFive1/Workspace/sifive-hifive1-revb-i2c/freedom-metal/src/entry.S:63
    call _start
2001003e:	2081                	jal	2001007e <_start>
E:/8.AWS-FreeRTOS-HiFive1/Workspace/sifive-hifive1-revb-i2c/freedom-metal/src/entry.S:68

    /* If we've made it back here then there's probably something wrong.  We
     * allow the METAL to register a handler here. */
    .weak __metal_after_main
    la ra, __metal_after_main
20010040:	dfff0097          	auipc	ra,0xdfff0
20010044:	fc008093          	addi	ra,ra,-64 # 0 <__metal_boot_hart>
E:/8.AWS-FreeRTOS-HiFive1/Workspace/sifive-hifive1-revb-i2c/freedom-metal/src/entry.S:69
    beqz ra, 1f
20010048:	00008363          	beqz	ra,2001004e <_enter+0x4e>
E:/8.AWS-FreeRTOS-HiFive1/Workspace/sifive-hifive1-revb-i2c/freedom-metal/src/entry.S:70
    jalr ra
2001004c:	9082                	jalr	ra
E:/8.AWS-FreeRTOS-HiFive1/Workspace/sifive-hifive1-revb-i2c/freedom-metal/src/entry.S:75
1:

    /* If that handler returns then there's not a whole lot we can do.  Just
     * try to make some noise. */
     la t0, 1f
2001004e:	00000297          	auipc	t0,0x0
20010052:	00c28293          	addi	t0,t0,12 # 2001005a <_enter+0x5a>
E:/8.AWS-FreeRTOS-HiFive1/Workspace/sifive-hifive1-revb-i2c/freedom-metal/src/entry.S:76
     csrw mtvec, t0
20010056:	30529073          	csrw	mtvec,t0
E:/8.AWS-FreeRTOS-HiFive1/Workspace/sifive-hifive1-revb-i2c/freedom-metal/src/entry.S:78
1:
     lw t1, 0(x0)
2001005a:	00002303          	lw	t1,0(zero) # 0 <__metal_boot_hart>
E:/8.AWS-FreeRTOS-HiFive1/Workspace/sifive-hifive1-revb-i2c/freedom-metal/src/entry.S:79
     j 1b
2001005e:	bff5                	j	2001005a <_enter+0x5a>

20010060 <early_trap_vector>:
early_trap_vector():
E:/8.AWS-FreeRTOS-HiFive1/Workspace/sifive-hifive1-revb-i2c/freedom-metal/src/entry.S:89
 * you end up here then there's a bug in the early boot code somewhere. */
.section .text.metal.init.trapvec
.align 2
early_trap_vector:
    .cfi_startproc
    csrr t0, mcause
20010060:	342022f3          	csrr	t0,mcause
E:/8.AWS-FreeRTOS-HiFive1/Workspace/sifive-hifive1-revb-i2c/freedom-metal/src/entry.S:90
    csrr t1, mepc
20010064:	34102373          	csrr	t1,mepc
E:/8.AWS-FreeRTOS-HiFive1/Workspace/sifive-hifive1-revb-i2c/freedom-metal/src/entry.S:91
    csrr t2, mtval
20010068:	343023f3          	csrr	t2,mtval
E:/8.AWS-FreeRTOS-HiFive1/Workspace/sifive-hifive1-revb-i2c/freedom-metal/src/entry.S:92
    j early_trap_vector
2001006c:	bfd5                	j	20010060 <early_trap_vector>

2001006e <__register_frame_info>:
__register_frame_info():
E:/8.AWS-FreeRTOS-HiFive1/Workspace/sifive-hifive1-revb-i2c/freedom-metal/src/entry.S:105
.weak __register_frame_info
.global __register_frame_info
.section .text.metal.init.__register_frame_info
__register_frame_info:
    .cfi_startproc
    ret
2001006e:	8082                	ret

20010070 <__metal_synchronize_harts>:
__metal_synchronize_harts():
E:/8.AWS-FreeRTOS-HiFive1/Workspace/sifive-hifive1-revb-i2c/freedom-metal/src/synchronize_harts.c:19
 * _synchronize_harts() is called by crt0.S to cause harts > 0 to wait for
 * hart 0 to finish copying the datat section, zeroing the BSS, and running
 * the libc contstructors.
 */
__attribute__((section(".init")))
void __metal_synchronize_harts() {
20010070:	1141                	addi	sp,sp,-16
20010072:	c622                	sw	s0,12(sp)
20010074:	0800                	addi	s0,sp,16
E:/8.AWS-FreeRTOS-HiFive1/Workspace/sifive-hifive1-revb-i2c/freedom-metal/src/synchronize_harts.c:61
        /* Wait for hart 0 to clear the MSIP bit */
        while (METAL_MSIP(msip_base, hart) == 1) ;
    }

#endif /* __METAL_DT_MAX_HARTS > 1 */
}
20010076:	0001                	nop
20010078:	4432                	lw	s0,12(sp)
2001007a:	0141                	addi	sp,sp,16
2001007c:	8082                	ret

2001007e <_start>:
_start():
E:/8.AWS-FreeRTOS-HiFive1/Workspace/sifive-hifive1-revb-i2c/freedom-metal/gloss/crt0.S:36
.cfi_startproc
.cfi_undefined ra

  /* This is a bit funky: it's not usually sane for _start to return, but in
   * this case we actually want to in order to signal an error to the METAL. */
  mv s0, ra
2001007e:	8406                	mv	s0,ra
E:/8.AWS-FreeRTOS-HiFive1/Workspace/sifive-hifive1-revb-i2c/freedom-metal/gloss/crt0.S:44
   * safely perform any access that may be relaxed without GP being set.  This
   * is done with relaxation disabled to avoid relaxing the address calculation
   * to just "addi gp, gp, 0". */
.option push
.option norelax
  la gp, __global_pointer$
20010080:	5fff1197          	auipc	gp,0x5fff1
20010084:	20818193          	addi	gp,gp,520 # 80001288 <__global_pointer$>
E:/8.AWS-FreeRTOS-HiFive1/Workspace/sifive-hifive1-revb-i2c/freedom-metal/gloss/crt0.S:51

  /* The METAL is designed for a bare-metal environment and therefor is expected
   * to define its own stack pointer.  We also align the stack pointer here
   * because the only RISC-V ABI that's currently defined mandates 16-byte
   * stack alignment. */
  la sp, _sp
20010088:	ce818113          	addi	sp,gp,-792 # 80000f70 <_sp>
E:/8.AWS-FreeRTOS-HiFive1/Workspace/sifive-hifive1-revb-i2c/freedom-metal/gloss/crt0.S:54

  /* Increment by hartid number of stack sizes */
  li t0, 0
2001008c:	4281                	li	t0,0
E:/8.AWS-FreeRTOS-HiFive1/Workspace/sifive-hifive1-revb-i2c/freedom-metal/gloss/crt0.S:55
  la t1, __stack_size
2001008e:	40000313          	li	t1,1024
E:/8.AWS-FreeRTOS-HiFive1/Workspace/sifive-hifive1-revb-i2c/freedom-metal/gloss/crt0.S:57
1:
  beq t0, a0, 1f
20010092:	00a28563          	beq	t0,a0,2001009c <_start+0x1e>
E:/8.AWS-FreeRTOS-HiFive1/Workspace/sifive-hifive1-revb-i2c/freedom-metal/gloss/crt0.S:58
  add sp, sp, t1
20010096:	911a                	add	sp,sp,t1
E:/8.AWS-FreeRTOS-HiFive1/Workspace/sifive-hifive1-revb-i2c/freedom-metal/gloss/crt0.S:59
  addi t0, t0, 1
20010098:	0285                	addi	t0,t0,1
E:/8.AWS-FreeRTOS-HiFive1/Workspace/sifive-hifive1-revb-i2c/freedom-metal/gloss/crt0.S:60
  j 1b
2001009a:	bfe5                	j	20010092 <_start+0x14>
E:/8.AWS-FreeRTOS-HiFive1/Workspace/sifive-hifive1-revb-i2c/freedom-metal/gloss/crt0.S:62
1:
  andi sp, sp, -16
2001009c:	ff017113          	andi	sp,sp,-16
E:/8.AWS-FreeRTOS-HiFive1/Workspace/sifive-hifive1-revb-i2c/freedom-metal/gloss/crt0.S:65

  /* If we're not hart 0, skip the initialization work */
  la t0, __metal_boot_hart
200100a0:	00000293          	li	t0,0
E:/8.AWS-FreeRTOS-HiFive1/Workspace/sifive-hifive1-revb-i2c/freedom-metal/gloss/crt0.S:66
  bne a0, t0, _skip_init
200100a4:	08551963          	bne	a0,t0,20010136 <_skip_init>
E:/8.AWS-FreeRTOS-HiFive1/Workspace/sifive-hifive1-revb-i2c/freedom-metal/gloss/crt0.S:75
   * boot and then need to get relocated into a non-persistant writable memory
   * before C code can execute.  If this is the case we do so here.  This step
   * is optional: if the METAL provides an environment in which this relocation
   * is not necessary then it must simply set metal_segment_data_source_start to
   * be equal to metal_segment_data_target_start. */
  la t0, metal_segment_data_source_start
200100a8:	00008297          	auipc	t0,0x8
200100ac:	c2028293          	addi	t0,t0,-992 # 20017cc8 <metal_segment_data_source_start>
E:/8.AWS-FreeRTOS-HiFive1/Workspace/sifive-hifive1-revb-i2c/freedom-metal/gloss/crt0.S:76
  la t1, metal_segment_data_target_start
200100b0:	5fff0317          	auipc	t1,0x5fff0
200100b4:	f5030313          	addi	t1,t1,-176 # 80000000 <metal_segment_data_target_start>
E:/8.AWS-FreeRTOS-HiFive1/Workspace/sifive-hifive1-revb-i2c/freedom-metal/gloss/crt0.S:77
  la t2, metal_segment_data_target_end
200100b8:	84818393          	addi	t2,gp,-1976 # 80000ad0 <metal_segment_data_target_end>
E:/8.AWS-FreeRTOS-HiFive1/Workspace/sifive-hifive1-revb-i2c/freedom-metal/gloss/crt0.S:79

  beq t0, t1, 2f
200100bc:	00628c63          	beq	t0,t1,200100d4 <_start+0x56>
E:/8.AWS-FreeRTOS-HiFive1/Workspace/sifive-hifive1-revb-i2c/freedom-metal/gloss/crt0.S:80
  bge t1, t2, 2f
200100c0:	00735a63          	bge	t1,t2,200100d4 <_start+0x56>
E:/8.AWS-FreeRTOS-HiFive1/Workspace/sifive-hifive1-revb-i2c/freedom-metal/gloss/crt0.S:84

1:
#if __riscv_xlen == 32
  lw   a0, 0(t0)
200100c4:	0002a503          	lw	a0,0(t0)
E:/8.AWS-FreeRTOS-HiFive1/Workspace/sifive-hifive1-revb-i2c/freedom-metal/gloss/crt0.S:85
  addi t0, t0, 4
200100c8:	0291                	addi	t0,t0,4
E:/8.AWS-FreeRTOS-HiFive1/Workspace/sifive-hifive1-revb-i2c/freedom-metal/gloss/crt0.S:86
  sw   a0, 0(t1)
200100ca:	00a32023          	sw	a0,0(t1)
E:/8.AWS-FreeRTOS-HiFive1/Workspace/sifive-hifive1-revb-i2c/freedom-metal/gloss/crt0.S:87
  addi t1, t1, 4
200100ce:	0311                	addi	t1,t1,4
E:/8.AWS-FreeRTOS-HiFive1/Workspace/sifive-hifive1-revb-i2c/freedom-metal/gloss/crt0.S:88
  blt  t1, t2, 1b
200100d0:	fe734ae3          	blt	t1,t2,200100c4 <_start+0x46>
E:/8.AWS-FreeRTOS-HiFive1/Workspace/sifive-hifive1-revb-i2c/freedom-metal/gloss/crt0.S:99
  blt  t1, t2, 1b
#endif
2:

  /* Copy the ITIM section */
  la t0, metal_segment_itim_source_start
200100d4:	00008297          	auipc	t0,0x8
200100d8:	bf428293          	addi	t0,t0,-1036 # 20017cc8 <metal_segment_data_source_start>
E:/8.AWS-FreeRTOS-HiFive1/Workspace/sifive-hifive1-revb-i2c/freedom-metal/gloss/crt0.S:100
  la t1, metal_segment_itim_target_start
200100dc:	e7ff0317          	auipc	t1,0xe7ff0
200100e0:	f2430313          	addi	t1,t1,-220 # 8000000 <metal_segment_itim_target_end>
E:/8.AWS-FreeRTOS-HiFive1/Workspace/sifive-hifive1-revb-i2c/freedom-metal/gloss/crt0.S:101
  la t2, metal_segment_itim_target_end
200100e4:	e7ff0397          	auipc	t2,0xe7ff0
200100e8:	f1c38393          	addi	t2,t2,-228 # 8000000 <metal_segment_itim_target_end>
E:/8.AWS-FreeRTOS-HiFive1/Workspace/sifive-hifive1-revb-i2c/freedom-metal/gloss/crt0.S:103

  beq t0, t1, 2f
200100ec:	00628c63          	beq	t0,t1,20010104 <_start+0x86>
E:/8.AWS-FreeRTOS-HiFive1/Workspace/sifive-hifive1-revb-i2c/freedom-metal/gloss/crt0.S:104
  bge t1, t2, 2f
200100f0:	00735a63          	bge	t1,t2,20010104 <_start+0x86>
E:/8.AWS-FreeRTOS-HiFive1/Workspace/sifive-hifive1-revb-i2c/freedom-metal/gloss/crt0.S:108

1:
#if __riscv_xlen == 32
  lw   a0, 0(t0)
200100f4:	0002a503          	lw	a0,0(t0)
E:/8.AWS-FreeRTOS-HiFive1/Workspace/sifive-hifive1-revb-i2c/freedom-metal/gloss/crt0.S:109
  addi t0, t0, 4
200100f8:	0291                	addi	t0,t0,4
E:/8.AWS-FreeRTOS-HiFive1/Workspace/sifive-hifive1-revb-i2c/freedom-metal/gloss/crt0.S:110
  sw   a0, 0(t1)
200100fa:	00a32023          	sw	a0,0(t1)
E:/8.AWS-FreeRTOS-HiFive1/Workspace/sifive-hifive1-revb-i2c/freedom-metal/gloss/crt0.S:111
  addi t1, t1, 4
200100fe:	0311                	addi	t1,t1,4
E:/8.AWS-FreeRTOS-HiFive1/Workspace/sifive-hifive1-revb-i2c/freedom-metal/gloss/crt0.S:112
  blt  t1, t2, 1b
20010100:	fe734ae3          	blt	t1,t2,200100f4 <_start+0x76>
E:/8.AWS-FreeRTOS-HiFive1/Workspace/sifive-hifive1-revb-i2c/freedom-metal/gloss/crt0.S:124
#endif
2:

  /* Fence all subsequent instruction fetches until after the ITIM writes
     complete */
  fence.i
20010104:	0000100f          	fence.i
E:/8.AWS-FreeRTOS-HiFive1/Workspace/sifive-hifive1-revb-i2c/freedom-metal/gloss/crt0.S:127

  /* Zero the BSS segment. */
  la t1, metal_segment_bss_target_start
20010108:	5fff1317          	auipc	t1,0x5fff1
2001010c:	9c830313          	addi	t1,t1,-1592 # 80000ad0 <metal_segment_data_target_end>
E:/8.AWS-FreeRTOS-HiFive1/Workspace/sifive-hifive1-revb-i2c/freedom-metal/gloss/crt0.S:128
  la t2, metal_segment_bss_target_end
20010110:	8e818393          	addi	t2,gp,-1816 # 80000b70 <metal_segment_bss_target_end>
E:/8.AWS-FreeRTOS-HiFive1/Workspace/sifive-hifive1-revb-i2c/freedom-metal/gloss/crt0.S:130

  bge t1, t2, 2f
20010114:	00735763          	bge	t1,t2,20010122 <_start+0xa4>
E:/8.AWS-FreeRTOS-HiFive1/Workspace/sifive-hifive1-revb-i2c/freedom-metal/gloss/crt0.S:134

1:
#if __riscv_xlen == 32
  sw   x0, 0(t1)
20010118:	00032023          	sw	zero,0(t1)
E:/8.AWS-FreeRTOS-HiFive1/Workspace/sifive-hifive1-revb-i2c/freedom-metal/gloss/crt0.S:135
  addi t1, t1, 4
2001011c:	0311                	addi	t1,t1,4
E:/8.AWS-FreeRTOS-HiFive1/Workspace/sifive-hifive1-revb-i2c/freedom-metal/gloss/crt0.S:136
  blt  t1, t2, 1b
2001011e:	fe734de3          	blt	t1,t2,20010118 <_start+0x9a>
E:/8.AWS-FreeRTOS-HiFive1/Workspace/sifive-hifive1-revb-i2c/freedom-metal/gloss/crt0.S:147
2:

  /* At this point we're in an environment that can execute C code.  The first
   * thing to do is to make the callback to the parent environment if it's been
   * requested to do so. */
  beqz a2, 1f
20010122:	c211                	beqz	a2,20010126 <_start+0xa8>
E:/8.AWS-FreeRTOS-HiFive1/Workspace/sifive-hifive1-revb-i2c/freedom-metal/gloss/crt0.S:148
  jalr a2
20010124:	9602                	jalr	a2
E:/8.AWS-FreeRTOS-HiFive1/Workspace/sifive-hifive1-revb-i2c/freedom-metal/gloss/crt0.S:152
1:

  /* The RISC-V port only uses new-style constructors and destructors. */
  la a0, __libc_fini_array
20010126:	00006517          	auipc	a0,0x6
2001012a:	34c50513          	addi	a0,a0,844 # 20016472 <__libc_fini_array>
E:/8.AWS-FreeRTOS-HiFive1/Workspace/sifive-hifive1-revb-i2c/freedom-metal/gloss/crt0.S:153
  call atexit
2001012e:	302060ef          	jal	ra,20016430 <atexit>
E:/8.AWS-FreeRTOS-HiFive1/Workspace/sifive-hifive1-revb-i2c/freedom-metal/gloss/crt0.S:154
  call __libc_init_array
20010132:	378060ef          	jal	ra,200164aa <__libc_init_array>

20010136 <_skip_init>:
_skip_init():
E:/8.AWS-FreeRTOS-HiFive1/Workspace/sifive-hifive1-revb-i2c/freedom-metal/gloss/crt0.S:160

_skip_init:

  /* Synchronize harts so that secondary harts wait until hart 0 finishes
     initializing */
  call __metal_synchronize_harts
20010136:	3f2d                	jal	20010070 <__metal_synchronize_harts>
E:/8.AWS-FreeRTOS-HiFive1/Workspace/sifive-hifive1-revb-i2c/freedom-metal/gloss/crt0.S:163

  /* Check RISC-V isa and enable FS bits if Floating Point architecture. */
  csrr a5, misa
20010138:	301027f3          	csrr	a5,misa
E:/8.AWS-FreeRTOS-HiFive1/Workspace/sifive-hifive1-revb-i2c/freedom-metal/gloss/crt0.S:164
  li   a4, 0x10028
2001013c:	00010737          	lui	a4,0x10
20010140:	02870713          	addi	a4,a4,40 # 10028 <__heap_size+0xf828>
E:/8.AWS-FreeRTOS-HiFive1/Workspace/sifive-hifive1-revb-i2c/freedom-metal/gloss/crt0.S:165
  and  a5, a5, a4
20010144:	8ff9                	and	a5,a5,a4
E:/8.AWS-FreeRTOS-HiFive1/Workspace/sifive-hifive1-revb-i2c/freedom-metal/gloss/crt0.S:166
  beqz a5, 1f
20010146:	cb89                	beqz	a5,20010158 <_skip_init+0x22>
E:/8.AWS-FreeRTOS-HiFive1/Workspace/sifive-hifive1-revb-i2c/freedom-metal/gloss/crt0.S:167
  csrr a5, mstatus
20010148:	300027f3          	csrr	a5,mstatus
E:/8.AWS-FreeRTOS-HiFive1/Workspace/sifive-hifive1-revb-i2c/freedom-metal/gloss/crt0.S:168
  lui  a4, 0x2
2001014c:	6709                	lui	a4,0x2
E:/8.AWS-FreeRTOS-HiFive1/Workspace/sifive-hifive1-revb-i2c/freedom-metal/gloss/crt0.S:169
  or   a5, a5, a4
2001014e:	8fd9                	or	a5,a5,a4
E:/8.AWS-FreeRTOS-HiFive1/Workspace/sifive-hifive1-revb-i2c/freedom-metal/gloss/crt0.S:170
  csrw mstatus, a5
20010150:	30079073          	csrw	mstatus,a5
E:/8.AWS-FreeRTOS-HiFive1/Workspace/sifive-hifive1-revb-i2c/freedom-metal/gloss/crt0.S:171
  csrwi fcsr, 0
20010154:	00305073          	csrwi	fcsr,0
E:/8.AWS-FreeRTOS-HiFive1/Workspace/sifive-hifive1-revb-i2c/freedom-metal/gloss/crt0.S:177
1:

  /* This is a C runtime, so main() is defined to have some arguments.  Since
   * there's nothing sane the METAL can pass we don't bother with that but
   * instead just setup as close to a NOP as we can. */
  li a0, 1     /* argc=1 */
20010158:	4505                	li	a0,1
E:/8.AWS-FreeRTOS-HiFive1/Workspace/sifive-hifive1-revb-i2c/freedom-metal/gloss/crt0.S:178
  la a1, argv  /* argv = {"libgloss", NULL} */
2001015a:	00008597          	auipc	a1,0x8
2001015e:	a4a58593          	addi	a1,a1,-1462 # 20017ba4 <argv>
E:/8.AWS-FreeRTOS-HiFive1/Workspace/sifive-hifive1-revb-i2c/freedom-metal/gloss/crt0.S:179
  la a2, envp  /* envp = {NULL} */
20010162:	00008617          	auipc	a2,0x8
20010166:	a4660613          	addi	a2,a2,-1466 # 20017ba8 <envp>
E:/8.AWS-FreeRTOS-HiFive1/Workspace/sifive-hifive1-revb-i2c/freedom-metal/gloss/crt0.S:180
  call secondary_main
2001016a:	2031                	jal	20010176 <secondary_main>
E:/8.AWS-FreeRTOS-HiFive1/Workspace/sifive-hifive1-revb-i2c/freedom-metal/gloss/crt0.S:186

  /* Call exit to handle libc's cleanup routines.  Under normal contains this
   * shouldn't even get called, but I'm still not using a tail call here
   * because returning to the METAL is the right thing to do in pathological
   * situations. */
  call exit
2001016c:	2da060ef          	jal	ra,20016446 <exit>
E:/8.AWS-FreeRTOS-HiFive1/Workspace/sifive-hifive1-revb-i2c/freedom-metal/gloss/crt0.S:191

  /* And here's where we return.  Again, it's a bit odd but the METAL defines
   * this as a bad idea (ie, as opposed to leaving it undefined) and at this
   * point it's really the only thing left to do. */
  mv ra, s0
20010170:	80a2                	mv	ra,s0
E:/8.AWS-FreeRTOS-HiFive1/Workspace/sifive-hifive1-revb-i2c/freedom-metal/gloss/crt0.S:192
  ret
20010172:	8082                	ret

20010174 <_fini>:
_init():
E:/8.AWS-FreeRTOS-HiFive1/Workspace/sifive-hifive1-revb-i2c/freedom-metal/gloss/crt0.S:204
.type   _init, @function
.global _fini
.type   _fini, @function
_init:
_fini:
  ret
20010174:	8082                	ret

20010176 <secondary_main>:
secondary_main():
E:/8.AWS-FreeRTOS-HiFive1/Workspace/sifive-hifive1-revb-i2c/freedom-metal/gloss/crt0.S:215
.weak   secondary_main
.global secondary_main
.type   secondary_main, @function

secondary_main:
  addi sp, sp, -16
20010176:	1141                	addi	sp,sp,-16
E:/8.AWS-FreeRTOS-HiFive1/Workspace/sifive-hifive1-revb-i2c/freedom-metal/gloss/crt0.S:217
#if __riscv_xlen == 32
  sw ra, 4(sp)
20010178:	c206                	sw	ra,4(sp)
E:/8.AWS-FreeRTOS-HiFive1/Workspace/sifive-hifive1-revb-i2c/freedom-metal/gloss/crt0.S:221
#else
  sd ra, 8(sp)
#endif
  csrr t0, mhartid
2001017a:	f14022f3          	csrr	t0,mhartid
E:/8.AWS-FreeRTOS-HiFive1/Workspace/sifive-hifive1-revb-i2c/freedom-metal/gloss/crt0.S:222
  la t1, __metal_boot_hart
2001017e:	00000313          	li	t1,0
E:/8.AWS-FreeRTOS-HiFive1/Workspace/sifive-hifive1-revb-i2c/freedom-metal/gloss/crt0.S:223
  beq t0, t1, 2f
20010182:	00628563          	beq	t0,t1,2001018c <secondary_main+0x16>
E:/8.AWS-FreeRTOS-HiFive1/Workspace/sifive-hifive1-revb-i2c/freedom-metal/gloss/crt0.S:225
1:
  wfi
20010186:	10500073          	wfi
E:/8.AWS-FreeRTOS-HiFive1/Workspace/sifive-hifive1-revb-i2c/freedom-metal/gloss/crt0.S:226
  j 1b
2001018a:	bff5                	j	20010186 <secondary_main+0x10>
E:/8.AWS-FreeRTOS-HiFive1/Workspace/sifive-hifive1-revb-i2c/freedom-metal/gloss/crt0.S:228
2:
  call main
2001018c:	2895                	jal	20010200 <main>
E:/8.AWS-FreeRTOS-HiFive1/Workspace/sifive-hifive1-revb-i2c/freedom-metal/gloss/crt0.S:230
#if __riscv_xlen == 32
  lw ra, 4(sp)
2001018e:	4092                	lw	ra,4(sp)
E:/8.AWS-FreeRTOS-HiFive1/Workspace/sifive-hifive1-revb-i2c/freedom-metal/gloss/crt0.S:234
#else
  ld ra, 8(sp)
#endif
  addi sp, sp, 16
20010190:	0141                	addi	sp,sp,16
E:/8.AWS-FreeRTOS-HiFive1/Workspace/sifive-hifive1-revb-i2c/freedom-metal/gloss/crt0.S:235
  ret
20010192:	8082                	ret

Disassembly of section .text:

20010200 <main>:
main():
E:\8.AWS-FreeRTOS-HiFive1\Workspace\sifive-hifive1-revb-i2c\src/main.c:59
	  ;
  }
}

int main(void)
{
20010200:	7179                	addi	sp,sp,-48
20010202:	d606                	sw	ra,44(sp)
20010204:	d422                	sw	s0,40(sp)
20010206:	1800                	addi	s0,sp,48
E:\8.AWS-FreeRTOS-HiFive1\Workspace\sifive-hifive1-revb-i2c\src/main.c:63
  unsigned int temp, volt;
  unsigned char buf[LEN2];
  time_t timeout;
  int ret = 0;
20010208:	fe042623          	sw	zero,-20(s0)
E:\8.AWS-FreeRTOS-HiFive1\Workspace\sifive-hifive1-revb-i2c\src/main.c:67
  char recv[12];
//  printf("recv size %d, len %d\n", sizeof(recv), strlen(recv)); // msg size 12, len 0
//  printf("%s %s \n", __DATE__, __TIME__);
  printf("I2C demo test..\n");
2001020c:	200177b7          	lui	a5,0x20017
20010210:	da078513          	addi	a0,a5,-608 # 20016da0 <_exit+0x14>
20010214:	167000ef          	jal	ra,20010b7a <puts>
E:\8.AWS-FreeRTOS-HiFive1\Workspace\sifive-hifive1-revb-i2c\src/main.c:70


  ret = driver_i2c0_init(I2C_BAUDRATE, METAL_I2C_MASTER);
20010218:	4585                	li	a1,1
2001021a:	67e1                	lui	a5,0x18
2001021c:	6a078513          	addi	a0,a5,1696 # 186a0 <__heap_size+0x17ea0>
20010220:	26d9                	jal	200105e6 <driver_i2c0_init>
20010222:	fea42623          	sw	a0,-20(s0)
E:\8.AWS-FreeRTOS-HiFive1\Workspace\sifive-hifive1-revb-i2c\src/main.c:71
  if(ret != 0)
20010226:	fec42783          	lw	a5,-20(s0)
2001022a:	cb89                	beqz	a5,2001023c <main+0x3c>
E:\8.AWS-FreeRTOS-HiFive1\Workspace\sifive-hifive1-revb-i2c\src/main.c:73
  {
	  printf("driver_i2c0_init failed , ret %d\r\n", ret);
2001022c:	fec42583          	lw	a1,-20(s0)
20010230:	200177b7          	lui	a5,0x20017
20010234:	db078513          	addi	a0,a5,-592 # 20016db0 <_exit+0x24>
20010238:	025000ef          	jal	ra,20010a5c <iprintf>
E:\8.AWS-FreeRTOS-HiFive1\Workspace\sifive-hifive1-revb-i2c\src/main.c:76
  }
#if 1
  printf("Test driver_i2c0_write send continuously\n");
2001023c:	200177b7          	lui	a5,0x20017
20010240:	dd478513          	addi	a0,a5,-556 # 20016dd4 <_exit+0x48>
20010244:	137000ef          	jal	ra,20010b7a <puts>
E:\8.AWS-FreeRTOS-HiFive1\Workspace\sifive-hifive1-revb-i2c\src/main.c:78
//  driver_i2c0_write(8, 6, "123456", METAL_I2C_STOP_ENABLE);
  driver_i2c0_write(8, strlen("string 1\r\n"), "string 1\r\n", METAL_I2C_STOP_ENABLE);
20010248:	4685                	li	a3,1
2001024a:	200177b7          	lui	a5,0x20017
2001024e:	e0078613          	addi	a2,a5,-512 # 20016e00 <_exit+0x74>
20010252:	45a9                	li	a1,10
20010254:	4521                	li	a0,8
20010256:	21ed                	jal	20010740 <driver_i2c0_write>
E:\8.AWS-FreeRTOS-HiFive1\Workspace\sifive-hifive1-revb-i2c\src/main.c:79
  driver_i2c0_write(8, strlen("string 2\r\n"), "string 2\r\n", METAL_I2C_STOP_ENABLE);
20010258:	4685                	li	a3,1
2001025a:	200177b7          	lui	a5,0x20017
2001025e:	e0c78613          	addi	a2,a5,-500 # 20016e0c <_exit+0x80>
20010262:	45a9                	li	a1,10
20010264:	4521                	li	a0,8
20010266:	29e9                	jal	20010740 <driver_i2c0_write>
E:\8.AWS-FreeRTOS-HiFive1\Workspace\sifive-hifive1-revb-i2c\src/main.c:80
  driver_i2c0_write(8, strlen("string 3\r\n"), "string 3\r\n", METAL_I2C_STOP_ENABLE);
20010268:	4685                	li	a3,1
2001026a:	200177b7          	lui	a5,0x20017
2001026e:	e1878613          	addi	a2,a5,-488 # 20016e18 <_exit+0x8c>
20010272:	45a9                	li	a1,10
20010274:	4521                	li	a0,8
20010276:	21e9                	jal	20010740 <driver_i2c0_write>
E:\8.AWS-FreeRTOS-HiFive1\Workspace\sifive-hifive1-revb-i2c\src/main.c:81
  driver_i2c0_write(8, strlen("string 4\r\n"), "string 4\r\n", METAL_I2C_STOP_ENABLE);
20010278:	4685                	li	a3,1
2001027a:	200177b7          	lui	a5,0x20017
2001027e:	e2478613          	addi	a2,a5,-476 # 20016e24 <_exit+0x98>
20010282:	45a9                	li	a1,10
20010284:	4521                	li	a0,8
20010286:	296d                	jal	20010740 <driver_i2c0_write>
E:\8.AWS-FreeRTOS-HiFive1\Workspace\sifive-hifive1-revb-i2c\src/main.c:83

  printf("Test driver_i2c0_write retrun, stop enable\n");
20010288:	200177b7          	lui	a5,0x20017
2001028c:	e3078513          	addi	a0,a5,-464 # 20016e30 <_exit+0xa4>
20010290:	0eb000ef          	jal	ra,20010b7a <puts>
E:\8.AWS-FreeRTOS-HiFive1\Workspace\sifive-hifive1-revb-i2c\src/main.c:84
  ret = driver_i2c0_write(8, strlen("I2C send with stop bit\r\n"), "I2C send with stop bit\r\n", METAL_I2C_STOP_ENABLE);
20010294:	4685                	li	a3,1
20010296:	200177b7          	lui	a5,0x20017
2001029a:	e5c78613          	addi	a2,a5,-420 # 20016e5c <_exit+0xd0>
2001029e:	45e1                	li	a1,24
200102a0:	4521                	li	a0,8
200102a2:	2979                	jal	20010740 <driver_i2c0_write>
200102a4:	fea42623          	sw	a0,-20(s0)
E:\8.AWS-FreeRTOS-HiFive1\Workspace\sifive-hifive1-revb-i2c\src/main.c:85
  printf("driver_i2c0_write returns %d\r\n", ret);
200102a8:	fec42583          	lw	a1,-20(s0)
200102ac:	200177b7          	lui	a5,0x20017
200102b0:	e7878513          	addi	a0,a5,-392 # 20016e78 <_exit+0xec>
200102b4:	7a8000ef          	jal	ra,20010a5c <iprintf>
E:\8.AWS-FreeRTOS-HiFive1\Workspace\sifive-hifive1-revb-i2c\src/main.c:87

  printf("Test driver_i2c0_write retrun, stop enable\n");
200102b8:	200177b7          	lui	a5,0x20017
200102bc:	e3078513          	addi	a0,a5,-464 # 20016e30 <_exit+0xa4>
200102c0:	0bb000ef          	jal	ra,20010b7a <puts>
E:\8.AWS-FreeRTOS-HiFive1\Workspace\sifive-hifive1-revb-i2c\src/main.c:88
  ret = driver_i2c0_write(8, strlen("I2C send with stop bit\r\n"), "I2C send with stop bit\r\n", METAL_I2C_STOP_ENABLE);
200102c4:	4685                	li	a3,1
200102c6:	200177b7          	lui	a5,0x20017
200102ca:	e5c78613          	addi	a2,a5,-420 # 20016e5c <_exit+0xd0>
200102ce:	45e1                	li	a1,24
200102d0:	4521                	li	a0,8
200102d2:	21bd                	jal	20010740 <driver_i2c0_write>
200102d4:	fea42623          	sw	a0,-20(s0)
E:\8.AWS-FreeRTOS-HiFive1\Workspace\sifive-hifive1-revb-i2c\src/main.c:89
  printf("driver_i2c0_write returns %d\r\n", ret);
200102d8:	fec42583          	lw	a1,-20(s0)
200102dc:	200177b7          	lui	a5,0x20017
200102e0:	e7878513          	addi	a0,a5,-392 # 20016e78 <_exit+0xec>
200102e4:	778000ef          	jal	ra,20010a5c <iprintf>
E:\8.AWS-FreeRTOS-HiFive1\Workspace\sifive-hifive1-revb-i2c\src/main.c:91

  printf("Test driver_i2c0_write retrun, stop enable\n");
200102e8:	200177b7          	lui	a5,0x20017
200102ec:	e3078513          	addi	a0,a5,-464 # 20016e30 <_exit+0xa4>
200102f0:	08b000ef          	jal	ra,20010b7a <puts>
E:\8.AWS-FreeRTOS-HiFive1\Workspace\sifive-hifive1-revb-i2c\src/main.c:92
  ret = driver_i2c0_write(8, strlen("I2C send with stop bit\r\n"), "I2C send with stop bit\r\n", METAL_I2C_STOP_ENABLE);
200102f4:	4685                	li	a3,1
200102f6:	200177b7          	lui	a5,0x20017
200102fa:	e5c78613          	addi	a2,a5,-420 # 20016e5c <_exit+0xd0>
200102fe:	45e1                	li	a1,24
20010300:	4521                	li	a0,8
20010302:	293d                	jal	20010740 <driver_i2c0_write>
20010304:	fea42623          	sw	a0,-20(s0)
E:\8.AWS-FreeRTOS-HiFive1\Workspace\sifive-hifive1-revb-i2c\src/main.c:93
  printf("driver_i2c0_write returns %d\r\n", ret);
20010308:	fec42583          	lw	a1,-20(s0)
2001030c:	200177b7          	lui	a5,0x20017
20010310:	e7878513          	addi	a0,a5,-392 # 20016e78 <_exit+0xec>
20010314:	748000ef          	jal	ra,20010a5c <iprintf>
E:\8.AWS-FreeRTOS-HiFive1\Workspace\sifive-hifive1-revb-i2c\src/main.c:116
//	  printf("driver_i2c0_read failed\r\n");
//  } else {
//	  printf("%s\r\n", recv);
//  }

  printf("Test 1 driver_i2c0_read retrun, stop enable\n");
20010318:	200177b7          	lui	a5,0x20017
2001031c:	e9878513          	addi	a0,a5,-360 # 20016e98 <_exit+0x10c>
20010320:	05b000ef          	jal	ra,20010b7a <puts>
E:\8.AWS-FreeRTOS-HiFive1\Workspace\sifive-hifive1-revb-i2c\src/main.c:117
  memset(recv, 0, sizeof(recv));
20010324:	fd040793          	addi	a5,s0,-48
20010328:	4631                	li	a2,12
2001032a:	4581                	li	a1,0
2001032c:	853e                	mv	a0,a5
2001032e:	2559                	jal	200109b4 <memset>
E:\8.AWS-FreeRTOS-HiFive1\Workspace\sifive-hifive1-revb-i2c\src/main.c:118
  if(driver_i2c0_read(8, 6, recv, METAL_I2C_STOP_ENABLE) != 0)
20010330:	fd040793          	addi	a5,s0,-48
20010334:	4685                	li	a3,1
20010336:	863e                	mv	a2,a5
20010338:	4599                	li	a1,6
2001033a:	4521                	li	a0,8
2001033c:	2399                	jal	20010882 <driver_i2c0_read>
2001033e:	87aa                	mv	a5,a0
20010340:	cb81                	beqz	a5,20010350 <main+0x150>
E:\8.AWS-FreeRTOS-HiFive1\Workspace\sifive-hifive1-revb-i2c\src/main.c:120
  {
	  printf("driver_i2c0_read failed\r\n");
20010342:	200177b7          	lui	a5,0x20017
20010346:	ec478513          	addi	a0,a5,-316 # 20016ec4 <_exit+0x138>
2001034a:	031000ef          	jal	ra,20010b7a <puts>
2001034e:	a809                	j	20010360 <main+0x160>
E:\8.AWS-FreeRTOS-HiFive1\Workspace\sifive-hifive1-revb-i2c\src/main.c:122
  } else {
	  printf("\"%s\"\r\n", recv);
20010350:	fd040793          	addi	a5,s0,-48
20010354:	85be                	mv	a1,a5
20010356:	200177b7          	lui	a5,0x20017
2001035a:	ee078513          	addi	a0,a5,-288 # 20016ee0 <_exit+0x154>
2001035e:	2dfd                	jal	20010a5c <iprintf>
E:\8.AWS-FreeRTOS-HiFive1\Workspace\sifive-hifive1-revb-i2c\src/main.c:125
  }
//  WAIT_1S(timeout)
  printf("Test 2 driver_i2c0_read retrun, stop enable\n");
20010360:	200177b7          	lui	a5,0x20017
20010364:	ee878513          	addi	a0,a5,-280 # 20016ee8 <_exit+0x15c>
20010368:	013000ef          	jal	ra,20010b7a <puts>
E:\8.AWS-FreeRTOS-HiFive1\Workspace\sifive-hifive1-revb-i2c\src/main.c:126
  memset(recv, 0, sizeof(recv));
2001036c:	fd040793          	addi	a5,s0,-48
20010370:	4631                	li	a2,12
20010372:	4581                	li	a1,0
20010374:	853e                	mv	a0,a5
20010376:	2d3d                	jal	200109b4 <memset>
E:\8.AWS-FreeRTOS-HiFive1\Workspace\sifive-hifive1-revb-i2c\src/main.c:127
  if(driver_i2c0_read(8, 6, recv, METAL_I2C_STOP_ENABLE) != 0)
20010378:	fd040793          	addi	a5,s0,-48
2001037c:	4685                	li	a3,1
2001037e:	863e                	mv	a2,a5
20010380:	4599                	li	a1,6
20010382:	4521                	li	a0,8
20010384:	29fd                	jal	20010882 <driver_i2c0_read>
20010386:	87aa                	mv	a5,a0
20010388:	cb81                	beqz	a5,20010398 <main+0x198>
E:\8.AWS-FreeRTOS-HiFive1\Workspace\sifive-hifive1-revb-i2c\src/main.c:129
  {
	  printf("driver_i2c0_read failed\r\n");
2001038a:	200177b7          	lui	a5,0x20017
2001038e:	ec478513          	addi	a0,a5,-316 # 20016ec4 <_exit+0x138>
20010392:	7e8000ef          	jal	ra,20010b7a <puts>
20010396:	a809                	j	200103a8 <main+0x1a8>
E:\8.AWS-FreeRTOS-HiFive1\Workspace\sifive-hifive1-revb-i2c\src/main.c:131
  } else {
	  printf("\"%s\"\r\n", recv);
20010398:	fd040793          	addi	a5,s0,-48
2001039c:	85be                	mv	a1,a5
2001039e:	200177b7          	lui	a5,0x20017
200103a2:	ee078513          	addi	a0,a5,-288 # 20016ee0 <_exit+0x154>
200103a6:	2d5d                	jal	20010a5c <iprintf>
E:\8.AWS-FreeRTOS-HiFive1\Workspace\sifive-hifive1-revb-i2c\src/main.c:134
  }
//  WAIT_1S(timeout)
  printf("Test 3 driver_i2c0_read retrun, stop enable\n");
200103a8:	200177b7          	lui	a5,0x20017
200103ac:	f1478513          	addi	a0,a5,-236 # 20016f14 <_exit+0x188>
200103b0:	7ca000ef          	jal	ra,20010b7a <puts>
E:\8.AWS-FreeRTOS-HiFive1\Workspace\sifive-hifive1-revb-i2c\src/main.c:135
  memset(recv, 0, sizeof(recv));
200103b4:	fd040793          	addi	a5,s0,-48
200103b8:	4631                	li	a2,12
200103ba:	4581                	li	a1,0
200103bc:	853e                	mv	a0,a5
200103be:	2bdd                	jal	200109b4 <memset>
E:\8.AWS-FreeRTOS-HiFive1\Workspace\sifive-hifive1-revb-i2c\src/main.c:136
  if(driver_i2c0_read(8, 6, recv, METAL_I2C_STOP_ENABLE) != 0)
200103c0:	fd040793          	addi	a5,s0,-48
200103c4:	4685                	li	a3,1
200103c6:	863e                	mv	a2,a5
200103c8:	4599                	li	a1,6
200103ca:	4521                	li	a0,8
200103cc:	295d                	jal	20010882 <driver_i2c0_read>
200103ce:	87aa                	mv	a5,a0
200103d0:	cb81                	beqz	a5,200103e0 <main+0x1e0>
E:\8.AWS-FreeRTOS-HiFive1\Workspace\sifive-hifive1-revb-i2c\src/main.c:138
  {
	  printf("driver_i2c0_read failed\r\n");
200103d2:	200177b7          	lui	a5,0x20017
200103d6:	ec478513          	addi	a0,a5,-316 # 20016ec4 <_exit+0x138>
200103da:	7a0000ef          	jal	ra,20010b7a <puts>
200103de:	a809                	j	200103f0 <main+0x1f0>
E:\8.AWS-FreeRTOS-HiFive1\Workspace\sifive-hifive1-revb-i2c\src/main.c:140
  } else {
	  printf("\"%s\"\r\n", recv);
200103e0:	fd040793          	addi	a5,s0,-48
200103e4:	85be                	mv	a1,a5
200103e6:	200177b7          	lui	a5,0x20017
200103ea:	ee078513          	addi	a0,a5,-288 # 20016ee0 <_exit+0x154>
200103ee:	25bd                	jal	20010a5c <iprintf>
E:\8.AWS-FreeRTOS-HiFive1\Workspace\sifive-hifive1-revb-i2c\src/main.c:142
  }
  WAIT_1S(timeout)
200103f0:	4501                	li	a0,0
200103f2:	796000ef          	jal	ra,20010b88 <time>
200103f6:	86aa                	mv	a3,a0
200103f8:	872e                	mv	a4,a1
200103fa:	4585                	li	a1,1
200103fc:	4601                	li	a2,0
200103fe:	00b687b3          	add	a5,a3,a1
20010402:	853e                	mv	a0,a5
20010404:	00d53533          	sltu	a0,a0,a3
20010408:	00c70833          	add	a6,a4,a2
2001040c:	01050733          	add	a4,a0,a6
20010410:	883a                	mv	a6,a4
20010412:	fef42023          	sw	a5,-32(s0)
20010416:	ff042223          	sw	a6,-28(s0)
2001041a:	0001                	nop
E:\8.AWS-FreeRTOS-HiFive1\Workspace\sifive-hifive1-revb-i2c\src/main.c:142 (discriminator 2)
2001041c:	4501                	li	a0,0
2001041e:	76a000ef          	jal	ra,20010b88 <time>
20010422:	87aa                	mv	a5,a0
20010424:	882e                	mv	a6,a1
20010426:	fe442703          	lw	a4,-28(s0)
2001042a:	86c2                	mv	a3,a6
2001042c:	fee6c8e3          	blt	a3,a4,2001041c <main+0x21c>
20010430:	fe442703          	lw	a4,-28(s0)
20010434:	86c2                	mv	a3,a6
20010436:	00d71663          	bne	a4,a3,20010442 <main+0x242>
2001043a:	fe042703          	lw	a4,-32(s0)
2001043e:	fce7efe3          	bltu	a5,a4,2001041c <main+0x21c>
E:\8.AWS-FreeRTOS-HiFive1\Workspace\sifive-hifive1-revb-i2c\src/main.c:144 (discriminator 1)

  while(1)
20010442:	a001                	j	20010442 <main+0x242>

20010444 <driver_i2c0_write_addr>:
driver_i2c0_write_addr():
E:\8.AWS-FreeRTOS-HiFive1\Workspace\sifive-hifive1-revb-i2c\src/drv_i2c0.c:107
#define METAL_I2C_INIT_OK 1
#define METAL_I2C_RET_OK 0
#define METAL_I2C_RET_ERR -1

static unsigned int _baud_rate = 0;
static int driver_i2c0_write_addr(unsigned long base, unsigned int addr, unsigned char rw_flag) {
20010444:	7179                	addi	sp,sp,-48
20010446:	d606                	sw	ra,44(sp)
20010448:	d422                	sw	s0,40(sp)
2001044a:	1800                	addi	s0,sp,48
2001044c:	fca42e23          	sw	a0,-36(s0)
20010450:	fcb42c23          	sw	a1,-40(s0)
20010454:	87b2                	mv	a5,a2
20010456:	fcf40ba3          	sb	a5,-41(s0)
E:\8.AWS-FreeRTOS-HiFive1\Workspace\sifive-hifive1-revb-i2c\src/drv_i2c0.c:109
    time_t timeout;
    int ret = 0;
2001045a:	fe042623          	sw	zero,-20(s0)
E:\8.AWS-FreeRTOS-HiFive1\Workspace\sifive-hifive1-revb-i2c\src/drv_i2c0.c:112

    /* Reset timeout */
    METAL_I2C_TIMEOUT_RESET(timeout);
2001045e:	26b050ef          	jal	ra,20015ec8 <metal_time>
20010462:	86aa                	mv	a3,a0
20010464:	872e                	mv	a4,a1
20010466:	4585                	li	a1,1
20010468:	4601                	li	a2,0
2001046a:	00b687b3          	add	a5,a3,a1
2001046e:	853e                	mv	a0,a5
20010470:	00d53533          	sltu	a0,a0,a3
20010474:	00c70833          	add	a6,a4,a2
20010478:	01050733          	add	a4,a0,a6
2001047c:	883a                	mv	a6,a4
2001047e:	fef42023          	sw	a5,-32(s0)
20010482:	ff042223          	sw	a6,-28(s0)
E:\8.AWS-FreeRTOS-HiFive1\Workspace\sifive-hifive1-revb-i2c\src/drv_i2c0.c:115

    /* Check if any transfer is in progress */
    METAL_I2C_REG_CHECK(
20010486:	a035                	j	200104b2 <driver_i2c0_write_addr+0x6e>
E:\8.AWS-FreeRTOS-HiFive1\Workspace\sifive-hifive1-revb-i2c\src/drv_i2c0.c:115 (discriminator 3)
20010488:	241050ef          	jal	ra,20015ec8 <metal_time>
2001048c:	87aa                	mv	a5,a0
2001048e:	882e                	mv	a6,a1
20010490:	fe442703          	lw	a4,-28(s0)
20010494:	86c2                	mv	a3,a6
20010496:	00d74c63          	blt	a4,a3,200104ae <driver_i2c0_write_addr+0x6a>
2001049a:	fe442703          	lw	a4,-28(s0)
2001049e:	86c2                	mv	a3,a6
200104a0:	00d71963          	bne	a4,a3,200104b2 <driver_i2c0_write_addr+0x6e>
200104a4:	fe042703          	lw	a4,-32(s0)
200104a8:	00f76363          	bltu	a4,a5,200104ae <driver_i2c0_write_addr+0x6a>
200104ac:	a019                	j	200104b2 <driver_i2c0_write_addr+0x6e>
E:\8.AWS-FreeRTOS-HiFive1\Workspace\sifive-hifive1-revb-i2c\src/drv_i2c0.c:115 (discriminator 1)
200104ae:	57fd                	li	a5,-1
200104b0:	a8c9                	j	20010582 <driver_i2c0_write_addr+0x13e>
E:\8.AWS-FreeRTOS-HiFive1\Workspace\sifive-hifive1-revb-i2c\src/drv_i2c0.c:115 (discriminator 2)
200104b2:	fdc42783          	lw	a5,-36(s0)
200104b6:	07c1                	addi	a5,a5,16
200104b8:	0007c783          	lbu	a5,0(a5)
200104bc:	0ff7f793          	andi	a5,a5,255
200104c0:	8b89                	andi	a5,a5,2
200104c2:	f3f9                	bnez	a5,20010488 <driver_i2c0_write_addr+0x44>
E:\8.AWS-FreeRTOS-HiFive1\Workspace\sifive-hifive1-revb-i2c\src/drv_i2c0.c:120
        (METAL_I2C_REGB(METAL_SIFIVE_I2C0_STATUS) & METAL_I2C_STATUS_TIP),
        timeout);

    /* Set transmit register to given address with read/write flag */
    METAL_I2C_REGB(METAL_SIFIVE_I2C0_TRANSMIT) = METAL_SIFIVE_I2C_INSERT_RW_BIT(addr, rw_flag);
200104c4:	fd842783          	lw	a5,-40(s0)
200104c8:	0ff7f793          	andi	a5,a5,255
200104cc:	0786                	slli	a5,a5,0x1
200104ce:	0ff7f713          	andi	a4,a5,255
200104d2:	fd744783          	lbu	a5,-41(s0)
200104d6:	8b85                	andi	a5,a5,1
200104d8:	0ff7f793          	andi	a5,a5,255
200104dc:	fdc42683          	lw	a3,-36(s0)
200104e0:	06b1                	addi	a3,a3,12
200104e2:	8fd9                	or	a5,a5,a4
200104e4:	0ff7f793          	andi	a5,a5,255
200104e8:	00f68023          	sb	a5,0(a3)
E:\8.AWS-FreeRTOS-HiFive1\Workspace\sifive-hifive1-revb-i2c\src/drv_i2c0.c:124
//    REG_SIFIVE_I2C0_TRANSMIT = METAL_SIFIVE_I2C_INSERT_RW_BIT(addr, rw_flag);

    /* Set start flag to trigger the address transfer */
    METAL_I2C_REGB(METAL_SIFIVE_I2C0_COMMAND) =
200104ec:	fdc42783          	lw	a5,-36(s0)
200104f0:	07c1                	addi	a5,a5,16
200104f2:	873e                	mv	a4,a5
200104f4:	f9000793          	li	a5,-112
200104f8:	00f70023          	sb	a5,0(a4) # 2000 <__heap_size+0x1800>
E:\8.AWS-FreeRTOS-HiFive1\Workspace\sifive-hifive1-revb-i2c\src/drv_i2c0.c:127
        METAL_I2C_CMD_WRITE | METAL_I2C_CMD_START;
    /* Reset timeout */
    METAL_I2C_TIMEOUT_RESET(timeout);
200104fc:	1cd050ef          	jal	ra,20015ec8 <metal_time>
20010500:	86aa                	mv	a3,a0
20010502:	872e                	mv	a4,a1
20010504:	4585                	li	a1,1
20010506:	4601                	li	a2,0
20010508:	00b687b3          	add	a5,a3,a1
2001050c:	853e                	mv	a0,a5
2001050e:	00d53533          	sltu	a0,a0,a3
20010512:	00c70833          	add	a6,a4,a2
20010516:	01050733          	add	a4,a0,a6
2001051a:	883a                	mv	a6,a4
2001051c:	fef42023          	sw	a5,-32(s0)
20010520:	ff042223          	sw	a6,-28(s0)
E:\8.AWS-FreeRTOS-HiFive1\Workspace\sifive-hifive1-revb-i2c\src/drv_i2c0.c:130

    /* Check for transmit completion */
    METAL_I2C_REG_CHECK(
20010524:	a035                	j	20010550 <driver_i2c0_write_addr+0x10c>
E:\8.AWS-FreeRTOS-HiFive1\Workspace\sifive-hifive1-revb-i2c\src/drv_i2c0.c:130 (discriminator 3)
20010526:	1a3050ef          	jal	ra,20015ec8 <metal_time>
2001052a:	87aa                	mv	a5,a0
2001052c:	882e                	mv	a6,a1
2001052e:	fe442703          	lw	a4,-28(s0)
20010532:	86c2                	mv	a3,a6
20010534:	00d74c63          	blt	a4,a3,2001054c <driver_i2c0_write_addr+0x108>
20010538:	fe442703          	lw	a4,-28(s0)
2001053c:	86c2                	mv	a3,a6
2001053e:	00d71963          	bne	a4,a3,20010550 <driver_i2c0_write_addr+0x10c>
20010542:	fe042703          	lw	a4,-32(s0)
20010546:	00f76363          	bltu	a4,a5,2001054c <driver_i2c0_write_addr+0x108>
2001054a:	a019                	j	20010550 <driver_i2c0_write_addr+0x10c>
E:\8.AWS-FreeRTOS-HiFive1\Workspace\sifive-hifive1-revb-i2c\src/drv_i2c0.c:130 (discriminator 1)
2001054c:	57fd                	li	a5,-1
2001054e:	a815                	j	20010582 <driver_i2c0_write_addr+0x13e>
E:\8.AWS-FreeRTOS-HiFive1\Workspace\sifive-hifive1-revb-i2c\src/drv_i2c0.c:130 (discriminator 2)
20010550:	fdc42783          	lw	a5,-36(s0)
20010554:	07c1                	addi	a5,a5,16
20010556:	0007c783          	lbu	a5,0(a5)
2001055a:	0ff7f793          	andi	a5,a5,255
2001055e:	8b89                	andi	a5,a5,2
20010560:	f3f9                	bnez	a5,20010526 <driver_i2c0_write_addr+0xe2>
E:\8.AWS-FreeRTOS-HiFive1\Workspace\sifive-hifive1-revb-i2c\src/drv_i2c0.c:135
        (METAL_I2C_REGB(METAL_SIFIVE_I2C0_STATUS) & METAL_I2C_STATUS_TIP),
        timeout);

    /* Check for ACK from slave */
    if ((METAL_I2C_REGB(METAL_SIFIVE_I2C0_STATUS) & METAL_I2C_STATUS_RXACK)) {
20010562:	fdc42783          	lw	a5,-36(s0)
20010566:	07c1                	addi	a5,a5,16
20010568:	0007c783          	lbu	a5,0(a5)
2001056c:	0ff7f793          	andi	a5,a5,255
20010570:	07e2                	slli	a5,a5,0x18
20010572:	87e1                	srai	a5,a5,0x18
20010574:	0007d563          	bgez	a5,2001057e <driver_i2c0_write_addr+0x13a>
E:\8.AWS-FreeRTOS-HiFive1\Workspace\sifive-hifive1-revb-i2c\src/drv_i2c0.c:138
        /* No ACK, return error */
        METAL_I2C_LOG("I2C RX ACK failed.\r\n");
        ret = -1;
20010578:	57fd                	li	a5,-1
2001057a:	fef42623          	sw	a5,-20(s0)
E:\8.AWS-FreeRTOS-HiFive1\Workspace\sifive-hifive1-revb-i2c\src/drv_i2c0.c:141
    }

    return ret;
2001057e:	fec42783          	lw	a5,-20(s0)
E:\8.AWS-FreeRTOS-HiFive1\Workspace\sifive-hifive1-revb-i2c\src/drv_i2c0.c:142
}
20010582:	853e                	mv	a0,a5
20010584:	50b2                	lw	ra,44(sp)
20010586:	5422                	lw	s0,40(sp)
20010588:	6145                	addi	sp,sp,48
2001058a:	8082                	ret

2001058c <driver_sifive_gpio0_enable_io>:
driver_sifive_gpio0_enable_io():
E:\8.AWS-FreeRTOS-HiFive1\Workspace\sifive-hifive1-revb-i2c\src/drv_i2c0.c:145

static int driver_sifive_gpio0_enable_io(long source, long dest)
{
2001058c:	7179                	addi	sp,sp,-48
2001058e:	d622                	sw	s0,44(sp)
20010590:	1800                	addi	s0,sp,48
20010592:	fca42e23          	sw	a0,-36(s0)
20010596:	fcb42c23          	sw	a1,-40(s0)
E:\8.AWS-FreeRTOS-HiFive1\Workspace\sifive-hifive1-revb-i2c\src/drv_i2c0.c:146
    long base = METAL_SIFIVE_GPIO0_10012000_BASE_ADDRESS;
2001059a:	100127b7          	lui	a5,0x10012
2001059e:	fef42623          	sw	a5,-20(s0)
E:\8.AWS-FreeRTOS-HiFive1\Workspace\sifive-hifive1-revb-i2c\src/drv_i2c0.c:148

    __METAL_ACCESS_ONCE((__metal_io_u32 *)(base + METAL_SIFIVE_GPIO0_IOF_SEL)) &= ~source;
200105a2:	fec42783          	lw	a5,-20(s0)
200105a6:	03c78793          	addi	a5,a5,60 # 1001203c <metal_segment_itim_target_end+0x801203c>
200105aa:	439c                	lw	a5,0(a5)
200105ac:	fdc42703          	lw	a4,-36(s0)
200105b0:	fff74713          	not	a4,a4
200105b4:	86ba                	mv	a3,a4
200105b6:	fec42703          	lw	a4,-20(s0)
200105ba:	03c70713          	addi	a4,a4,60
200105be:	8ff5                	and	a5,a5,a3
200105c0:	c31c                	sw	a5,0(a4)
E:\8.AWS-FreeRTOS-HiFive1\Workspace\sifive-hifive1-revb-i2c\src/drv_i2c0.c:149
    __METAL_ACCESS_ONCE((__metal_io_u32 *)(base + METAL_SIFIVE_GPIO0_IOF_EN))  |= dest;
200105c2:	fec42783          	lw	a5,-20(s0)
200105c6:	03878793          	addi	a5,a5,56
200105ca:	4398                	lw	a4,0(a5)
200105cc:	fd842783          	lw	a5,-40(s0)
200105d0:	fec42683          	lw	a3,-20(s0)
200105d4:	03868693          	addi	a3,a3,56
200105d8:	8fd9                	or	a5,a5,a4
200105da:	c29c                	sw	a5,0(a3)
E:\8.AWS-FreeRTOS-HiFive1\Workspace\sifive-hifive1-revb-i2c\src/drv_i2c0.c:151

    return 0;
200105dc:	4781                	li	a5,0
E:\8.AWS-FreeRTOS-HiFive1\Workspace\sifive-hifive1-revb-i2c\src/drv_i2c0.c:152
}
200105de:	853e                	mv	a0,a5
200105e0:	5432                	lw	s0,44(sp)
200105e2:	6145                	addi	sp,sp,48
200105e4:	8082                	ret

200105e6 <driver_i2c0_init>:
driver_i2c0_init():
E:\8.AWS-FreeRTOS-HiFive1\Workspace\sifive-hifive1-revb-i2c\src/drv_i2c0.c:162
/*
 * baud_rate: 100000 Hz or 400000 Hz
 * mode: (1) Master, (0) Slave
 *
 */
int driver_i2c0_init(unsigned int baud_rate, int mode) {
200105e6:	7179                	addi	sp,sp,-48
200105e8:	d606                	sw	ra,44(sp)
200105ea:	d422                	sw	s0,40(sp)
200105ec:	1800                	addi	s0,sp,48
200105ee:	fca42e23          	sw	a0,-36(s0)
200105f2:	fcb42c23          	sw	a1,-40(s0)
E:\8.AWS-FreeRTOS-HiFive1\Workspace\sifive-hifive1-revb-i2c\src/drv_i2c0.c:164

	int ret = -1;
200105f6:	57fd                	li	a5,-1
200105f8:	fef42623          	sw	a5,-20(s0)
E:\8.AWS-FreeRTOS-HiFive1\Workspace\sifive-hifive1-revb-i2c\src/drv_i2c0.c:167

	/* Initialize baud rate */
	_baud_rate = 0;
200105fc:	800017b7          	lui	a5,0x80001
20010600:	ac07a823          	sw	zero,-1328(a5) # 80000ad0 <metal_segment_heap_target_end+0xfffff360>
E:\8.AWS-FreeRTOS-HiFive1\Workspace\sifive-hifive1-revb-i2c\src/drv_i2c0.c:170

	/* configure I2C I/O pins */
	long pinmux_output_selector = 0;  // i2c0 pimux output selector
20010604:	fe042423          	sw	zero,-24(s0)
E:\8.AWS-FreeRTOS-HiFive1\Workspace\sifive-hifive1-revb-i2c\src/drv_i2c0.c:171
	long pinmux_source_selector = 12288;  // i2c0 pinmux source selector 0x3000
20010608:	678d                	lui	a5,0x3
2001060a:	fef42223          	sw	a5,-28(s0)
E:\8.AWS-FreeRTOS-HiFive1\Workspace\sifive-hifive1-revb-i2c\src/drv_i2c0.c:173

    driver_sifive_gpio0_enable_io(pinmux_output_selector, pinmux_source_selector);
2001060e:	fe442583          	lw	a1,-28(s0)
20010612:	fe842503          	lw	a0,-24(s0)
20010616:	3f9d                	jal	2001058c <driver_sifive_gpio0_enable_io>
E:\8.AWS-FreeRTOS-HiFive1\Workspace\sifive-hifive1-revb-i2c\src/drv_i2c0.c:176

	/* 1: Master 0: Slave */
	if (mode == 1) {
20010618:	fd842703          	lw	a4,-40(s0)
2001061c:	4785                	li	a5,1
2001061e:	00f71a63          	bne	a4,a5,20010632 <driver_i2c0_init+0x4c>
E:\8.AWS-FreeRTOS-HiFive1\Workspace\sifive-hifive1-revb-i2c\src/drv_i2c0.c:179
		METAL_I2C_LOG("Set I2C master mode\r\n");
		/* Set requested baud rate */
		if (driver_i2c0_set_baud_rate(baud_rate) == 0) {
20010622:	fdc42503          	lw	a0,-36(s0)
20010626:	2005                	jal	20010646 <driver_i2c0_set_baud_rate>
20010628:	87aa                	mv	a5,a0
2001062a:	e799                	bnez	a5,20010638 <driver_i2c0_init+0x52>
E:\8.AWS-FreeRTOS-HiFive1\Workspace\sifive-hifive1-revb-i2c\src/drv_i2c0.c:181
			METAL_I2C_LOG("Set baud rate done\r\n");
			ret = 0;
2001062c:	fe042623          	sw	zero,-20(s0)
20010630:	a021                	j	20010638 <driver_i2c0_init+0x52>
E:\8.AWS-FreeRTOS-HiFive1\Workspace\sifive-hifive1-revb-i2c\src/drv_i2c0.c:186
		}
	} else {
		METAL_I2C_LOG("Set I2C slave mode - not supported\r\n");
		/* Nothing to do. slave mode not supported */
		ret = -1;
20010632:	57fd                	li	a5,-1
20010634:	fef42623          	sw	a5,-20(s0)
E:\8.AWS-FreeRTOS-HiFive1\Workspace\sifive-hifive1-revb-i2c\src/drv_i2c0.c:189
	}

	return ret;
20010638:	fec42783          	lw	a5,-20(s0)
E:\8.AWS-FreeRTOS-HiFive1\Workspace\sifive-hifive1-revb-i2c\src/drv_i2c0.c:190
}
2001063c:	853e                	mv	a0,a5
2001063e:	50b2                	lw	ra,44(sp)
20010640:	5422                	lw	s0,40(sp)
20010642:	6145                	addi	sp,sp,48
20010644:	8082                	ret

20010646 <driver_i2c0_set_baud_rate>:
driver_i2c0_set_baud_rate():
E:\8.AWS-FreeRTOS-HiFive1\Workspace\sifive-hifive1-revb-i2c\src/drv_i2c0.c:196

int driver_i2c0_get_baud_rate(void) {
    return _baud_rate;
}

int driver_i2c0_set_baud_rate(unsigned int baud_rate) {
20010646:	7139                	addi	sp,sp,-64
20010648:	de06                	sw	ra,60(sp)
2001064a:	dc22                	sw	s0,56(sp)
2001064c:	0080                	addi	s0,sp,64
2001064e:	fca42623          	sw	a0,-52(s0)
E:\8.AWS-FreeRTOS-HiFive1\Workspace\sifive-hifive1-revb-i2c\src/drv_i2c0.c:197
    struct metal_clock *clock = NULL;
20010652:	fe042423          	sw	zero,-24(s0)
E:\8.AWS-FreeRTOS-HiFive1\Workspace\sifive-hifive1-revb-i2c\src/drv_i2c0.c:198
    unsigned long base = METAL_SIFIVE_I2C0_10016000_BASE_ADDRESS;
20010656:	100167b7          	lui	a5,0x10016
2001065a:	fef42223          	sw	a5,-28(s0)
E:\8.AWS-FreeRTOS-HiFive1\Workspace\sifive-hifive1-revb-i2c\src/drv_i2c0.c:199
    int ret = -1;
2001065e:	57fd                	li	a5,-1
20010660:	fef42623          	sw	a5,-20(s0)
E:\8.AWS-FreeRTOS-HiFive1\Workspace\sifive-hifive1-revb-i2c\src/drv_i2c0.c:202

    /* Select i2c0 clock source */
	clock = (struct metal_clock *)&__metal_dt_clock_4.clock;
20010664:	800017b7          	lui	a5,0x80001
20010668:	a7878793          	addi	a5,a5,-1416 # 80000a78 <metal_segment_heap_target_end+0xfffff308>
2001066c:	fef42423          	sw	a5,-24(s0)
E:\8.AWS-FreeRTOS-HiFive1\Workspace\sifive-hifive1-revb-i2c\src/drv_i2c0.c:204

    if (clock != NULL) {
20010670:	fe842783          	lw	a5,-24(s0)
20010674:	cfc5                	beqz	a5,2001072c <driver_i2c0_set_baud_rate+0xe6>
E:\8.AWS-FreeRTOS-HiFive1\Workspace\sifive-hifive1-revb-i2c\src/drv_i2c0.c:205
        long clock_rate = clock->vtable->get_rate_hz(clock);
20010676:	fe842783          	lw	a5,-24(s0)
2001067a:	439c                	lw	a5,0(a5)
2001067c:	439c                	lw	a5,0(a5)
2001067e:	fe842503          	lw	a0,-24(s0)
20010682:	9782                	jalr	a5
20010684:	fea42023          	sw	a0,-32(s0)
E:\8.AWS-FreeRTOS-HiFive1\Workspace\sifive-hifive1-revb-i2c\src/drv_i2c0.c:208

        /* Calculate prescaler value */
        long prescaler = ((clock_rate / (baud_rate * 5)) - 1); //METAL_SIFIVE_I2C_GET_PRESCALER(baud_rate);
20010688:	fe042683          	lw	a3,-32(s0)
2001068c:	fcc42703          	lw	a4,-52(s0)
20010690:	87ba                	mv	a5,a4
20010692:	078a                	slli	a5,a5,0x2
20010694:	97ba                	add	a5,a5,a4
20010696:	02f6d7b3          	divu	a5,a3,a5
2001069a:	17fd                	addi	a5,a5,-1
2001069c:	fcf42e23          	sw	a5,-36(s0)
E:\8.AWS-FreeRTOS-HiFive1\Workspace\sifive-hifive1-revb-i2c\src/drv_i2c0.c:210

        if ((prescaler > METAL_I2C_PRESCALE_MAX) || (prescaler < 0)) {
200106a0:	fdc42703          	lw	a4,-36(s0)
200106a4:	67c1                	lui	a5,0x10
200106a6:	08f75663          	bge	a4,a5,20010732 <driver_i2c0_set_baud_rate+0xec>
E:\8.AWS-FreeRTOS-HiFive1\Workspace\sifive-hifive1-revb-i2c\src/drv_i2c0.c:210 (discriminator 1)
200106aa:	fdc42783          	lw	a5,-36(s0)
200106ae:	0807c263          	bltz	a5,20010732 <driver_i2c0_set_baud_rate+0xec>
E:\8.AWS-FreeRTOS-HiFive1\Workspace\sifive-hifive1-revb-i2c\src/drv_i2c0.c:215
            /* Out of range value, return error */
            METAL_I2C_LOG("I2C Set baud failed - baud rate out of range value\r\n");
        } else {
            /* Set pre-scaler value */
            METAL_I2C_REGB(METAL_SIFIVE_I2C0_CONTROL) &= ~METAL_I2C_CONTROL_EN;
200106b2:	fe442783          	lw	a5,-28(s0)
200106b6:	07a1                	addi	a5,a5,8
200106b8:	0007c783          	lbu	a5,0(a5) # 10000 <__heap_size+0xf800>
200106bc:	0ff7f793          	andi	a5,a5,255
200106c0:	fe442703          	lw	a4,-28(s0)
200106c4:	0721                	addi	a4,a4,8
200106c6:	07f7f793          	andi	a5,a5,127
200106ca:	0ff7f793          	andi	a5,a5,255
200106ce:	00f70023          	sb	a5,0(a4)
E:\8.AWS-FreeRTOS-HiFive1\Workspace\sifive-hifive1-revb-i2c\src/drv_i2c0.c:216
            METAL_I2C_REGB(METAL_SIFIVE_I2C0_PRESCALE_LOW) = prescaler & 0xFF;
200106d2:	fe442783          	lw	a5,-28(s0)
200106d6:	fdc42703          	lw	a4,-36(s0)
200106da:	0ff77713          	andi	a4,a4,255
200106de:	00e78023          	sb	a4,0(a5)
E:\8.AWS-FreeRTOS-HiFive1\Workspace\sifive-hifive1-revb-i2c\src/drv_i2c0.c:217
            METAL_I2C_REGB(METAL_SIFIVE_I2C0_PRESCALE_HIGH) = (prescaler >> 8) & 0xFF;
200106e2:	fdc42783          	lw	a5,-36(s0)
200106e6:	4087d693          	srai	a3,a5,0x8
200106ea:	fe442783          	lw	a5,-28(s0)
200106ee:	0791                	addi	a5,a5,4
200106f0:	873e                	mv	a4,a5
200106f2:	0ff6f793          	andi	a5,a3,255
200106f6:	00f70023          	sb	a5,0(a4)
E:\8.AWS-FreeRTOS-HiFive1\Workspace\sifive-hifive1-revb-i2c\src/drv_i2c0.c:218
            METAL_I2C_REGB(METAL_SIFIVE_I2C0_CONTROL) |= METAL_I2C_CONTROL_EN;
200106fa:	fe442783          	lw	a5,-28(s0)
200106fe:	07a1                	addi	a5,a5,8
20010700:	0007c783          	lbu	a5,0(a5)
20010704:	0ff7f793          	andi	a5,a5,255
20010708:	fe442703          	lw	a4,-28(s0)
2001070c:	0721                	addi	a4,a4,8
2001070e:	f807e793          	ori	a5,a5,-128
20010712:	0ff7f793          	andi	a5,a5,255
20010716:	00f70023          	sb	a5,0(a4)
E:\8.AWS-FreeRTOS-HiFive1\Workspace\sifive-hifive1-revb-i2c\src/drv_i2c0.c:220

            _baud_rate = baud_rate;
2001071a:	800017b7          	lui	a5,0x80001
2001071e:	fcc42703          	lw	a4,-52(s0)
20010722:	ace7a823          	sw	a4,-1328(a5) # 80000ad0 <metal_segment_heap_target_end+0xfffff360>
E:\8.AWS-FreeRTOS-HiFive1\Workspace\sifive-hifive1-revb-i2c\src/drv_i2c0.c:221
            ret = 0;
20010726:	fe042623          	sw	zero,-20(s0)
2001072a:	a021                	j	20010732 <driver_i2c0_set_baud_rate+0xec>
E:\8.AWS-FreeRTOS-HiFive1\Workspace\sifive-hifive1-revb-i2c\src/drv_i2c0.c:225
        }
    } else {
        METAL_I2C_LOG("I2C Set baud failed.\r\n");
    	ret = -1;
2001072c:	57fd                	li	a5,-1
2001072e:	fef42623          	sw	a5,-20(s0)
E:\8.AWS-FreeRTOS-HiFive1\Workspace\sifive-hifive1-revb-i2c\src/drv_i2c0.c:228
    }

    return ret;
20010732:	fec42783          	lw	a5,-20(s0)
E:\8.AWS-FreeRTOS-HiFive1\Workspace\sifive-hifive1-revb-i2c\src/drv_i2c0.c:229
}
20010736:	853e                	mv	a0,a5
20010738:	50f2                	lw	ra,60(sp)
2001073a:	5462                	lw	s0,56(sp)
2001073c:	6121                	addi	sp,sp,64
2001073e:	8082                	ret

20010740 <driver_i2c0_write>:
driver_i2c0_write():
E:\8.AWS-FreeRTOS-HiFive1\Workspace\sifive-hifive1-revb-i2c\src/drv_i2c0.c:231

int driver_i2c0_write(unsigned int addr, unsigned int len, unsigned char buf[], int stop_bit) {
20010740:	7139                	addi	sp,sp,-64
20010742:	de06                	sw	ra,60(sp)
20010744:	dc22                	sw	s0,56(sp)
20010746:	0080                	addi	s0,sp,64
20010748:	fca42623          	sw	a0,-52(s0)
2001074c:	fcb42423          	sw	a1,-56(s0)
20010750:	fcc42223          	sw	a2,-60(s0)
20010754:	fcd42023          	sw	a3,-64(s0)
E:\8.AWS-FreeRTOS-HiFive1\Workspace\sifive-hifive1-revb-i2c\src/drv_i2c0.c:235
    __metal_io_u8 command;
    time_t timeout;
    int ret;
    unsigned long base = METAL_SIFIVE_I2C0_10016000_BASE_ADDRESS;
20010758:	100167b7          	lui	a5,0x10016
2001075c:	fef42023          	sw	a5,-32(s0)
E:\8.AWS-FreeRTOS-HiFive1\Workspace\sifive-hifive1-revb-i2c\src/drv_i2c0.c:240
    unsigned int i;

	/* Send address over I2C bus, current driver supports only 7bit
	 * addressing */
	ret = driver_i2c0_write_addr(base, addr, METAL_I2C_WRITE);
20010760:	4601                	li	a2,0
20010762:	fcc42583          	lw	a1,-52(s0)
20010766:	fe042503          	lw	a0,-32(s0)
2001076a:	39e9                	jal	20010444 <driver_i2c0_write_addr>
2001076c:	fea42423          	sw	a0,-24(s0)
E:\8.AWS-FreeRTOS-HiFive1\Workspace\sifive-hifive1-revb-i2c\src/drv_i2c0.c:242

	if (ret != 0) {
20010770:	fe842783          	lw	a5,-24(s0)
20010774:	10079063          	bnez	a5,20010874 <driver_i2c0_write+0x134>
E:\8.AWS-FreeRTOS-HiFive1\Workspace\sifive-hifive1-revb-i2c\src/drv_i2c0.c:247
		/* Write address failed */
		METAL_I2C_LOG("I2C Address Write failed.\r\n");
	} else {
		/* Set command flags */
		command = METAL_I2C_CMD_WRITE;
20010778:	47c1                	li	a5,16
2001077a:	fef407a3          	sb	a5,-17(s0)
E:\8.AWS-FreeRTOS-HiFive1\Workspace\sifive-hifive1-revb-i2c\src/drv_i2c0.c:249

		for (i = 0; i < len; i++) {
2001077e:	fe042223          	sw	zero,-28(s0)
20010782:	a0dd                	j	20010868 <driver_i2c0_write+0x128>
E:\8.AWS-FreeRTOS-HiFive1\Workspace\sifive-hifive1-revb-i2c\src/drv_i2c0.c:251
			/* Copy into transmit register */
			METAL_I2C_REGB(METAL_SIFIVE_I2C0_TRANSMIT) = buf[i];
20010784:	fc442703          	lw	a4,-60(s0)
20010788:	fe442783          	lw	a5,-28(s0)
2001078c:	97ba                	add	a5,a5,a4
2001078e:	fe042703          	lw	a4,-32(s0)
20010792:	0731                	addi	a4,a4,12
20010794:	0007c783          	lbu	a5,0(a5) # 10016000 <metal_segment_itim_target_end+0x8016000>
20010798:	00f70023          	sb	a5,0(a4)
E:\8.AWS-FreeRTOS-HiFive1\Workspace\sifive-hifive1-revb-i2c\src/drv_i2c0.c:255

			/* for last byte transfer, check if stop condition is requested
			 */
			if (i == (len - 1)) {
2001079c:	fc842783          	lw	a5,-56(s0)
200107a0:	17fd                	addi	a5,a5,-1
200107a2:	fe442703          	lw	a4,-28(s0)
200107a6:	02f71263          	bne	a4,a5,200107ca <driver_i2c0_write+0x8a>
E:\8.AWS-FreeRTOS-HiFive1\Workspace\sifive-hifive1-revb-i2c\src/drv_i2c0.c:256
				command |= METAL_SIFIVE_I2C_INSERT_STOP(stop_bit);
200107aa:	fc042783          	lw	a5,-64(s0)
200107ae:	0ff7f793          	andi	a5,a5,255
200107b2:	079a                	slli	a5,a5,0x6
200107b4:	0ff7f793          	andi	a5,a5,255
200107b8:	0407f793          	andi	a5,a5,64
200107bc:	0ff7f713          	andi	a4,a5,255
200107c0:	fef44783          	lbu	a5,-17(s0)
200107c4:	8fd9                	or	a5,a5,a4
200107c6:	fef407a3          	sb	a5,-17(s0)
E:\8.AWS-FreeRTOS-HiFive1\Workspace\sifive-hifive1-revb-i2c\src/drv_i2c0.c:259
			}
			/* Write command register */
			METAL_I2C_REGB(METAL_SIFIVE_I2C0_COMMAND) = command;
200107ca:	fe042783          	lw	a5,-32(s0)
200107ce:	07c1                	addi	a5,a5,16
200107d0:	873e                	mv	a4,a5
200107d2:	fef44783          	lbu	a5,-17(s0)
200107d6:	00f70023          	sb	a5,0(a4)
E:\8.AWS-FreeRTOS-HiFive1\Workspace\sifive-hifive1-revb-i2c\src/drv_i2c0.c:261
			/* Reset timeout */
			METAL_I2C_TIMEOUT_RESET(timeout);
200107da:	6ee050ef          	jal	ra,20015ec8 <metal_time>
200107de:	86aa                	mv	a3,a0
200107e0:	872e                	mv	a4,a1
200107e2:	4585                	li	a1,1
200107e4:	4601                	li	a2,0
200107e6:	00b687b3          	add	a5,a3,a1
200107ea:	853e                	mv	a0,a5
200107ec:	00d53533          	sltu	a0,a0,a3
200107f0:	00c70833          	add	a6,a4,a2
200107f4:	01050733          	add	a4,a0,a6
200107f8:	883a                	mv	a6,a4
200107fa:	fcf42c23          	sw	a5,-40(s0)
200107fe:	fd042e23          	sw	a6,-36(s0)
E:\8.AWS-FreeRTOS-HiFive1\Workspace\sifive-hifive1-revb-i2c\src/drv_i2c0.c:264

			/* Check for transfer completion */
			METAL_I2C_REG_CHECK((METAL_I2C_REGB(METAL_SIFIVE_I2C0_STATUS) &
20010802:	a035                	j	2001082e <driver_i2c0_write+0xee>
E:\8.AWS-FreeRTOS-HiFive1\Workspace\sifive-hifive1-revb-i2c\src/drv_i2c0.c:264 (discriminator 3)
20010804:	6c4050ef          	jal	ra,20015ec8 <metal_time>
20010808:	87aa                	mv	a5,a0
2001080a:	882e                	mv	a6,a1
2001080c:	fdc42703          	lw	a4,-36(s0)
20010810:	86c2                	mv	a3,a6
20010812:	00d74c63          	blt	a4,a3,2001082a <driver_i2c0_write+0xea>
20010816:	fdc42703          	lw	a4,-36(s0)
2001081a:	86c2                	mv	a3,a6
2001081c:	00d71963          	bne	a4,a3,2001082e <driver_i2c0_write+0xee>
20010820:	fd842703          	lw	a4,-40(s0)
20010824:	00f76363          	bltu	a4,a5,2001082a <driver_i2c0_write+0xea>
20010828:	a019                	j	2001082e <driver_i2c0_write+0xee>
E:\8.AWS-FreeRTOS-HiFive1\Workspace\sifive-hifive1-revb-i2c\src/drv_i2c0.c:264 (discriminator 1)
2001082a:	57fd                	li	a5,-1
2001082c:	a0b1                	j	20010878 <driver_i2c0_write+0x138>
E:\8.AWS-FreeRTOS-HiFive1\Workspace\sifive-hifive1-revb-i2c\src/drv_i2c0.c:264 (discriminator 2)
2001082e:	fe042783          	lw	a5,-32(s0)
20010832:	07c1                	addi	a5,a5,16
20010834:	0007c783          	lbu	a5,0(a5)
20010838:	0ff7f793          	andi	a5,a5,255
2001083c:	8b89                	andi	a5,a5,2
2001083e:	f3f9                	bnez	a5,20010804 <driver_i2c0_write+0xc4>
E:\8.AWS-FreeRTOS-HiFive1\Workspace\sifive-hifive1-revb-i2c\src/drv_i2c0.c:269
								 METAL_I2C_STATUS_TIP),
								timeout);

			/* Check for ACK from slave */
			if ((METAL_I2C_REGB(METAL_SIFIVE_I2C0_STATUS) &
20010840:	fe042783          	lw	a5,-32(s0)
20010844:	07c1                	addi	a5,a5,16
20010846:	0007c783          	lbu	a5,0(a5)
2001084a:	0ff7f793          	andi	a5,a5,255
2001084e:	07e2                	slli	a5,a5,0x18
20010850:	87e1                	srai	a5,a5,0x18
20010852:	0007d663          	bgez	a5,2001085e <driver_i2c0_write+0x11e>
E:\8.AWS-FreeRTOS-HiFive1\Workspace\sifive-hifive1-revb-i2c\src/drv_i2c0.c:273
				 METAL_I2C_STATUS_RXACK)) {
				/* No ACK, return error */
				METAL_I2C_LOG("I2C RX ACK failed.\r\n");
				ret = -1;
20010856:	57fd                	li	a5,-1
20010858:	fef42423          	sw	a5,-24(s0)
E:\8.AWS-FreeRTOS-HiFive1\Workspace\sifive-hifive1-revb-i2c\src/drv_i2c0.c:274
				break;
2001085c:	a821                	j	20010874 <driver_i2c0_write+0x134>
E:\8.AWS-FreeRTOS-HiFive1\Workspace\sifive-hifive1-revb-i2c\src/drv_i2c0.c:249 (discriminator 2)
		for (i = 0; i < len; i++) {
2001085e:	fe442783          	lw	a5,-28(s0)
20010862:	0785                	addi	a5,a5,1
20010864:	fef42223          	sw	a5,-28(s0)
E:\8.AWS-FreeRTOS-HiFive1\Workspace\sifive-hifive1-revb-i2c\src/drv_i2c0.c:249 (discriminator 1)
20010868:	fe442703          	lw	a4,-28(s0)
2001086c:	fc842783          	lw	a5,-56(s0)
20010870:	f0f76ae3          	bltu	a4,a5,20010784 <driver_i2c0_write+0x44>
E:\8.AWS-FreeRTOS-HiFive1\Workspace\sifive-hifive1-revb-i2c\src/drv_i2c0.c:279
			}
		}
	}

    return ret;
20010874:	fe842783          	lw	a5,-24(s0)
E:\8.AWS-FreeRTOS-HiFive1\Workspace\sifive-hifive1-revb-i2c\src/drv_i2c0.c:280
}
20010878:	853e                	mv	a0,a5
2001087a:	50f2                	lw	ra,60(sp)
2001087c:	5462                	lw	s0,56(sp)
2001087e:	6121                	addi	sp,sp,64
20010880:	8082                	ret

20010882 <driver_i2c0_read>:
driver_i2c0_read():
E:\8.AWS-FreeRTOS-HiFive1\Workspace\sifive-hifive1-revb-i2c\src/drv_i2c0.c:282

int driver_i2c0_read(unsigned int addr, unsigned int len, unsigned char buf[], int stop_bit) {
20010882:	7139                	addi	sp,sp,-64
20010884:	de06                	sw	ra,60(sp)
20010886:	dc22                	sw	s0,56(sp)
20010888:	0080                	addi	s0,sp,64
2001088a:	fca42623          	sw	a0,-52(s0)
2001088e:	fcb42423          	sw	a1,-56(s0)
20010892:	fcc42223          	sw	a2,-60(s0)
20010896:	fcd42023          	sw	a3,-64(s0)
E:\8.AWS-FreeRTOS-HiFive1\Workspace\sifive-hifive1-revb-i2c\src/drv_i2c0.c:287
    int ret;
    __metal_io_u8 command;
    time_t timeout;
    unsigned int i;
    unsigned long base = METAL_SIFIVE_I2C0_10016000_BASE_ADDRESS;
2001089a:	100167b7          	lui	a5,0x10016
2001089e:	fef42223          	sw	a5,-28(s0)
E:\8.AWS-FreeRTOS-HiFive1\Workspace\sifive-hifive1-revb-i2c\src/drv_i2c0.c:292


	/* Send address over I2C bus, current driver supports only 7bit
	 * addressing */
	ret = driver_i2c0_write_addr(base, addr, METAL_I2C_READ);
200108a2:	4605                	li	a2,1
200108a4:	fcc42583          	lw	a1,-52(s0)
200108a8:	fe442503          	lw	a0,-28(s0)
200108ac:	3e61                	jal	20010444 <driver_i2c0_write_addr>
200108ae:	fea42023          	sw	a0,-32(s0)
E:\8.AWS-FreeRTOS-HiFive1\Workspace\sifive-hifive1-revb-i2c\src/drv_i2c0.c:294

	if (ret != 0) {
200108b2:	fe042783          	lw	a5,-32(s0)
200108b6:	ebe5                	bnez	a5,200109a6 <driver_i2c0_read+0x124>
E:\8.AWS-FreeRTOS-HiFive1\Workspace\sifive-hifive1-revb-i2c\src/drv_i2c0.c:299
		/* Write address failed */
		METAL_I2C_LOG("I2C Read failed.\r\n");
	} else {
		/* Set command flags */
		command = METAL_I2C_CMD_READ;
200108b8:	02000793          	li	a5,32
200108bc:	fef407a3          	sb	a5,-17(s0)
E:\8.AWS-FreeRTOS-HiFive1\Workspace\sifive-hifive1-revb-i2c\src/drv_i2c0.c:301

		for (i = 0; i < len; i++) {
200108c0:	fe042423          	sw	zero,-24(s0)
200108c4:	a8d9                	j	2001099a <driver_i2c0_read+0x118>
E:\8.AWS-FreeRTOS-HiFive1\Workspace\sifive-hifive1-revb-i2c\src/drv_i2c0.c:303
			/* check for last transfer */
			if (i == (len - 1)) {
200108c6:	fc842783          	lw	a5,-56(s0)
200108ca:	17fd                	addi	a5,a5,-1
200108cc:	fe842703          	lw	a4,-24(s0)
200108d0:	02f71663          	bne	a4,a5,200108fc <driver_i2c0_read+0x7a>
E:\8.AWS-FreeRTOS-HiFive1\Workspace\sifive-hifive1-revb-i2c\src/drv_i2c0.c:307
				/* Set NACK to end read, if requested generate STOP
				 * condition */
				command |= (METAL_I2C_CMD_ACK |
							METAL_SIFIVE_I2C_INSERT_STOP(stop_bit));
200108d4:	fc042783          	lw	a5,-64(s0)
200108d8:	0ff7f793          	andi	a5,a5,255
200108dc:	079a                	slli	a5,a5,0x6
200108de:	0ff7f793          	andi	a5,a5,255
200108e2:	0407f793          	andi	a5,a5,64
200108e6:	0ff7f713          	andi	a4,a5,255
E:\8.AWS-FreeRTOS-HiFive1\Workspace\sifive-hifive1-revb-i2c\src/drv_i2c0.c:306
				command |= (METAL_I2C_CMD_ACK |
200108ea:	fef44783          	lbu	a5,-17(s0)
200108ee:	8fd9                	or	a5,a5,a4
200108f0:	0ff7f793          	andi	a5,a5,255
200108f4:	0087e793          	ori	a5,a5,8
200108f8:	fef407a3          	sb	a5,-17(s0)
E:\8.AWS-FreeRTOS-HiFive1\Workspace\sifive-hifive1-revb-i2c\src/drv_i2c0.c:310
			}
			/* Write command register */
			METAL_I2C_REGB(METAL_SIFIVE_I2C0_COMMAND) = command;
200108fc:	fe442783          	lw	a5,-28(s0)
20010900:	07c1                	addi	a5,a5,16
20010902:	873e                	mv	a4,a5
20010904:	fef44783          	lbu	a5,-17(s0)
20010908:	00f70023          	sb	a5,0(a4)
E:\8.AWS-FreeRTOS-HiFive1\Workspace\sifive-hifive1-revb-i2c\src/drv_i2c0.c:312
			/* Reset timeout */
			METAL_I2C_TIMEOUT_RESET(timeout);
2001090c:	5bc050ef          	jal	ra,20015ec8 <metal_time>
20010910:	86aa                	mv	a3,a0
20010912:	872e                	mv	a4,a1
20010914:	4585                	li	a1,1
20010916:	4601                	li	a2,0
20010918:	00b687b3          	add	a5,a3,a1
2001091c:	853e                	mv	a0,a5
2001091e:	00d53533          	sltu	a0,a0,a3
20010922:	00c70833          	add	a6,a4,a2
20010926:	01050733          	add	a4,a0,a6
2001092a:	883a                	mv	a6,a4
2001092c:	fcf42c23          	sw	a5,-40(s0)
20010930:	fd042e23          	sw	a6,-36(s0)
E:\8.AWS-FreeRTOS-HiFive1\Workspace\sifive-hifive1-revb-i2c\src/drv_i2c0.c:315

			/* Wait for the read to complete */
			METAL_I2C_REG_CHECK((METAL_I2C_REGB(METAL_SIFIVE_I2C0_STATUS) &
20010934:	a035                	j	20010960 <driver_i2c0_read+0xde>
E:\8.AWS-FreeRTOS-HiFive1\Workspace\sifive-hifive1-revb-i2c\src/drv_i2c0.c:315 (discriminator 3)
20010936:	592050ef          	jal	ra,20015ec8 <metal_time>
2001093a:	87aa                	mv	a5,a0
2001093c:	882e                	mv	a6,a1
2001093e:	fdc42703          	lw	a4,-36(s0)
20010942:	86c2                	mv	a3,a6
20010944:	00d74c63          	blt	a4,a3,2001095c <driver_i2c0_read+0xda>
20010948:	fdc42703          	lw	a4,-36(s0)
2001094c:	86c2                	mv	a3,a6
2001094e:	00d71963          	bne	a4,a3,20010960 <driver_i2c0_read+0xde>
20010952:	fd842703          	lw	a4,-40(s0)
20010956:	00f76363          	bltu	a4,a5,2001095c <driver_i2c0_read+0xda>
2001095a:	a019                	j	20010960 <driver_i2c0_read+0xde>
E:\8.AWS-FreeRTOS-HiFive1\Workspace\sifive-hifive1-revb-i2c\src/drv_i2c0.c:315 (discriminator 1)
2001095c:	57fd                	li	a5,-1
2001095e:	a0b1                	j	200109aa <driver_i2c0_read+0x128>
E:\8.AWS-FreeRTOS-HiFive1\Workspace\sifive-hifive1-revb-i2c\src/drv_i2c0.c:315 (discriminator 2)
20010960:	fe442783          	lw	a5,-28(s0)
20010964:	07c1                	addi	a5,a5,16
20010966:	0007c783          	lbu	a5,0(a5) # 10016000 <metal_segment_itim_target_end+0x8016000>
2001096a:	0ff7f793          	andi	a5,a5,255
2001096e:	8b89                	andi	a5,a5,2
20010970:	f3f9                	bnez	a5,20010936 <driver_i2c0_read+0xb4>
E:\8.AWS-FreeRTOS-HiFive1\Workspace\sifive-hifive1-revb-i2c\src/drv_i2c0.c:319 (discriminator 2)
								 METAL_I2C_STATUS_TIP),
								timeout);
			/* Store the received byte */
			buf[i] = METAL_I2C_REGB(METAL_SIFIVE_I2C0_TRANSMIT);
20010972:	fe442783          	lw	a5,-28(s0)
20010976:	07b1                	addi	a5,a5,12
20010978:	86be                	mv	a3,a5
2001097a:	fc442703          	lw	a4,-60(s0)
2001097e:	fe842783          	lw	a5,-24(s0)
20010982:	97ba                	add	a5,a5,a4
20010984:	0006c703          	lbu	a4,0(a3)
20010988:	0ff77713          	andi	a4,a4,255
2001098c:	00e78023          	sb	a4,0(a5)
E:\8.AWS-FreeRTOS-HiFive1\Workspace\sifive-hifive1-revb-i2c\src/drv_i2c0.c:301 (discriminator 2)
		for (i = 0; i < len; i++) {
20010990:	fe842783          	lw	a5,-24(s0)
20010994:	0785                	addi	a5,a5,1
20010996:	fef42423          	sw	a5,-24(s0)
E:\8.AWS-FreeRTOS-HiFive1\Workspace\sifive-hifive1-revb-i2c\src/drv_i2c0.c:301 (discriminator 1)
2001099a:	fe842703          	lw	a4,-24(s0)
2001099e:	fc842783          	lw	a5,-56(s0)
200109a2:	f2f762e3          	bltu	a4,a5,200108c6 <driver_i2c0_read+0x44>
E:\8.AWS-FreeRTOS-HiFive1\Workspace\sifive-hifive1-revb-i2c\src/drv_i2c0.c:323
		}
	}

    return ret;
200109a6:	fe042783          	lw	a5,-32(s0)
E:\8.AWS-FreeRTOS-HiFive1\Workspace\sifive-hifive1-revb-i2c\src/drv_i2c0.c:324
}
200109aa:	853e                	mv	a0,a5
200109ac:	50f2                	lw	ra,60(sp)
200109ae:	5462                	lw	s0,56(sp)
200109b0:	6121                	addi	sp,sp,64
200109b2:	8082                	ret

200109b4 <memset>:
memset():
200109b4:	433d                	li	t1,15
200109b6:	872a                	mv	a4,a0
200109b8:	02c37363          	bgeu	t1,a2,200109de <memset+0x2a>
200109bc:	00f77793          	andi	a5,a4,15
200109c0:	efbd                	bnez	a5,20010a3e <memset+0x8a>
200109c2:	e5ad                	bnez	a1,20010a2c <memset+0x78>
200109c4:	ff067693          	andi	a3,a2,-16
200109c8:	8a3d                	andi	a2,a2,15
200109ca:	96ba                	add	a3,a3,a4
200109cc:	c30c                	sw	a1,0(a4)
200109ce:	c34c                	sw	a1,4(a4)
200109d0:	c70c                	sw	a1,8(a4)
200109d2:	c74c                	sw	a1,12(a4)
200109d4:	0741                	addi	a4,a4,16
200109d6:	fed76be3          	bltu	a4,a3,200109cc <memset+0x18>
200109da:	e211                	bnez	a2,200109de <memset+0x2a>
200109dc:	8082                	ret
200109de:	40c306b3          	sub	a3,t1,a2
200109e2:	068a                	slli	a3,a3,0x2
200109e4:	00000297          	auipc	t0,0x0
200109e8:	9696                	add	a3,a3,t0
200109ea:	00a68067          	jr	10(a3)
200109ee:	00b70723          	sb	a1,14(a4)
200109f2:	00b706a3          	sb	a1,13(a4)
200109f6:	00b70623          	sb	a1,12(a4)
200109fa:	00b705a3          	sb	a1,11(a4)
200109fe:	00b70523          	sb	a1,10(a4)
20010a02:	00b704a3          	sb	a1,9(a4)
20010a06:	00b70423          	sb	a1,8(a4)
20010a0a:	00b703a3          	sb	a1,7(a4)
20010a0e:	00b70323          	sb	a1,6(a4)
20010a12:	00b702a3          	sb	a1,5(a4)
20010a16:	00b70223          	sb	a1,4(a4)
20010a1a:	00b701a3          	sb	a1,3(a4)
20010a1e:	00b70123          	sb	a1,2(a4)
20010a22:	00b700a3          	sb	a1,1(a4)
20010a26:	00b70023          	sb	a1,0(a4)
20010a2a:	8082                	ret
20010a2c:	0ff5f593          	andi	a1,a1,255
20010a30:	00859693          	slli	a3,a1,0x8
20010a34:	8dd5                	or	a1,a1,a3
20010a36:	01059693          	slli	a3,a1,0x10
20010a3a:	8dd5                	or	a1,a1,a3
20010a3c:	b761                	j	200109c4 <memset+0x10>
20010a3e:	00279693          	slli	a3,a5,0x2
20010a42:	00000297          	auipc	t0,0x0
20010a46:	9696                	add	a3,a3,t0
20010a48:	8286                	mv	t0,ra
20010a4a:	fa8680e7          	jalr	-88(a3)
20010a4e:	8096                	mv	ra,t0
20010a50:	17c1                	addi	a5,a5,-16
20010a52:	8f1d                	sub	a4,a4,a5
20010a54:	963e                	add	a2,a2,a5
20010a56:	f8c374e3          	bgeu	t1,a2,200109de <memset+0x2a>
20010a5a:	b7a5                	j	200109c2 <memset+0xe>

20010a5c <iprintf>:
printf():
20010a5c:	7139                	addi	sp,sp,-64
20010a5e:	da3e                	sw	a5,52(sp)
20010a60:	d22e                	sw	a1,36(sp)
20010a62:	d432                	sw	a2,40(sp)
20010a64:	d636                	sw	a3,44(sp)
20010a66:	d83a                	sw	a4,48(sp)
20010a68:	dc42                	sw	a6,56(sp)
20010a6a:	de46                	sw	a7,60(sp)
20010a6c:	5fff0797          	auipc	a5,0x5fff0
20010a70:	02078793          	addi	a5,a5,32 # 80000a8c <_impure_ptr>
20010a74:	cc22                	sw	s0,24(sp)
20010a76:	4380                	lw	s0,0(a5)
20010a78:	ca26                	sw	s1,20(sp)
20010a7a:	ce06                	sw	ra,28(sp)
20010a7c:	84aa                	mv	s1,a0
20010a7e:	c409                	beqz	s0,20010a88 <iprintf+0x2c>
20010a80:	4c1c                	lw	a5,24(s0)
20010a82:	e399                	bnez	a5,20010a88 <iprintf+0x2c>
20010a84:	8522                	mv	a0,s0
20010a86:	23b5                	jal	20010ff2 <__sinit>
20010a88:	440c                	lw	a1,8(s0)
20010a8a:	1054                	addi	a3,sp,36
20010a8c:	8626                	mv	a2,s1
20010a8e:	8522                	mv	a0,s0
20010a90:	c636                	sw	a3,12(sp)
20010a92:	1ed000ef          	jal	ra,2001147e <_vfiprintf_r>
20010a96:	40f2                	lw	ra,28(sp)
20010a98:	4462                	lw	s0,24(sp)
20010a9a:	44d2                	lw	s1,20(sp)
20010a9c:	6121                	addi	sp,sp,64
20010a9e:	8082                	ret

20010aa0 <_puts_r>:
_puts_r():
20010aa0:	1101                	addi	sp,sp,-32
20010aa2:	ca26                	sw	s1,20(sp)
20010aa4:	c84a                	sw	s2,16(sp)
20010aa6:	ce06                	sw	ra,28(sp)
20010aa8:	cc22                	sw	s0,24(sp)
20010aaa:	c64e                	sw	s3,12(sp)
20010aac:	c452                	sw	s4,8(sp)
20010aae:	84aa                	mv	s1,a0
20010ab0:	892e                	mv	s2,a1
20010ab2:	c501                	beqz	a0,20010aba <_puts_r+0x1a>
20010ab4:	4d1c                	lw	a5,24(a0)
20010ab6:	e391                	bnez	a5,20010aba <_puts_r+0x1a>
20010ab8:	2b2d                	jal	20010ff2 <__sinit>
20010aba:	4c9c                	lw	a5,24(s1)
20010abc:	4480                	lw	s0,8(s1)
20010abe:	e399                	bnez	a5,20010ac4 <_puts_r+0x24>
20010ac0:	8526                	mv	a0,s1
20010ac2:	2b05                	jal	20010ff2 <__sinit>
20010ac4:	00006797          	auipc	a5,0x6
20010ac8:	49c78793          	addi	a5,a5,1180 # 20016f60 <__sf_fake_stdin>
20010acc:	02f41c63          	bne	s0,a5,20010b04 <_puts_r+0x64>
20010ad0:	40c0                	lw	s0,4(s1)
20010ad2:	00c45783          	lhu	a5,12(s0)
20010ad6:	8ba1                	andi	a5,a5,8
20010ad8:	c7b1                	beqz	a5,20010b24 <_puts_r+0x84>
20010ada:	481c                	lw	a5,16(s0)
20010adc:	c7a1                	beqz	a5,20010b24 <_puts_r+0x84>
20010ade:	59fd                	li	s3,-1
20010ae0:	4a29                	li	s4,10
20010ae2:	441c                	lw	a5,8(s0)
20010ae4:	00094583          	lbu	a1,0(s2)
20010ae8:	17fd                	addi	a5,a5,-1
20010aea:	e9b1                	bnez	a1,20010b3e <_puts_r+0x9e>
20010aec:	c41c                	sw	a5,8(s0)
20010aee:	0607de63          	bgez	a5,20010b6a <_puts_r+0xca>
20010af2:	8622                	mv	a2,s0
20010af4:	45a9                	li	a1,10
20010af6:	8526                	mv	a0,s1
20010af8:	20d9                	jal	20010bbe <__swbuf_r>
20010afa:	57fd                	li	a5,-1
20010afc:	02f50863          	beq	a0,a5,20010b2c <_puts_r+0x8c>
20010b00:	4529                	li	a0,10
20010b02:	a035                	j	20010b2e <_puts_r+0x8e>
20010b04:	00006797          	auipc	a5,0x6
20010b08:	47c78793          	addi	a5,a5,1148 # 20016f80 <__sf_fake_stdout>
20010b0c:	00f41463          	bne	s0,a5,20010b14 <_puts_r+0x74>
20010b10:	4480                	lw	s0,8(s1)
20010b12:	b7c1                	j	20010ad2 <_puts_r+0x32>
20010b14:	00006797          	auipc	a5,0x6
20010b18:	42c78793          	addi	a5,a5,1068 # 20016f40 <__sf_fake_stderr>
20010b1c:	faf41be3          	bne	s0,a5,20010ad2 <_puts_r+0x32>
20010b20:	44c0                	lw	s0,12(s1)
20010b22:	bf45                	j	20010ad2 <_puts_r+0x32>
20010b24:	85a2                	mv	a1,s0
20010b26:	8526                	mv	a0,s1
20010b28:	2a99                	jal	20010c7e <__swsetup_r>
20010b2a:	d955                	beqz	a0,20010ade <_puts_r+0x3e>
20010b2c:	557d                	li	a0,-1
20010b2e:	40f2                	lw	ra,28(sp)
20010b30:	4462                	lw	s0,24(sp)
20010b32:	44d2                	lw	s1,20(sp)
20010b34:	4942                	lw	s2,16(sp)
20010b36:	49b2                	lw	s3,12(sp)
20010b38:	4a22                	lw	s4,8(sp)
20010b3a:	6105                	addi	sp,sp,32
20010b3c:	8082                	ret
20010b3e:	c41c                	sw	a5,8(s0)
20010b40:	0905                	addi	s2,s2,1
20010b42:	0007d763          	bgez	a5,20010b50 <_puts_r+0xb0>
20010b46:	4c18                	lw	a4,24(s0)
20010b48:	00e7cb63          	blt	a5,a4,20010b5e <_puts_r+0xbe>
20010b4c:	01458963          	beq	a1,s4,20010b5e <_puts_r+0xbe>
20010b50:	401c                	lw	a5,0(s0)
20010b52:	00178713          	addi	a4,a5,1
20010b56:	c018                	sw	a4,0(s0)
20010b58:	00b78023          	sb	a1,0(a5)
20010b5c:	b759                	j	20010ae2 <_puts_r+0x42>
20010b5e:	8622                	mv	a2,s0
20010b60:	8526                	mv	a0,s1
20010b62:	28b1                	jal	20010bbe <__swbuf_r>
20010b64:	f7351fe3          	bne	a0,s3,20010ae2 <_puts_r+0x42>
20010b68:	b7d1                	j	20010b2c <_puts_r+0x8c>
20010b6a:	401c                	lw	a5,0(s0)
20010b6c:	00178713          	addi	a4,a5,1
20010b70:	c018                	sw	a4,0(s0)
20010b72:	4729                	li	a4,10
20010b74:	00e78023          	sb	a4,0(a5)
20010b78:	b761                	j	20010b00 <_puts_r+0x60>

20010b7a <puts>:
puts():
20010b7a:	5fff0797          	auipc	a5,0x5fff0
20010b7e:	f1278793          	addi	a5,a5,-238 # 80000a8c <_impure_ptr>
20010b82:	85aa                	mv	a1,a0
20010b84:	4388                	lw	a0,0(a5)
20010b86:	bf29                	j	20010aa0 <_puts_r>

20010b88 <time>:
time():
20010b88:	1101                	addi	sp,sp,-32
20010b8a:	5fff0797          	auipc	a5,0x5fff0
20010b8e:	f0278793          	addi	a5,a5,-254 # 80000a8c <_impure_ptr>
20010b92:	cc22                	sw	s0,24(sp)
20010b94:	842a                	mv	s0,a0
20010b96:	4388                	lw	a0,0(a5)
20010b98:	4601                	li	a2,0
20010b9a:	858a                	mv	a1,sp
20010b9c:	ce06                	sw	ra,28(sp)
20010b9e:	23e9                	jal	20011168 <_gettimeofday_r>
20010ba0:	00055663          	bgez	a0,20010bac <time+0x24>
20010ba4:	577d                	li	a4,-1
20010ba6:	57fd                	li	a5,-1
20010ba8:	c03a                	sw	a4,0(sp)
20010baa:	c23e                	sw	a5,4(sp)
20010bac:	4502                	lw	a0,0(sp)
20010bae:	4592                	lw	a1,4(sp)
20010bb0:	c019                	beqz	s0,20010bb6 <time+0x2e>
20010bb2:	c008                	sw	a0,0(s0)
20010bb4:	c04c                	sw	a1,4(s0)
20010bb6:	40f2                	lw	ra,28(sp)
20010bb8:	4462                	lw	s0,24(sp)
20010bba:	6105                	addi	sp,sp,32
20010bbc:	8082                	ret

20010bbe <__swbuf_r>:
__swbuf_r():
20010bbe:	1101                	addi	sp,sp,-32
20010bc0:	cc22                	sw	s0,24(sp)
20010bc2:	ca26                	sw	s1,20(sp)
20010bc4:	c84a                	sw	s2,16(sp)
20010bc6:	ce06                	sw	ra,28(sp)
20010bc8:	c64e                	sw	s3,12(sp)
20010bca:	84aa                	mv	s1,a0
20010bcc:	892e                	mv	s2,a1
20010bce:	8432                	mv	s0,a2
20010bd0:	c501                	beqz	a0,20010bd8 <__swbuf_r+0x1a>
20010bd2:	4d1c                	lw	a5,24(a0)
20010bd4:	e391                	bnez	a5,20010bd8 <__swbuf_r+0x1a>
20010bd6:	2931                	jal	20010ff2 <__sinit>
20010bd8:	00006797          	auipc	a5,0x6
20010bdc:	38878793          	addi	a5,a5,904 # 20016f60 <__sf_fake_stdin>
20010be0:	06f41963          	bne	s0,a5,20010c52 <__swbuf_r+0x94>
20010be4:	40c0                	lw	s0,4(s1)
20010be6:	4c1c                	lw	a5,24(s0)
20010be8:	c41c                	sw	a5,8(s0)
20010bea:	00c45783          	lhu	a5,12(s0)
20010bee:	8ba1                	andi	a5,a5,8
20010bf0:	c3c9                	beqz	a5,20010c72 <__swbuf_r+0xb4>
20010bf2:	481c                	lw	a5,16(s0)
20010bf4:	cfbd                	beqz	a5,20010c72 <__swbuf_r+0xb4>
20010bf6:	481c                	lw	a5,16(s0)
20010bf8:	4008                	lw	a0,0(s0)
20010bfa:	0ff97993          	andi	s3,s2,255
20010bfe:	0ff97913          	andi	s2,s2,255
20010c02:	8d1d                	sub	a0,a0,a5
20010c04:	485c                	lw	a5,20(s0)
20010c06:	00f54663          	blt	a0,a5,20010c12 <__swbuf_r+0x54>
20010c0a:	85a2                	mv	a1,s0
20010c0c:	8526                	mv	a0,s1
20010c0e:	24e9                	jal	20010ed8 <_fflush_r>
20010c10:	e52d                	bnez	a0,20010c7a <__swbuf_r+0xbc>
20010c12:	441c                	lw	a5,8(s0)
20010c14:	0505                	addi	a0,a0,1
20010c16:	17fd                	addi	a5,a5,-1
20010c18:	c41c                	sw	a5,8(s0)
20010c1a:	401c                	lw	a5,0(s0)
20010c1c:	00178713          	addi	a4,a5,1
20010c20:	c018                	sw	a4,0(s0)
20010c22:	01378023          	sb	s3,0(a5)
20010c26:	485c                	lw	a5,20(s0)
20010c28:	00a78963          	beq	a5,a0,20010c3a <__swbuf_r+0x7c>
20010c2c:	00c45783          	lhu	a5,12(s0)
20010c30:	8b85                	andi	a5,a5,1
20010c32:	cb81                	beqz	a5,20010c42 <__swbuf_r+0x84>
20010c34:	47a9                	li	a5,10
20010c36:	00f91663          	bne	s2,a5,20010c42 <__swbuf_r+0x84>
20010c3a:	85a2                	mv	a1,s0
20010c3c:	8526                	mv	a0,s1
20010c3e:	2c69                	jal	20010ed8 <_fflush_r>
20010c40:	ed0d                	bnez	a0,20010c7a <__swbuf_r+0xbc>
20010c42:	40f2                	lw	ra,28(sp)
20010c44:	4462                	lw	s0,24(sp)
20010c46:	854a                	mv	a0,s2
20010c48:	44d2                	lw	s1,20(sp)
20010c4a:	4942                	lw	s2,16(sp)
20010c4c:	49b2                	lw	s3,12(sp)
20010c4e:	6105                	addi	sp,sp,32
20010c50:	8082                	ret
20010c52:	00006797          	auipc	a5,0x6
20010c56:	32e78793          	addi	a5,a5,814 # 20016f80 <__sf_fake_stdout>
20010c5a:	00f41463          	bne	s0,a5,20010c62 <__swbuf_r+0xa4>
20010c5e:	4480                	lw	s0,8(s1)
20010c60:	b759                	j	20010be6 <__swbuf_r+0x28>
20010c62:	00006797          	auipc	a5,0x6
20010c66:	2de78793          	addi	a5,a5,734 # 20016f40 <__sf_fake_stderr>
20010c6a:	f6f41ee3          	bne	s0,a5,20010be6 <__swbuf_r+0x28>
20010c6e:	44c0                	lw	s0,12(s1)
20010c70:	bf9d                	j	20010be6 <__swbuf_r+0x28>
20010c72:	85a2                	mv	a1,s0
20010c74:	8526                	mv	a0,s1
20010c76:	2021                	jal	20010c7e <__swsetup_r>
20010c78:	dd3d                	beqz	a0,20010bf6 <__swbuf_r+0x38>
20010c7a:	597d                	li	s2,-1
20010c7c:	b7d9                	j	20010c42 <__swbuf_r+0x84>

20010c7e <__swsetup_r>:
__swsetup_r():
20010c7e:	1141                	addi	sp,sp,-16
20010c80:	5fff0797          	auipc	a5,0x5fff0
20010c84:	e0c78793          	addi	a5,a5,-500 # 80000a8c <_impure_ptr>
20010c88:	c226                	sw	s1,4(sp)
20010c8a:	4384                	lw	s1,0(a5)
20010c8c:	c422                	sw	s0,8(sp)
20010c8e:	c04a                	sw	s2,0(sp)
20010c90:	c606                	sw	ra,12(sp)
20010c92:	892a                	mv	s2,a0
20010c94:	842e                	mv	s0,a1
20010c96:	c489                	beqz	s1,20010ca0 <__swsetup_r+0x22>
20010c98:	4c9c                	lw	a5,24(s1)
20010c9a:	e399                	bnez	a5,20010ca0 <__swsetup_r+0x22>
20010c9c:	8526                	mv	a0,s1
20010c9e:	2e91                	jal	20010ff2 <__sinit>
20010ca0:	00006797          	auipc	a5,0x6
20010ca4:	2c078793          	addi	a5,a5,704 # 20016f60 <__sf_fake_stdin>
20010ca8:	02f41c63          	bne	s0,a5,20010ce0 <__swsetup_r+0x62>
20010cac:	40c0                	lw	s0,4(s1)
20010cae:	00c41703          	lh	a4,12(s0)
20010cb2:	01071793          	slli	a5,a4,0x10
20010cb6:	83c1                	srli	a5,a5,0x10
20010cb8:	0087f693          	andi	a3,a5,8
20010cbc:	eeb5                	bnez	a3,20010d38 <__swsetup_r+0xba>
20010cbe:	0107f693          	andi	a3,a5,16
20010cc2:	ee9d                	bnez	a3,20010d00 <__swsetup_r+0x82>
20010cc4:	47a5                	li	a5,9
20010cc6:	00f92023          	sw	a5,0(s2)
20010cca:	04076713          	ori	a4,a4,64
20010cce:	00e41623          	sh	a4,12(s0)
20010cd2:	557d                	li	a0,-1
20010cd4:	40b2                	lw	ra,12(sp)
20010cd6:	4422                	lw	s0,8(sp)
20010cd8:	4492                	lw	s1,4(sp)
20010cda:	4902                	lw	s2,0(sp)
20010cdc:	0141                	addi	sp,sp,16
20010cde:	8082                	ret
20010ce0:	00006797          	auipc	a5,0x6
20010ce4:	2a078793          	addi	a5,a5,672 # 20016f80 <__sf_fake_stdout>
20010ce8:	00f41463          	bne	s0,a5,20010cf0 <__swsetup_r+0x72>
20010cec:	4480                	lw	s0,8(s1)
20010cee:	b7c1                	j	20010cae <__swsetup_r+0x30>
20010cf0:	00006797          	auipc	a5,0x6
20010cf4:	25078793          	addi	a5,a5,592 # 20016f40 <__sf_fake_stderr>
20010cf8:	faf41be3          	bne	s0,a5,20010cae <__swsetup_r+0x30>
20010cfc:	44c0                	lw	s0,12(s1)
20010cfe:	bf45                	j	20010cae <__swsetup_r+0x30>
20010d00:	8b91                	andi	a5,a5,4
20010d02:	c78d                	beqz	a5,20010d2c <__swsetup_r+0xae>
20010d04:	584c                	lw	a1,52(s0)
20010d06:	c989                	beqz	a1,20010d18 <__swsetup_r+0x9a>
20010d08:	04440793          	addi	a5,s0,68
20010d0c:	00f58463          	beq	a1,a5,20010d14 <__swsetup_r+0x96>
20010d10:	854a                	mv	a0,s2
20010d12:	2b9d                	jal	20011288 <_free_r>
20010d14:	02042a23          	sw	zero,52(s0)
20010d18:	00c45783          	lhu	a5,12(s0)
20010d1c:	00042223          	sw	zero,4(s0)
20010d20:	fdb7f793          	andi	a5,a5,-37
20010d24:	00f41623          	sh	a5,12(s0)
20010d28:	481c                	lw	a5,16(s0)
20010d2a:	c01c                	sw	a5,0(s0)
20010d2c:	00c45783          	lhu	a5,12(s0)
20010d30:	0087e793          	ori	a5,a5,8
20010d34:	00f41623          	sh	a5,12(s0)
20010d38:	481c                	lw	a5,16(s0)
20010d3a:	ef81                	bnez	a5,20010d52 <__swsetup_r+0xd4>
20010d3c:	00c45783          	lhu	a5,12(s0)
20010d40:	20000713          	li	a4,512
20010d44:	2807f793          	andi	a5,a5,640
20010d48:	00e78563          	beq	a5,a4,20010d52 <__swsetup_r+0xd4>
20010d4c:	85a2                	mv	a1,s0
20010d4e:	854a                	mv	a0,s2
20010d50:	2971                	jal	200111ec <__smakebuf_r>
20010d52:	00c45783          	lhu	a5,12(s0)
20010d56:	0017f713          	andi	a4,a5,1
20010d5a:	c705                	beqz	a4,20010d82 <__swsetup_r+0x104>
20010d5c:	485c                	lw	a5,20(s0)
20010d5e:	00042423          	sw	zero,8(s0)
20010d62:	40f007b3          	neg	a5,a5
20010d66:	cc1c                	sw	a5,24(s0)
20010d68:	481c                	lw	a5,16(s0)
20010d6a:	4501                	li	a0,0
20010d6c:	f7a5                	bnez	a5,20010cd4 <__swsetup_r+0x56>
20010d6e:	00c41783          	lh	a5,12(s0)
20010d72:	0807f713          	andi	a4,a5,128
20010d76:	df39                	beqz	a4,20010cd4 <__swsetup_r+0x56>
20010d78:	0407e793          	ori	a5,a5,64
20010d7c:	00f41623          	sh	a5,12(s0)
20010d80:	bf89                	j	20010cd2 <__swsetup_r+0x54>
20010d82:	8b89                	andi	a5,a5,2
20010d84:	4701                	li	a4,0
20010d86:	e391                	bnez	a5,20010d8a <__swsetup_r+0x10c>
20010d88:	4858                	lw	a4,20(s0)
20010d8a:	c418                	sw	a4,8(s0)
20010d8c:	bff1                	j	20010d68 <__swsetup_r+0xea>

20010d8e <__sflush_r>:
__sflush_r():
20010d8e:	00c5d783          	lhu	a5,12(a1)
20010d92:	1101                	addi	sp,sp,-32
20010d94:	cc22                	sw	s0,24(sp)
20010d96:	ca26                	sw	s1,20(sp)
20010d98:	ce06                	sw	ra,28(sp)
20010d9a:	c84a                	sw	s2,16(sp)
20010d9c:	c64e                	sw	s3,12(sp)
20010d9e:	0087f713          	andi	a4,a5,8
20010da2:	84aa                	mv	s1,a0
20010da4:	842e                	mv	s0,a1
20010da6:	e765                	bnez	a4,20010e8e <__sflush_r+0x100>
20010da8:	41d8                	lw	a4,4(a1)
20010daa:	00e04763          	bgtz	a4,20010db8 <__sflush_r+0x2a>
20010dae:	41b8                	lw	a4,64(a1)
20010db0:	00e04463          	bgtz	a4,20010db8 <__sflush_r+0x2a>
20010db4:	4501                	li	a0,0
20010db6:	a0c1                	j	20010e76 <__sflush_r+0xe8>
20010db8:	5458                	lw	a4,44(s0)
20010dba:	df6d                	beqz	a4,20010db4 <__sflush_r+0x26>
20010dbc:	0004a903          	lw	s2,0(s1)
20010dc0:	01379693          	slli	a3,a5,0x13
20010dc4:	0004a023          	sw	zero,0(s1)
20010dc8:	0606de63          	bgez	a3,20010e44 <__sflush_r+0xb6>
20010dcc:	4868                	lw	a0,84(s0)
20010dce:	00c45783          	lhu	a5,12(s0)
20010dd2:	8b91                	andi	a5,a5,4
20010dd4:	c799                	beqz	a5,20010de2 <__sflush_r+0x54>
20010dd6:	405c                	lw	a5,4(s0)
20010dd8:	8d1d                	sub	a0,a0,a5
20010dda:	585c                	lw	a5,52(s0)
20010ddc:	c399                	beqz	a5,20010de2 <__sflush_r+0x54>
20010dde:	403c                	lw	a5,64(s0)
20010de0:	8d1d                	sub	a0,a0,a5
20010de2:	545c                	lw	a5,44(s0)
20010de4:	500c                	lw	a1,32(s0)
20010de6:	862a                	mv	a2,a0
20010de8:	4681                	li	a3,0
20010dea:	8526                	mv	a0,s1
20010dec:	9782                	jalr	a5
20010dee:	57fd                	li	a5,-1
20010df0:	00c45703          	lhu	a4,12(s0)
20010df4:	00f51d63          	bne	a0,a5,20010e0e <__sflush_r+0x80>
20010df8:	4094                	lw	a3,0(s1)
20010dfa:	47f5                	li	a5,29
20010dfc:	08d7e463          	bltu	a5,a3,20010e84 <__sflush_r+0xf6>
20010e00:	204007b7          	lui	a5,0x20400
20010e04:	0785                	addi	a5,a5,1
20010e06:	00d7d7b3          	srl	a5,a5,a3
20010e0a:	8b85                	andi	a5,a5,1
20010e0c:	cfa5                	beqz	a5,20010e84 <__sflush_r+0xf6>
20010e0e:	481c                	lw	a5,16(s0)
20010e10:	00042223          	sw	zero,4(s0)
20010e14:	c01c                	sw	a5,0(s0)
20010e16:	01371793          	slli	a5,a4,0x13
20010e1a:	0007d863          	bgez	a5,20010e2a <__sflush_r+0x9c>
20010e1e:	57fd                	li	a5,-1
20010e20:	00f51463          	bne	a0,a5,20010e28 <__sflush_r+0x9a>
20010e24:	409c                	lw	a5,0(s1)
20010e26:	e391                	bnez	a5,20010e2a <__sflush_r+0x9c>
20010e28:	c868                	sw	a0,84(s0)
20010e2a:	584c                	lw	a1,52(s0)
20010e2c:	0124a023          	sw	s2,0(s1)
20010e30:	d1d1                	beqz	a1,20010db4 <__sflush_r+0x26>
20010e32:	04440793          	addi	a5,s0,68
20010e36:	00f58463          	beq	a1,a5,20010e3e <__sflush_r+0xb0>
20010e3a:	8526                	mv	a0,s1
20010e3c:	21b1                	jal	20011288 <_free_r>
20010e3e:	02042a23          	sw	zero,52(s0)
20010e42:	bf8d                	j	20010db4 <__sflush_r+0x26>
20010e44:	500c                	lw	a1,32(s0)
20010e46:	4685                	li	a3,1
20010e48:	4601                	li	a2,0
20010e4a:	8526                	mv	a0,s1
20010e4c:	9702                	jalr	a4
20010e4e:	57fd                	li	a5,-1
20010e50:	f6f51fe3          	bne	a0,a5,20010dce <__sflush_r+0x40>
20010e54:	409c                	lw	a5,0(s1)
20010e56:	dfa5                	beqz	a5,20010dce <__sflush_r+0x40>
20010e58:	4775                	li	a4,29
20010e5a:	00e78563          	beq	a5,a4,20010e64 <__sflush_r+0xd6>
20010e5e:	4759                	li	a4,22
20010e60:	00e79563          	bne	a5,a4,20010e6a <__sflush_r+0xdc>
20010e64:	0124a023          	sw	s2,0(s1)
20010e68:	b7b1                	j	20010db4 <__sflush_r+0x26>
20010e6a:	00c45783          	lhu	a5,12(s0)
20010e6e:	0407e793          	ori	a5,a5,64
20010e72:	00f41623          	sh	a5,12(s0)
20010e76:	40f2                	lw	ra,28(sp)
20010e78:	4462                	lw	s0,24(sp)
20010e7a:	44d2                	lw	s1,20(sp)
20010e7c:	4942                	lw	s2,16(sp)
20010e7e:	49b2                	lw	s3,12(sp)
20010e80:	6105                	addi	sp,sp,32
20010e82:	8082                	ret
20010e84:	04076713          	ori	a4,a4,64
20010e88:	00e41623          	sh	a4,12(s0)
20010e8c:	b7ed                	j	20010e76 <__sflush_r+0xe8>
20010e8e:	0105a983          	lw	s3,16(a1)
20010e92:	f20981e3          	beqz	s3,20010db4 <__sflush_r+0x26>
20010e96:	0005a903          	lw	s2,0(a1)
20010e9a:	8b8d                	andi	a5,a5,3
20010e9c:	0135a023          	sw	s3,0(a1)
20010ea0:	41390933          	sub	s2,s2,s3
20010ea4:	4701                	li	a4,0
20010ea6:	e391                	bnez	a5,20010eaa <__sflush_r+0x11c>
20010ea8:	49d8                	lw	a4,20(a1)
20010eaa:	c418                	sw	a4,8(s0)
20010eac:	f12054e3          	blez	s2,20010db4 <__sflush_r+0x26>
20010eb0:	541c                	lw	a5,40(s0)
20010eb2:	500c                	lw	a1,32(s0)
20010eb4:	86ca                	mv	a3,s2
20010eb6:	864e                	mv	a2,s3
20010eb8:	8526                	mv	a0,s1
20010eba:	9782                	jalr	a5
20010ebc:	00a04a63          	bgtz	a0,20010ed0 <__sflush_r+0x142>
20010ec0:	00c45783          	lhu	a5,12(s0)
20010ec4:	557d                	li	a0,-1
20010ec6:	0407e793          	ori	a5,a5,64
20010eca:	00f41623          	sh	a5,12(s0)
20010ece:	b765                	j	20010e76 <__sflush_r+0xe8>
20010ed0:	99aa                	add	s3,s3,a0
20010ed2:	40a90933          	sub	s2,s2,a0
20010ed6:	bfd9                	j	20010eac <__sflush_r+0x11e>

20010ed8 <_fflush_r>:
_fflush_r():
20010ed8:	499c                	lw	a5,16(a1)
20010eda:	cfb9                	beqz	a5,20010f38 <_fflush_r+0x60>
20010edc:	1101                	addi	sp,sp,-32
20010ede:	cc22                	sw	s0,24(sp)
20010ee0:	ce06                	sw	ra,28(sp)
20010ee2:	842a                	mv	s0,a0
20010ee4:	c511                	beqz	a0,20010ef0 <_fflush_r+0x18>
20010ee6:	4d1c                	lw	a5,24(a0)
20010ee8:	e781                	bnez	a5,20010ef0 <_fflush_r+0x18>
20010eea:	c62e                	sw	a1,12(sp)
20010eec:	2219                	jal	20010ff2 <__sinit>
20010eee:	45b2                	lw	a1,12(sp)
20010ef0:	00006797          	auipc	a5,0x6
20010ef4:	07078793          	addi	a5,a5,112 # 20016f60 <__sf_fake_stdin>
20010ef8:	00f59b63          	bne	a1,a5,20010f0e <_fflush_r+0x36>
20010efc:	404c                	lw	a1,4(s0)
20010efe:	00c59783          	lh	a5,12(a1)
20010f02:	c795                	beqz	a5,20010f2e <_fflush_r+0x56>
20010f04:	8522                	mv	a0,s0
20010f06:	4462                	lw	s0,24(sp)
20010f08:	40f2                	lw	ra,28(sp)
20010f0a:	6105                	addi	sp,sp,32
20010f0c:	b549                	j	20010d8e <__sflush_r>
20010f0e:	00006797          	auipc	a5,0x6
20010f12:	07278793          	addi	a5,a5,114 # 20016f80 <__sf_fake_stdout>
20010f16:	00f59463          	bne	a1,a5,20010f1e <_fflush_r+0x46>
20010f1a:	440c                	lw	a1,8(s0)
20010f1c:	b7cd                	j	20010efe <_fflush_r+0x26>
20010f1e:	00006797          	auipc	a5,0x6
20010f22:	02278793          	addi	a5,a5,34 # 20016f40 <__sf_fake_stderr>
20010f26:	fcf59ce3          	bne	a1,a5,20010efe <_fflush_r+0x26>
20010f2a:	444c                	lw	a1,12(s0)
20010f2c:	bfc9                	j	20010efe <_fflush_r+0x26>
20010f2e:	40f2                	lw	ra,28(sp)
20010f30:	4462                	lw	s0,24(sp)
20010f32:	4501                	li	a0,0
20010f34:	6105                	addi	sp,sp,32
20010f36:	8082                	ret
20010f38:	4501                	li	a0,0
20010f3a:	8082                	ret

20010f3c <std>:
std():
20010f3c:	1141                	addi	sp,sp,-16
20010f3e:	c422                	sw	s0,8(sp)
20010f40:	c606                	sw	ra,12(sp)
20010f42:	842a                	mv	s0,a0
20010f44:	00b51623          	sh	a1,12(a0)
20010f48:	00c51723          	sh	a2,14(a0)
20010f4c:	00052023          	sw	zero,0(a0)
20010f50:	00052223          	sw	zero,4(a0)
20010f54:	00052423          	sw	zero,8(a0)
20010f58:	06052223          	sw	zero,100(a0)
20010f5c:	00052823          	sw	zero,16(a0)
20010f60:	00052a23          	sw	zero,20(a0)
20010f64:	00052c23          	sw	zero,24(a0)
20010f68:	4621                	li	a2,8
20010f6a:	4581                	li	a1,0
20010f6c:	05c50513          	addi	a0,a0,92
20010f70:	3491                	jal	200109b4 <memset>
20010f72:	00000797          	auipc	a5,0x0
20010f76:	7ce78793          	addi	a5,a5,1998 # 20011740 <__sread>
20010f7a:	d05c                	sw	a5,36(s0)
20010f7c:	00000797          	auipc	a5,0x0
20010f80:	7f478793          	addi	a5,a5,2036 # 20011770 <__swrite>
20010f84:	d41c                	sw	a5,40(s0)
20010f86:	00001797          	auipc	a5,0x1
20010f8a:	83878793          	addi	a5,a5,-1992 # 200117be <__sseek>
20010f8e:	d45c                	sw	a5,44(s0)
20010f90:	00001797          	auipc	a5,0x1
20010f94:	86478793          	addi	a5,a5,-1948 # 200117f4 <__sclose>
20010f98:	d000                	sw	s0,32(s0)
20010f9a:	d81c                	sw	a5,48(s0)
20010f9c:	40b2                	lw	ra,12(sp)
20010f9e:	4422                	lw	s0,8(sp)
20010fa0:	0141                	addi	sp,sp,16
20010fa2:	8082                	ret

20010fa4 <_cleanup_r>:
_cleanup_r():
20010fa4:	00000597          	auipc	a1,0x0
20010fa8:	f3458593          	addi	a1,a1,-204 # 20010ed8 <_fflush_r>
20010fac:	aa81                	j	200110fc <_fwalk_reent>

20010fae <__sfmoreglue>:
__sfmoreglue():
20010fae:	1141                	addi	sp,sp,-16
20010fb0:	c226                	sw	s1,4(sp)
20010fb2:	06800613          	li	a2,104
20010fb6:	fff58493          	addi	s1,a1,-1
20010fba:	02c484b3          	mul	s1,s1,a2
20010fbe:	c04a                	sw	s2,0(sp)
20010fc0:	892e                	mv	s2,a1
20010fc2:	c422                	sw	s0,8(sp)
20010fc4:	c606                	sw	ra,12(sp)
20010fc6:	07448593          	addi	a1,s1,116
20010fca:	26ad                	jal	20011334 <_malloc_r>
20010fcc:	842a                	mv	s0,a0
20010fce:	c919                	beqz	a0,20010fe4 <__sfmoreglue+0x36>
20010fd0:	00052023          	sw	zero,0(a0)
20010fd4:	01252223          	sw	s2,4(a0)
20010fd8:	0531                	addi	a0,a0,12
20010fda:	c408                	sw	a0,8(s0)
20010fdc:	06848613          	addi	a2,s1,104
20010fe0:	4581                	li	a1,0
20010fe2:	3ac9                	jal	200109b4 <memset>
20010fe4:	8522                	mv	a0,s0
20010fe6:	40b2                	lw	ra,12(sp)
20010fe8:	4422                	lw	s0,8(sp)
20010fea:	4492                	lw	s1,4(sp)
20010fec:	4902                	lw	s2,0(sp)
20010fee:	0141                	addi	sp,sp,16
20010ff0:	8082                	ret

20010ff2 <__sinit>:
__sinit():
20010ff2:	4d1c                	lw	a5,24(a0)
20010ff4:	e3bd                	bnez	a5,2001105a <__sinit+0x68>
20010ff6:	1141                	addi	sp,sp,-16
20010ff8:	c606                	sw	ra,12(sp)
20010ffa:	c422                	sw	s0,8(sp)
20010ffc:	00000797          	auipc	a5,0x0
20011000:	fa878793          	addi	a5,a5,-88 # 20010fa4 <_cleanup_r>
20011004:	d51c                	sw	a5,40(a0)
20011006:	5fff0797          	auipc	a5,0x5fff0
2001100a:	a8a78793          	addi	a5,a5,-1398 # 80000a90 <_global_impure_ptr>
2001100e:	439c                	lw	a5,0(a5)
20011010:	04052423          	sw	zero,72(a0)
20011014:	04052623          	sw	zero,76(a0)
20011018:	04052823          	sw	zero,80(a0)
2001101c:	00f51463          	bne	a0,a5,20011024 <__sinit+0x32>
20011020:	4785                	li	a5,1
20011022:	cd1c                	sw	a5,24(a0)
20011024:	842a                	mv	s0,a0
20011026:	281d                	jal	2001105c <__sfp>
20011028:	c048                	sw	a0,4(s0)
2001102a:	8522                	mv	a0,s0
2001102c:	2805                	jal	2001105c <__sfp>
2001102e:	c408                	sw	a0,8(s0)
20011030:	8522                	mv	a0,s0
20011032:	202d                	jal	2001105c <__sfp>
20011034:	c448                	sw	a0,12(s0)
20011036:	4048                	lw	a0,4(s0)
20011038:	4601                	li	a2,0
2001103a:	4591                	li	a1,4
2001103c:	3701                	jal	20010f3c <std>
2001103e:	4408                	lw	a0,8(s0)
20011040:	4605                	li	a2,1
20011042:	45a5                	li	a1,9
20011044:	3de5                	jal	20010f3c <std>
20011046:	4448                	lw	a0,12(s0)
20011048:	4609                	li	a2,2
2001104a:	45c9                	li	a1,18
2001104c:	3dc5                	jal	20010f3c <std>
2001104e:	4785                	li	a5,1
20011050:	cc1c                	sw	a5,24(s0)
20011052:	40b2                	lw	ra,12(sp)
20011054:	4422                	lw	s0,8(sp)
20011056:	0141                	addi	sp,sp,16
20011058:	8082                	ret
2001105a:	8082                	ret

2001105c <__sfp>:
__sfp():
2001105c:	1141                	addi	sp,sp,-16
2001105e:	5fff0797          	auipc	a5,0x5fff0
20011062:	a3278793          	addi	a5,a5,-1486 # 80000a90 <_global_impure_ptr>
20011066:	c226                	sw	s1,4(sp)
20011068:	4384                	lw	s1,0(a5)
2001106a:	c04a                	sw	s2,0(sp)
2001106c:	c606                	sw	ra,12(sp)
2001106e:	4c9c                	lw	a5,24(s1)
20011070:	c422                	sw	s0,8(sp)
20011072:	892a                	mv	s2,a0
20011074:	e399                	bnez	a5,2001107a <__sfp+0x1e>
20011076:	8526                	mv	a0,s1
20011078:	3fad                	jal	20010ff2 <__sinit>
2001107a:	04848493          	addi	s1,s1,72
2001107e:	4480                	lw	s0,8(s1)
20011080:	40dc                	lw	a5,4(s1)
20011082:	17fd                	addi	a5,a5,-1
20011084:	0007d663          	bgez	a5,20011090 <__sfp+0x34>
20011088:	409c                	lw	a5,0(s1)
2001108a:	cfb9                	beqz	a5,200110e8 <__sfp+0x8c>
2001108c:	4084                	lw	s1,0(s1)
2001108e:	bfc5                	j	2001107e <__sfp+0x22>
20011090:	00c41703          	lh	a4,12(s0)
20011094:	e739                	bnez	a4,200110e2 <__sfp+0x86>
20011096:	77c1                	lui	a5,0xffff0
20011098:	0785                	addi	a5,a5,1
2001109a:	06042223          	sw	zero,100(s0)
2001109e:	00042023          	sw	zero,0(s0)
200110a2:	00042223          	sw	zero,4(s0)
200110a6:	00042423          	sw	zero,8(s0)
200110aa:	c45c                	sw	a5,12(s0)
200110ac:	00042823          	sw	zero,16(s0)
200110b0:	00042a23          	sw	zero,20(s0)
200110b4:	00042c23          	sw	zero,24(s0)
200110b8:	4621                	li	a2,8
200110ba:	4581                	li	a1,0
200110bc:	05c40513          	addi	a0,s0,92
200110c0:	8f5ff0ef          	jal	ra,200109b4 <memset>
200110c4:	02042a23          	sw	zero,52(s0)
200110c8:	02042c23          	sw	zero,56(s0)
200110cc:	04042423          	sw	zero,72(s0)
200110d0:	04042623          	sw	zero,76(s0)
200110d4:	8522                	mv	a0,s0
200110d6:	40b2                	lw	ra,12(sp)
200110d8:	4422                	lw	s0,8(sp)
200110da:	4492                	lw	s1,4(sp)
200110dc:	4902                	lw	s2,0(sp)
200110de:	0141                	addi	sp,sp,16
200110e0:	8082                	ret
200110e2:	06840413          	addi	s0,s0,104
200110e6:	bf71                	j	20011082 <__sfp+0x26>
200110e8:	4591                	li	a1,4
200110ea:	854a                	mv	a0,s2
200110ec:	35c9                	jal	20010fae <__sfmoreglue>
200110ee:	c088                	sw	a0,0(s1)
200110f0:	842a                	mv	s0,a0
200110f2:	fd49                	bnez	a0,2001108c <__sfp+0x30>
200110f4:	47b1                	li	a5,12
200110f6:	00f92023          	sw	a5,0(s2)
200110fa:	bfe9                	j	200110d4 <__sfp+0x78>

200110fc <_fwalk_reent>:
_fwalk_reent():
200110fc:	7179                	addi	sp,sp,-48
200110fe:	d422                	sw	s0,40(sp)
20011100:	d04a                	sw	s2,32(sp)
20011102:	cc52                	sw	s4,24(sp)
20011104:	ca56                	sw	s5,20(sp)
20011106:	c85a                	sw	s6,16(sp)
20011108:	c65e                	sw	s7,12(sp)
2001110a:	d606                	sw	ra,44(sp)
2001110c:	d226                	sw	s1,36(sp)
2001110e:	ce4e                	sw	s3,28(sp)
20011110:	8a2a                	mv	s4,a0
20011112:	8aae                	mv	s5,a1
20011114:	04850413          	addi	s0,a0,72
20011118:	4901                	li	s2,0
2001111a:	4b05                	li	s6,1
2001111c:	5bfd                	li	s7,-1
2001111e:	ec09                	bnez	s0,20011138 <_fwalk_reent+0x3c>
20011120:	50b2                	lw	ra,44(sp)
20011122:	5422                	lw	s0,40(sp)
20011124:	854a                	mv	a0,s2
20011126:	5492                	lw	s1,36(sp)
20011128:	5902                	lw	s2,32(sp)
2001112a:	49f2                	lw	s3,28(sp)
2001112c:	4a62                	lw	s4,24(sp)
2001112e:	4ad2                	lw	s5,20(sp)
20011130:	4b42                	lw	s6,16(sp)
20011132:	4bb2                	lw	s7,12(sp)
20011134:	6145                	addi	sp,sp,48
20011136:	8082                	ret
20011138:	4404                	lw	s1,8(s0)
2001113a:	00442983          	lw	s3,4(s0)
2001113e:	19fd                	addi	s3,s3,-1
20011140:	0009d463          	bgez	s3,20011148 <_fwalk_reent+0x4c>
20011144:	4000                	lw	s0,0(s0)
20011146:	bfe1                	j	2001111e <_fwalk_reent+0x22>
20011148:	00c4d783          	lhu	a5,12(s1)
2001114c:	00fb7b63          	bgeu	s6,a5,20011162 <_fwalk_reent+0x66>
20011150:	00e49783          	lh	a5,14(s1)
20011154:	01778763          	beq	a5,s7,20011162 <_fwalk_reent+0x66>
20011158:	85a6                	mv	a1,s1
2001115a:	8552                	mv	a0,s4
2001115c:	9a82                	jalr	s5
2001115e:	00a96933          	or	s2,s2,a0
20011162:	06848493          	addi	s1,s1,104
20011166:	bfe1                	j	2001113e <_fwalk_reent+0x42>

20011168 <_gettimeofday_r>:
_gettimeofday_r():
20011168:	1141                	addi	sp,sp,-16
2001116a:	c422                	sw	s0,8(sp)
2001116c:	842a                	mv	s0,a0
2001116e:	852e                	mv	a0,a1
20011170:	85b2                	mv	a1,a2
20011172:	8e01a223          	sw	zero,-1820(gp) # 80000b6c <errno>
20011176:	c606                	sw	ra,12(sp)
20011178:	094050ef          	jal	ra,2001620c <_gettimeofday>
2001117c:	57fd                	li	a5,-1
2001117e:	00f51763          	bne	a0,a5,2001118c <_gettimeofday_r+0x24>
20011182:	8e418793          	addi	a5,gp,-1820 # 80000b6c <errno>
20011186:	439c                	lw	a5,0(a5)
20011188:	c391                	beqz	a5,2001118c <_gettimeofday_r+0x24>
2001118a:	c01c                	sw	a5,0(s0)
2001118c:	40b2                	lw	ra,12(sp)
2001118e:	4422                	lw	s0,8(sp)
20011190:	0141                	addi	sp,sp,16
20011192:	8082                	ret

20011194 <__swhatbuf_r>:
__swhatbuf_r():
20011194:	7119                	addi	sp,sp,-128
20011196:	daa6                	sw	s1,116(sp)
20011198:	84ae                	mv	s1,a1
2001119a:	00e59583          	lh	a1,14(a1)
2001119e:	dca2                	sw	s0,120(sp)
200111a0:	de86                	sw	ra,124(sp)
200111a2:	8432                	mv	s0,a2
200111a4:	0005dc63          	bgez	a1,200111bc <__swhatbuf_r+0x28>
200111a8:	00c4d783          	lhu	a5,12(s1)
200111ac:	0006a023          	sw	zero,0(a3)
200111b0:	0807f793          	andi	a5,a5,128
200111b4:	e39d                	bnez	a5,200111da <__swhatbuf_r+0x46>
200111b6:	40000793          	li	a5,1024
200111ba:	a015                	j	200111de <__swhatbuf_r+0x4a>
200111bc:	0830                	addi	a2,sp,24
200111be:	c636                	sw	a3,12(sp)
200111c0:	2d49                	jal	20011852 <_fstat_r>
200111c2:	46b2                	lw	a3,12(sp)
200111c4:	fe0542e3          	bltz	a0,200111a8 <__swhatbuf_r+0x14>
200111c8:	4772                	lw	a4,28(sp)
200111ca:	67bd                	lui	a5,0xf
200111cc:	8ff9                	and	a5,a5,a4
200111ce:	7779                	lui	a4,0xffffe
200111d0:	97ba                	add	a5,a5,a4
200111d2:	0017b793          	seqz	a5,a5
200111d6:	c29c                	sw	a5,0(a3)
200111d8:	bff9                	j	200111b6 <__swhatbuf_r+0x22>
200111da:	04000793          	li	a5,64
200111de:	c01c                	sw	a5,0(s0)
200111e0:	50f6                	lw	ra,124(sp)
200111e2:	5466                	lw	s0,120(sp)
200111e4:	54d6                	lw	s1,116(sp)
200111e6:	4501                	li	a0,0
200111e8:	6109                	addi	sp,sp,128
200111ea:	8082                	ret

200111ec <__smakebuf_r>:
__smakebuf_r():
200111ec:	00c5d783          	lhu	a5,12(a1)
200111f0:	1101                	addi	sp,sp,-32
200111f2:	cc22                	sw	s0,24(sp)
200111f4:	ce06                	sw	ra,28(sp)
200111f6:	ca26                	sw	s1,20(sp)
200111f8:	c84a                	sw	s2,16(sp)
200111fa:	8b89                	andi	a5,a5,2
200111fc:	842e                	mv	s0,a1
200111fe:	cf89                	beqz	a5,20011218 <__smakebuf_r+0x2c>
20011200:	04740793          	addi	a5,s0,71
20011204:	c01c                	sw	a5,0(s0)
20011206:	c81c                	sw	a5,16(s0)
20011208:	4785                	li	a5,1
2001120a:	c85c                	sw	a5,20(s0)
2001120c:	40f2                	lw	ra,28(sp)
2001120e:	4462                	lw	s0,24(sp)
20011210:	44d2                	lw	s1,20(sp)
20011212:	4942                	lw	s2,16(sp)
20011214:	6105                	addi	sp,sp,32
20011216:	8082                	ret
20011218:	0074                	addi	a3,sp,12
2001121a:	0030                	addi	a2,sp,8
2001121c:	84aa                	mv	s1,a0
2001121e:	3f9d                	jal	20011194 <__swhatbuf_r>
20011220:	45a2                	lw	a1,8(sp)
20011222:	892a                	mv	s2,a0
20011224:	8526                	mv	a0,s1
20011226:	2239                	jal	20011334 <_malloc_r>
20011228:	ed01                	bnez	a0,20011240 <__smakebuf_r+0x54>
2001122a:	00c41783          	lh	a5,12(s0)
2001122e:	2007f713          	andi	a4,a5,512
20011232:	ff69                	bnez	a4,2001120c <__smakebuf_r+0x20>
20011234:	9bf1                	andi	a5,a5,-4
20011236:	0027e793          	ori	a5,a5,2
2001123a:	00f41623          	sh	a5,12(s0)
2001123e:	b7c9                	j	20011200 <__smakebuf_r+0x14>
20011240:	00000797          	auipc	a5,0x0
20011244:	d6478793          	addi	a5,a5,-668 # 20010fa4 <_cleanup_r>
20011248:	d49c                	sw	a5,40(s1)
2001124a:	00c45783          	lhu	a5,12(s0)
2001124e:	c008                	sw	a0,0(s0)
20011250:	c808                	sw	a0,16(s0)
20011252:	0807e793          	ori	a5,a5,128
20011256:	00f41623          	sh	a5,12(s0)
2001125a:	47a2                	lw	a5,8(sp)
2001125c:	c85c                	sw	a5,20(s0)
2001125e:	47b2                	lw	a5,12(sp)
20011260:	cf89                	beqz	a5,2001127a <__smakebuf_r+0x8e>
20011262:	00e41583          	lh	a1,14(s0)
20011266:	8526                	mv	a0,s1
20011268:	2d19                	jal	2001187e <_isatty_r>
2001126a:	c901                	beqz	a0,2001127a <__smakebuf_r+0x8e>
2001126c:	00c45783          	lhu	a5,12(s0)
20011270:	9bf1                	andi	a5,a5,-4
20011272:	0017e793          	ori	a5,a5,1
20011276:	00f41623          	sh	a5,12(s0)
2001127a:	00c45783          	lhu	a5,12(s0)
2001127e:	00f96933          	or	s2,s2,a5
20011282:	01241623          	sh	s2,12(s0)
20011286:	b759                	j	2001120c <__smakebuf_r+0x20>

20011288 <_free_r>:
_free_r():
20011288:	c5cd                	beqz	a1,20011332 <_free_r+0xaa>
2001128a:	ffc5a783          	lw	a5,-4(a1)
2001128e:	1141                	addi	sp,sp,-16
20011290:	c422                	sw	s0,8(sp)
20011292:	c606                	sw	ra,12(sp)
20011294:	c226                	sw	s1,4(sp)
20011296:	ffc58413          	addi	s0,a1,-4
2001129a:	0007d363          	bgez	a5,200112a0 <_free_r+0x18>
2001129e:	943e                	add	s0,s0,a5
200112a0:	84aa                	mv	s1,a0
200112a2:	25b9                	jal	200118f0 <__malloc_lock>
200112a4:	5fff0797          	auipc	a5,0x5fff0
200112a8:	83078793          	addi	a5,a5,-2000 # 80000ad4 <__malloc_free_list>
200112ac:	439c                	lw	a5,0(a5)
200112ae:	ef89                	bnez	a5,200112c8 <_free_r+0x40>
200112b0:	00042223          	sw	zero,4(s0)
200112b4:	5fff0797          	auipc	a5,0x5fff0
200112b8:	8287a023          	sw	s0,-2016(a5) # 80000ad4 <__malloc_free_list>
200112bc:	4422                	lw	s0,8(sp)
200112be:	40b2                	lw	ra,12(sp)
200112c0:	8526                	mv	a0,s1
200112c2:	4492                	lw	s1,4(sp)
200112c4:	0141                	addi	sp,sp,16
200112c6:	a535                	j	200118f2 <__malloc_unlock>
200112c8:	00f47e63          	bgeu	s0,a5,200112e4 <_free_r+0x5c>
200112cc:	4014                	lw	a3,0(s0)
200112ce:	00d40733          	add	a4,s0,a3
200112d2:	00e79663          	bne	a5,a4,200112de <_free_r+0x56>
200112d6:	4398                	lw	a4,0(a5)
200112d8:	43dc                	lw	a5,4(a5)
200112da:	9736                	add	a4,a4,a3
200112dc:	c018                	sw	a4,0(s0)
200112de:	c05c                	sw	a5,4(s0)
200112e0:	bfd1                	j	200112b4 <_free_r+0x2c>
200112e2:	87ba                	mv	a5,a4
200112e4:	43d8                	lw	a4,4(a5)
200112e6:	c319                	beqz	a4,200112ec <_free_r+0x64>
200112e8:	fee47de3          	bgeu	s0,a4,200112e2 <_free_r+0x5a>
200112ec:	4394                	lw	a3,0(a5)
200112ee:	00d78633          	add	a2,a5,a3
200112f2:	00861f63          	bne	a2,s0,20011310 <_free_r+0x88>
200112f6:	4010                	lw	a2,0(s0)
200112f8:	96b2                	add	a3,a3,a2
200112fa:	c394                	sw	a3,0(a5)
200112fc:	00d78633          	add	a2,a5,a3
20011300:	fac71ee3          	bne	a4,a2,200112bc <_free_r+0x34>
20011304:	4310                	lw	a2,0(a4)
20011306:	4358                	lw	a4,4(a4)
20011308:	96b2                	add	a3,a3,a2
2001130a:	c394                	sw	a3,0(a5)
2001130c:	c3d8                	sw	a4,4(a5)
2001130e:	b77d                	j	200112bc <_free_r+0x34>
20011310:	00c47563          	bgeu	s0,a2,2001131a <_free_r+0x92>
20011314:	47b1                	li	a5,12
20011316:	c09c                	sw	a5,0(s1)
20011318:	b755                	j	200112bc <_free_r+0x34>
2001131a:	4010                	lw	a2,0(s0)
2001131c:	00c406b3          	add	a3,s0,a2
20011320:	00d71663          	bne	a4,a3,2001132c <_free_r+0xa4>
20011324:	4314                	lw	a3,0(a4)
20011326:	4358                	lw	a4,4(a4)
20011328:	96b2                	add	a3,a3,a2
2001132a:	c014                	sw	a3,0(s0)
2001132c:	c058                	sw	a4,4(s0)
2001132e:	c3c0                	sw	s0,4(a5)
20011330:	b771                	j	200112bc <_free_r+0x34>
20011332:	8082                	ret

20011334 <_malloc_r>:
_malloc_r():
20011334:	1101                	addi	sp,sp,-32
20011336:	ca26                	sw	s1,20(sp)
20011338:	00358493          	addi	s1,a1,3
2001133c:	98f1                	andi	s1,s1,-4
2001133e:	ce06                	sw	ra,28(sp)
20011340:	cc22                	sw	s0,24(sp)
20011342:	c84a                	sw	s2,16(sp)
20011344:	c64e                	sw	s3,12(sp)
20011346:	04a1                	addi	s1,s1,8
20011348:	47b1                	li	a5,12
2001134a:	04f4f763          	bgeu	s1,a5,20011398 <_malloc_r+0x64>
2001134e:	44b1                	li	s1,12
20011350:	04b4e663          	bltu	s1,a1,2001139c <_malloc_r+0x68>
20011354:	892a                	mv	s2,a0
20011356:	2b69                	jal	200118f0 <__malloc_lock>
20011358:	5ffef797          	auipc	a5,0x5ffef
2001135c:	77c78793          	addi	a5,a5,1916 # 80000ad4 <__malloc_free_list>
20011360:	4398                	lw	a4,0(a5)
20011362:	843a                	mv	s0,a4
20011364:	e431                	bnez	s0,200113b0 <_malloc_r+0x7c>
20011366:	5ffef797          	auipc	a5,0x5ffef
2001136a:	77278793          	addi	a5,a5,1906 # 80000ad8 <__malloc_sbrk_start>
2001136e:	439c                	lw	a5,0(a5)
20011370:	eb81                	bnez	a5,20011380 <_malloc_r+0x4c>
20011372:	4581                	li	a1,0
20011374:	854a                	mv	a0,s2
20011376:	2645                	jal	20011716 <_sbrk_r>
20011378:	5ffef797          	auipc	a5,0x5ffef
2001137c:	76a7a023          	sw	a0,1888(a5) # 80000ad8 <__malloc_sbrk_start>
20011380:	85a6                	mv	a1,s1
20011382:	854a                	mv	a0,s2
20011384:	2e49                	jal	20011716 <_sbrk_r>
20011386:	59fd                	li	s3,-1
20011388:	07351963          	bne	a0,s3,200113fa <_malloc_r+0xc6>
2001138c:	47b1                	li	a5,12
2001138e:	00f92023          	sw	a5,0(s2)
20011392:	854a                	mv	a0,s2
20011394:	2bb9                	jal	200118f2 <__malloc_unlock>
20011396:	a029                	j	200113a0 <_malloc_r+0x6c>
20011398:	fa04dce3          	bgez	s1,20011350 <_malloc_r+0x1c>
2001139c:	47b1                	li	a5,12
2001139e:	c11c                	sw	a5,0(a0)
200113a0:	4501                	li	a0,0
200113a2:	40f2                	lw	ra,28(sp)
200113a4:	4462                	lw	s0,24(sp)
200113a6:	44d2                	lw	s1,20(sp)
200113a8:	4942                	lw	s2,16(sp)
200113aa:	49b2                	lw	s3,12(sp)
200113ac:	6105                	addi	sp,sp,32
200113ae:	8082                	ret
200113b0:	401c                	lw	a5,0(s0)
200113b2:	8f85                	sub	a5,a5,s1
200113b4:	0407c063          	bltz	a5,200113f4 <_malloc_r+0xc0>
200113b8:	46ad                	li	a3,11
200113ba:	00f6f663          	bgeu	a3,a5,200113c6 <_malloc_r+0x92>
200113be:	c01c                	sw	a5,0(s0)
200113c0:	943e                	add	s0,s0,a5
200113c2:	c004                	sw	s1,0(s0)
200113c4:	a801                	j	200113d4 <_malloc_r+0xa0>
200113c6:	405c                	lw	a5,4(s0)
200113c8:	02871463          	bne	a4,s0,200113f0 <_malloc_r+0xbc>
200113cc:	5ffef717          	auipc	a4,0x5ffef
200113d0:	70f72423          	sw	a5,1800(a4) # 80000ad4 <__malloc_free_list>
200113d4:	854a                	mv	a0,s2
200113d6:	2b31                	jal	200118f2 <__malloc_unlock>
200113d8:	00b40513          	addi	a0,s0,11
200113dc:	00440793          	addi	a5,s0,4
200113e0:	9961                	andi	a0,a0,-8
200113e2:	40f50733          	sub	a4,a0,a5
200113e6:	df55                	beqz	a4,200113a2 <_malloc_r+0x6e>
200113e8:	943a                	add	s0,s0,a4
200113ea:	8f89                	sub	a5,a5,a0
200113ec:	c01c                	sw	a5,0(s0)
200113ee:	bf55                	j	200113a2 <_malloc_r+0x6e>
200113f0:	c35c                	sw	a5,4(a4)
200113f2:	b7cd                	j	200113d4 <_malloc_r+0xa0>
200113f4:	8722                	mv	a4,s0
200113f6:	4040                	lw	s0,4(s0)
200113f8:	b7b5                	j	20011364 <_malloc_r+0x30>
200113fa:	00350413          	addi	s0,a0,3
200113fe:	9871                	andi	s0,s0,-4
20011400:	fc8501e3          	beq	a0,s0,200113c2 <_malloc_r+0x8e>
20011404:	40a405b3          	sub	a1,s0,a0
20011408:	854a                	mv	a0,s2
2001140a:	2631                	jal	20011716 <_sbrk_r>
2001140c:	fb351be3          	bne	a0,s3,200113c2 <_malloc_r+0x8e>
20011410:	bfb5                	j	2001138c <_malloc_r+0x58>

20011412 <__sfputc_r>:
__sfputc_r():
20011412:	461c                	lw	a5,8(a2)
20011414:	17fd                	addi	a5,a5,-1
20011416:	c61c                	sw	a5,8(a2)
20011418:	0007da63          	bgez	a5,2001142c <__sfputc_r+0x1a>
2001141c:	4e18                	lw	a4,24(a2)
2001141e:	00e7c563          	blt	a5,a4,20011428 <__sfputc_r+0x16>
20011422:	47a9                	li	a5,10
20011424:	00f59463          	bne	a1,a5,2001142c <__sfputc_r+0x1a>
20011428:	f96ff06f          	j	20010bbe <__swbuf_r>
2001142c:	421c                	lw	a5,0(a2)
2001142e:	852e                	mv	a0,a1
20011430:	00178713          	addi	a4,a5,1
20011434:	c218                	sw	a4,0(a2)
20011436:	00b78023          	sb	a1,0(a5)
2001143a:	8082                	ret

2001143c <__sfputs_r>:
__sfputs_r():
2001143c:	1101                	addi	sp,sp,-32
2001143e:	cc22                	sw	s0,24(sp)
20011440:	ca26                	sw	s1,20(sp)
20011442:	c84a                	sw	s2,16(sp)
20011444:	c64e                	sw	s3,12(sp)
20011446:	c452                	sw	s4,8(sp)
20011448:	ce06                	sw	ra,28(sp)
2001144a:	892a                	mv	s2,a0
2001144c:	89ae                	mv	s3,a1
2001144e:	8432                	mv	s0,a2
20011450:	00d604b3          	add	s1,a2,a3
20011454:	5a7d                	li	s4,-1
20011456:	00941463          	bne	s0,s1,2001145e <__sfputs_r+0x22>
2001145a:	4501                	li	a0,0
2001145c:	a809                	j	2001146e <__sfputs_r+0x32>
2001145e:	00044583          	lbu	a1,0(s0)
20011462:	864e                	mv	a2,s3
20011464:	854a                	mv	a0,s2
20011466:	3775                	jal	20011412 <__sfputc_r>
20011468:	0405                	addi	s0,s0,1
2001146a:	ff4516e3          	bne	a0,s4,20011456 <__sfputs_r+0x1a>
2001146e:	40f2                	lw	ra,28(sp)
20011470:	4462                	lw	s0,24(sp)
20011472:	44d2                	lw	s1,20(sp)
20011474:	4942                	lw	s2,16(sp)
20011476:	49b2                	lw	s3,12(sp)
20011478:	4a22                	lw	s4,8(sp)
2001147a:	6105                	addi	sp,sp,32
2001147c:	8082                	ret

2001147e <_vfiprintf_r>:
_vfiprintf_r():
2001147e:	7135                	addi	sp,sp,-160
20011480:	cd22                	sw	s0,152(sp)
20011482:	cb26                	sw	s1,148(sp)
20011484:	c94a                	sw	s2,144(sp)
20011486:	c74e                	sw	s3,140(sp)
20011488:	cf06                	sw	ra,156(sp)
2001148a:	c552                	sw	s4,136(sp)
2001148c:	c356                	sw	s5,132(sp)
2001148e:	c15a                	sw	s6,128(sp)
20011490:	dede                	sw	s7,124(sp)
20011492:	dce2                	sw	s8,120(sp)
20011494:	dae6                	sw	s9,116(sp)
20011496:	89aa                	mv	s3,a0
20011498:	84ae                	mv	s1,a1
2001149a:	8932                	mv	s2,a2
2001149c:	8436                	mv	s0,a3
2001149e:	c501                	beqz	a0,200114a6 <_vfiprintf_r+0x28>
200114a0:	4d1c                	lw	a5,24(a0)
200114a2:	e391                	bnez	a5,200114a6 <_vfiprintf_r+0x28>
200114a4:	36b9                	jal	20010ff2 <__sinit>
200114a6:	00006797          	auipc	a5,0x6
200114aa:	aba78793          	addi	a5,a5,-1350 # 20016f60 <__sf_fake_stdin>
200114ae:	0cf49b63          	bne	s1,a5,20011584 <_vfiprintf_r+0x106>
200114b2:	0049a483          	lw	s1,4(s3)
200114b6:	00c4d783          	lhu	a5,12(s1)
200114ba:	8ba1                	andi	a5,a5,8
200114bc:	c7f5                	beqz	a5,200115a8 <_vfiprintf_r+0x12a>
200114be:	489c                	lw	a5,16(s1)
200114c0:	c7e5                	beqz	a5,200115a8 <_vfiprintf_r+0x12a>
200114c2:	02000793          	li	a5,32
200114c6:	02f104a3          	sb	a5,41(sp)
200114ca:	03000793          	li	a5,48
200114ce:	d202                	sw	zero,36(sp)
200114d0:	02f10523          	sb	a5,42(sp)
200114d4:	c622                	sw	s0,12(sp)
200114d6:	02500b93          	li	s7,37
200114da:	00006a97          	auipc	s5,0x6
200114de:	ac6a8a93          	addi	s5,s5,-1338 # 20016fa0 <__sf_fake_stdout+0x20>
200114e2:	4c05                	li	s8,1
200114e4:	4b29                	li	s6,10
200114e6:	844a                	mv	s0,s2
200114e8:	00044783          	lbu	a5,0(s0)
200114ec:	c399                	beqz	a5,200114f2 <_vfiprintf_r+0x74>
200114ee:	0f779063          	bne	a5,s7,200115ce <_vfiprintf_r+0x150>
200114f2:	41240cb3          	sub	s9,s0,s2
200114f6:	000c8d63          	beqz	s9,20011510 <_vfiprintf_r+0x92>
200114fa:	86e6                	mv	a3,s9
200114fc:	864a                	mv	a2,s2
200114fe:	85a6                	mv	a1,s1
20011500:	854e                	mv	a0,s3
20011502:	3f2d                	jal	2001143c <__sfputs_r>
20011504:	57fd                	li	a5,-1
20011506:	1ef50663          	beq	a0,a5,200116f2 <_vfiprintf_r+0x274>
2001150a:	5692                	lw	a3,36(sp)
2001150c:	96e6                	add	a3,a3,s9
2001150e:	d236                	sw	a3,36(sp)
20011510:	00044783          	lbu	a5,0(s0)
20011514:	1c078f63          	beqz	a5,200116f2 <_vfiprintf_r+0x274>
20011518:	57fd                	li	a5,-1
2001151a:	00140913          	addi	s2,s0,1
2001151e:	c802                	sw	zero,16(sp)
20011520:	ce02                	sw	zero,28(sp)
20011522:	ca3e                	sw	a5,20(sp)
20011524:	cc02                	sw	zero,24(sp)
20011526:	040109a3          	sb	zero,83(sp)
2001152a:	d482                	sw	zero,104(sp)
2001152c:	00094583          	lbu	a1,0(s2)
20011530:	4615                	li	a2,5
20011532:	8556                	mv	a0,s5
20011534:	264d                	jal	200118d6 <memchr>
20011536:	00190413          	addi	s0,s2,1
2001153a:	47c2                	lw	a5,16(sp)
2001153c:	e959                	bnez	a0,200115d2 <_vfiprintf_r+0x154>
2001153e:	0107f713          	andi	a4,a5,16
20011542:	c709                	beqz	a4,2001154c <_vfiprintf_r+0xce>
20011544:	02000713          	li	a4,32
20011548:	04e109a3          	sb	a4,83(sp)
2001154c:	0087f713          	andi	a4,a5,8
20011550:	c709                	beqz	a4,2001155a <_vfiprintf_r+0xdc>
20011552:	02b00713          	li	a4,43
20011556:	04e109a3          	sb	a4,83(sp)
2001155a:	00094683          	lbu	a3,0(s2)
2001155e:	02a00713          	li	a4,42
20011562:	08e68063          	beq	a3,a4,200115e2 <_vfiprintf_r+0x164>
20011566:	47f2                	lw	a5,28(sp)
20011568:	844a                	mv	s0,s2
2001156a:	4681                	li	a3,0
2001156c:	4625                	li	a2,9
2001156e:	00044703          	lbu	a4,0(s0)
20011572:	00140593          	addi	a1,s0,1
20011576:	fd070713          	addi	a4,a4,-48
2001157a:	0ae67963          	bgeu	a2,a4,2001162c <_vfiprintf_r+0x1ae>
2001157e:	cab5                	beqz	a3,200115f2 <_vfiprintf_r+0x174>
20011580:	ce3e                	sw	a5,28(sp)
20011582:	a885                	j	200115f2 <_vfiprintf_r+0x174>
20011584:	00006797          	auipc	a5,0x6
20011588:	9fc78793          	addi	a5,a5,-1540 # 20016f80 <__sf_fake_stdout>
2001158c:	00f49563          	bne	s1,a5,20011596 <_vfiprintf_r+0x118>
20011590:	0089a483          	lw	s1,8(s3)
20011594:	b70d                	j	200114b6 <_vfiprintf_r+0x38>
20011596:	00006797          	auipc	a5,0x6
2001159a:	9aa78793          	addi	a5,a5,-1622 # 20016f40 <__sf_fake_stderr>
2001159e:	f0f49ce3          	bne	s1,a5,200114b6 <_vfiprintf_r+0x38>
200115a2:	00c9a483          	lw	s1,12(s3)
200115a6:	bf01                	j	200114b6 <_vfiprintf_r+0x38>
200115a8:	85a6                	mv	a1,s1
200115aa:	854e                	mv	a0,s3
200115ac:	ed2ff0ef          	jal	ra,20010c7e <__swsetup_r>
200115b0:	d909                	beqz	a0,200114c2 <_vfiprintf_r+0x44>
200115b2:	557d                	li	a0,-1
200115b4:	40fa                	lw	ra,156(sp)
200115b6:	446a                	lw	s0,152(sp)
200115b8:	44da                	lw	s1,148(sp)
200115ba:	494a                	lw	s2,144(sp)
200115bc:	49ba                	lw	s3,140(sp)
200115be:	4a2a                	lw	s4,136(sp)
200115c0:	4a9a                	lw	s5,132(sp)
200115c2:	4b0a                	lw	s6,128(sp)
200115c4:	5bf6                	lw	s7,124(sp)
200115c6:	5c66                	lw	s8,120(sp)
200115c8:	5cd6                	lw	s9,116(sp)
200115ca:	610d                	addi	sp,sp,160
200115cc:	8082                	ret
200115ce:	0405                	addi	s0,s0,1
200115d0:	bf21                	j	200114e8 <_vfiprintf_r+0x6a>
200115d2:	41550533          	sub	a0,a0,s5
200115d6:	00ac1533          	sll	a0,s8,a0
200115da:	8fc9                	or	a5,a5,a0
200115dc:	c83e                	sw	a5,16(sp)
200115de:	8922                	mv	s2,s0
200115e0:	b7b1                	j	2001152c <_vfiprintf_r+0xae>
200115e2:	4732                	lw	a4,12(sp)
200115e4:	00470693          	addi	a3,a4,4
200115e8:	4318                	lw	a4,0(a4)
200115ea:	c636                	sw	a3,12(sp)
200115ec:	02074963          	bltz	a4,2001161e <_vfiprintf_r+0x1a0>
200115f0:	ce3a                	sw	a4,28(sp)
200115f2:	00044703          	lbu	a4,0(s0)
200115f6:	02e00793          	li	a5,46
200115fa:	04f71f63          	bne	a4,a5,20011658 <_vfiprintf_r+0x1da>
200115fe:	00144703          	lbu	a4,1(s0)
20011602:	02a00793          	li	a5,42
20011606:	02f71b63          	bne	a4,a5,2001163c <_vfiprintf_r+0x1be>
2001160a:	47b2                	lw	a5,12(sp)
2001160c:	0409                	addi	s0,s0,2
2001160e:	00478713          	addi	a4,a5,4
20011612:	439c                	lw	a5,0(a5)
20011614:	c63a                	sw	a4,12(sp)
20011616:	0207c163          	bltz	a5,20011638 <_vfiprintf_r+0x1ba>
2001161a:	ca3e                	sw	a5,20(sp)
2001161c:	a835                	j	20011658 <_vfiprintf_r+0x1da>
2001161e:	40e00733          	neg	a4,a4
20011622:	0027e793          	ori	a5,a5,2
20011626:	ce3a                	sw	a4,28(sp)
20011628:	c83e                	sw	a5,16(sp)
2001162a:	b7e1                	j	200115f2 <_vfiprintf_r+0x174>
2001162c:	036787b3          	mul	a5,a5,s6
20011630:	4685                	li	a3,1
20011632:	842e                	mv	s0,a1
20011634:	97ba                	add	a5,a5,a4
20011636:	bf25                	j	2001156e <_vfiprintf_r+0xf0>
20011638:	57fd                	li	a5,-1
2001163a:	b7c5                	j	2001161a <_vfiprintf_r+0x19c>
2001163c:	0405                	addi	s0,s0,1
2001163e:	ca02                	sw	zero,20(sp)
20011640:	4681                	li	a3,0
20011642:	4781                	li	a5,0
20011644:	4625                	li	a2,9
20011646:	00044703          	lbu	a4,0(s0)
2001164a:	00140593          	addi	a1,s0,1
2001164e:	fd070713          	addi	a4,a4,-48
20011652:	06e67663          	bgeu	a2,a4,200116be <_vfiprintf_r+0x240>
20011656:	f2f1                	bnez	a3,2001161a <_vfiprintf_r+0x19c>
20011658:	00044583          	lbu	a1,0(s0)
2001165c:	460d                	li	a2,3
2001165e:	00006517          	auipc	a0,0x6
20011662:	94a50513          	addi	a0,a0,-1718 # 20016fa8 <__sf_fake_stdout+0x28>
20011666:	2c85                	jal	200118d6 <memchr>
20011668:	cd11                	beqz	a0,20011684 <_vfiprintf_r+0x206>
2001166a:	00006797          	auipc	a5,0x6
2001166e:	93e78793          	addi	a5,a5,-1730 # 20016fa8 <__sf_fake_stdout+0x28>
20011672:	8d1d                	sub	a0,a0,a5
20011674:	04000793          	li	a5,64
20011678:	00a797b3          	sll	a5,a5,a0
2001167c:	4542                	lw	a0,16(sp)
2001167e:	0405                	addi	s0,s0,1
20011680:	8d5d                	or	a0,a0,a5
20011682:	c82a                	sw	a0,16(sp)
20011684:	00044583          	lbu	a1,0(s0)
20011688:	4619                	li	a2,6
2001168a:	00006517          	auipc	a0,0x6
2001168e:	92250513          	addi	a0,a0,-1758 # 20016fac <__sf_fake_stdout+0x2c>
20011692:	00140913          	addi	s2,s0,1
20011696:	02b10423          	sb	a1,40(sp)
2001169a:	2c35                	jal	200118d6 <memchr>
2001169c:	c13d                	beqz	a0,20011702 <_vfiprintf_r+0x284>
2001169e:	dffef797          	auipc	a5,0xdffef
200116a2:	96278793          	addi	a5,a5,-1694 # 0 <__metal_boot_hart>
200116a6:	e795                	bnez	a5,200116d2 <_vfiprintf_r+0x254>
200116a8:	4742                	lw	a4,16(sp)
200116aa:	47b2                	lw	a5,12(sp)
200116ac:	10077713          	andi	a4,a4,256
200116b0:	cf09                	beqz	a4,200116ca <_vfiprintf_r+0x24c>
200116b2:	0791                	addi	a5,a5,4
200116b4:	c63e                	sw	a5,12(sp)
200116b6:	5792                	lw	a5,36(sp)
200116b8:	97d2                	add	a5,a5,s4
200116ba:	d23e                	sw	a5,36(sp)
200116bc:	b52d                	j	200114e6 <_vfiprintf_r+0x68>
200116be:	036787b3          	mul	a5,a5,s6
200116c2:	4685                	li	a3,1
200116c4:	842e                	mv	s0,a1
200116c6:	97ba                	add	a5,a5,a4
200116c8:	bfbd                	j	20011646 <_vfiprintf_r+0x1c8>
200116ca:	079d                	addi	a5,a5,7
200116cc:	9be1                	andi	a5,a5,-8
200116ce:	07a1                	addi	a5,a5,8
200116d0:	b7d5                	j	200116b4 <_vfiprintf_r+0x236>
200116d2:	0078                	addi	a4,sp,12
200116d4:	00000697          	auipc	a3,0x0
200116d8:	d6868693          	addi	a3,a3,-664 # 2001143c <__sfputs_r>
200116dc:	8626                	mv	a2,s1
200116de:	080c                	addi	a1,sp,16
200116e0:	854e                	mv	a0,s3
200116e2:	00000097          	auipc	ra,0x0
200116e6:	000000e7          	jalr	zero # 0 <__metal_boot_hart>
200116ea:	57fd                	li	a5,-1
200116ec:	8a2a                	mv	s4,a0
200116ee:	fcf514e3          	bne	a0,a5,200116b6 <_vfiprintf_r+0x238>
200116f2:	00c4d783          	lhu	a5,12(s1)
200116f6:	0407f793          	andi	a5,a5,64
200116fa:	ea079ce3          	bnez	a5,200115b2 <_vfiprintf_r+0x134>
200116fe:	5512                	lw	a0,36(sp)
20011700:	bd55                	j	200115b4 <_vfiprintf_r+0x136>
20011702:	0078                	addi	a4,sp,12
20011704:	00000697          	auipc	a3,0x0
20011708:	d3868693          	addi	a3,a3,-712 # 2001143c <__sfputs_r>
2001170c:	8626                	mv	a2,s1
2001170e:	080c                	addi	a1,sp,16
20011710:	854e                	mv	a0,s3
20011712:	24fd                	jal	20011a00 <_printf_i>
20011714:	bfd9                	j	200116ea <_vfiprintf_r+0x26c>

20011716 <_sbrk_r>:
_sbrk_r():
20011716:	1141                	addi	sp,sp,-16
20011718:	c422                	sw	s0,8(sp)
2001171a:	842a                	mv	s0,a0
2001171c:	852e                	mv	a0,a1
2001171e:	8e01a223          	sw	zero,-1820(gp) # 80000b6c <errno>
20011722:	c606                	sw	ra,12(sp)
20011724:	443040ef          	jal	ra,20016366 <_sbrk>
20011728:	57fd                	li	a5,-1
2001172a:	00f51763          	bne	a0,a5,20011738 <_sbrk_r+0x22>
2001172e:	8e418793          	addi	a5,gp,-1820 # 80000b6c <errno>
20011732:	439c                	lw	a5,0(a5)
20011734:	c391                	beqz	a5,20011738 <_sbrk_r+0x22>
20011736:	c01c                	sw	a5,0(s0)
20011738:	40b2                	lw	ra,12(sp)
2001173a:	4422                	lw	s0,8(sp)
2001173c:	0141                	addi	sp,sp,16
2001173e:	8082                	ret

20011740 <__sread>:
__sread():
20011740:	1141                	addi	sp,sp,-16
20011742:	c422                	sw	s0,8(sp)
20011744:	842e                	mv	s0,a1
20011746:	00e59583          	lh	a1,14(a1)
2001174a:	c606                	sw	ra,12(sp)
2001174c:	2b99                	jal	20011ca2 <_read_r>
2001174e:	00054963          	bltz	a0,20011760 <__sread+0x20>
20011752:	487c                	lw	a5,84(s0)
20011754:	97aa                	add	a5,a5,a0
20011756:	c87c                	sw	a5,84(s0)
20011758:	40b2                	lw	ra,12(sp)
2001175a:	4422                	lw	s0,8(sp)
2001175c:	0141                	addi	sp,sp,16
2001175e:	8082                	ret
20011760:	00c45783          	lhu	a5,12(s0)
20011764:	777d                	lui	a4,0xfffff
20011766:	177d                	addi	a4,a4,-1
20011768:	8ff9                	and	a5,a5,a4
2001176a:	00f41623          	sh	a5,12(s0)
2001176e:	b7ed                	j	20011758 <__sread+0x18>

20011770 <__swrite>:
__swrite():
20011770:	00c5d783          	lhu	a5,12(a1)
20011774:	1101                	addi	sp,sp,-32
20011776:	cc22                	sw	s0,24(sp)
20011778:	ca26                	sw	s1,20(sp)
2001177a:	c84a                	sw	s2,16(sp)
2001177c:	c64e                	sw	s3,12(sp)
2001177e:	ce06                	sw	ra,28(sp)
20011780:	1007f793          	andi	a5,a5,256
20011784:	84aa                	mv	s1,a0
20011786:	842e                	mv	s0,a1
20011788:	8932                	mv	s2,a2
2001178a:	89b6                	mv	s3,a3
2001178c:	c791                	beqz	a5,20011798 <__swrite+0x28>
2001178e:	00e59583          	lh	a1,14(a1)
20011792:	4689                	li	a3,2
20011794:	4601                	li	a2,0
20011796:	2a09                	jal	200118a8 <_lseek_r>
20011798:	00c45783          	lhu	a5,12(s0)
2001179c:	777d                	lui	a4,0xfffff
2001179e:	177d                	addi	a4,a4,-1
200117a0:	8ff9                	and	a5,a5,a4
200117a2:	00f41623          	sh	a5,12(s0)
200117a6:	00e41583          	lh	a1,14(s0)
200117aa:	4462                	lw	s0,24(sp)
200117ac:	40f2                	lw	ra,28(sp)
200117ae:	86ce                	mv	a3,s3
200117b0:	864a                	mv	a2,s2
200117b2:	49b2                	lw	s3,12(sp)
200117b4:	4942                	lw	s2,16(sp)
200117b6:	8526                	mv	a0,s1
200117b8:	44d2                	lw	s1,20(sp)
200117ba:	6105                	addi	sp,sp,32
200117bc:	a83d                	j	200117fa <_write_r>

200117be <__sseek>:
__sseek():
200117be:	1141                	addi	sp,sp,-16
200117c0:	c422                	sw	s0,8(sp)
200117c2:	842e                	mv	s0,a1
200117c4:	00e59583          	lh	a1,14(a1)
200117c8:	c606                	sw	ra,12(sp)
200117ca:	28f9                	jal	200118a8 <_lseek_r>
200117cc:	57fd                	li	a5,-1
200117ce:	00c45703          	lhu	a4,12(s0)
200117d2:	00f51b63          	bne	a0,a5,200117e8 <__sseek+0x2a>
200117d6:	77fd                	lui	a5,0xfffff
200117d8:	17fd                	addi	a5,a5,-1
200117da:	8ff9                	and	a5,a5,a4
200117dc:	00f41623          	sh	a5,12(s0)
200117e0:	40b2                	lw	ra,12(sp)
200117e2:	4422                	lw	s0,8(sp)
200117e4:	0141                	addi	sp,sp,16
200117e6:	8082                	ret
200117e8:	6785                	lui	a5,0x1
200117ea:	8fd9                	or	a5,a5,a4
200117ec:	00f41623          	sh	a5,12(s0)
200117f0:	c868                	sw	a0,84(s0)
200117f2:	b7fd                	j	200117e0 <__sseek+0x22>

200117f4 <__sclose>:
__sclose():
200117f4:	00e59583          	lh	a1,14(a1)
200117f8:	a805                	j	20011828 <_close_r>

200117fa <_write_r>:
_write_r():
200117fa:	1141                	addi	sp,sp,-16
200117fc:	c422                	sw	s0,8(sp)
200117fe:	842a                	mv	s0,a0
20011800:	852e                	mv	a0,a1
20011802:	85b2                	mv	a1,a2
20011804:	8636                	mv	a2,a3
20011806:	8e01a223          	sw	zero,-1820(gp) # 80000b6c <errno>
2001180a:	c606                	sw	ra,12(sp)
2001180c:	3b5040ef          	jal	ra,200163c0 <_write>
20011810:	57fd                	li	a5,-1
20011812:	00f51763          	bne	a0,a5,20011820 <_write_r+0x26>
20011816:	8e418793          	addi	a5,gp,-1820 # 80000b6c <errno>
2001181a:	439c                	lw	a5,0(a5)
2001181c:	c391                	beqz	a5,20011820 <_write_r+0x26>
2001181e:	c01c                	sw	a5,0(s0)
20011820:	40b2                	lw	ra,12(sp)
20011822:	4422                	lw	s0,8(sp)
20011824:	0141                	addi	sp,sp,16
20011826:	8082                	ret

20011828 <_close_r>:
_close_r():
20011828:	1141                	addi	sp,sp,-16
2001182a:	c422                	sw	s0,8(sp)
2001182c:	842a                	mv	s0,a0
2001182e:	852e                	mv	a0,a1
20011830:	8e01a223          	sw	zero,-1820(gp) # 80000b6c <errno>
20011834:	c606                	sw	ra,12(sp)
20011836:	18f040ef          	jal	ra,200161c4 <_close>
2001183a:	57fd                	li	a5,-1
2001183c:	00f51763          	bne	a0,a5,2001184a <_close_r+0x22>
20011840:	8e418793          	addi	a5,gp,-1820 # 80000b6c <errno>
20011844:	439c                	lw	a5,0(a5)
20011846:	c391                	beqz	a5,2001184a <_close_r+0x22>
20011848:	c01c                	sw	a5,0(s0)
2001184a:	40b2                	lw	ra,12(sp)
2001184c:	4422                	lw	s0,8(sp)
2001184e:	0141                	addi	sp,sp,16
20011850:	8082                	ret

20011852 <_fstat_r>:
_fstat_r():
20011852:	1141                	addi	sp,sp,-16
20011854:	c422                	sw	s0,8(sp)
20011856:	842a                	mv	s0,a0
20011858:	852e                	mv	a0,a1
2001185a:	85b2                	mv	a1,a2
2001185c:	8e01a223          	sw	zero,-1820(gp) # 80000b6c <errno>
20011860:	c606                	sw	ra,12(sp)
20011862:	185040ef          	jal	ra,200161e6 <_fstat>
20011866:	57fd                	li	a5,-1
20011868:	00f51763          	bne	a0,a5,20011876 <_fstat_r+0x24>
2001186c:	8e418793          	addi	a5,gp,-1820 # 80000b6c <errno>
20011870:	439c                	lw	a5,0(a5)
20011872:	c391                	beqz	a5,20011876 <_fstat_r+0x24>
20011874:	c01c                	sw	a5,0(s0)
20011876:	40b2                	lw	ra,12(sp)
20011878:	4422                	lw	s0,8(sp)
2001187a:	0141                	addi	sp,sp,16
2001187c:	8082                	ret

2001187e <_isatty_r>:
_isatty_r():
2001187e:	1141                	addi	sp,sp,-16
20011880:	c422                	sw	s0,8(sp)
20011882:	842a                	mv	s0,a0
20011884:	852e                	mv	a0,a1
20011886:	8e01a223          	sw	zero,-1820(gp) # 80000b6c <errno>
2001188a:	c606                	sw	ra,12(sp)
2001188c:	267040ef          	jal	ra,200162f2 <_isatty>
20011890:	57fd                	li	a5,-1
20011892:	00f51763          	bne	a0,a5,200118a0 <_isatty_r+0x22>
20011896:	8e418793          	addi	a5,gp,-1820 # 80000b6c <errno>
2001189a:	439c                	lw	a5,0(a5)
2001189c:	c391                	beqz	a5,200118a0 <_isatty_r+0x22>
2001189e:	c01c                	sw	a5,0(s0)
200118a0:	40b2                	lw	ra,12(sp)
200118a2:	4422                	lw	s0,8(sp)
200118a4:	0141                	addi	sp,sp,16
200118a6:	8082                	ret

200118a8 <_lseek_r>:
_lseek_r():
200118a8:	1141                	addi	sp,sp,-16
200118aa:	c422                	sw	s0,8(sp)
200118ac:	842a                	mv	s0,a0
200118ae:	852e                	mv	a0,a1
200118b0:	85b2                	mv	a1,a2
200118b2:	8636                	mv	a2,a3
200118b4:	8e01a223          	sw	zero,-1820(gp) # 80000b6c <errno>
200118b8:	c606                	sw	ra,12(sp)
200118ba:	259040ef          	jal	ra,20016312 <_lseek>
200118be:	57fd                	li	a5,-1
200118c0:	00f51763          	bne	a0,a5,200118ce <_lseek_r+0x26>
200118c4:	8e418793          	addi	a5,gp,-1820 # 80000b6c <errno>
200118c8:	439c                	lw	a5,0(a5)
200118ca:	c391                	beqz	a5,200118ce <_lseek_r+0x26>
200118cc:	c01c                	sw	a5,0(s0)
200118ce:	40b2                	lw	ra,12(sp)
200118d0:	4422                	lw	s0,8(sp)
200118d2:	0141                	addi	sp,sp,16
200118d4:	8082                	ret

200118d6 <memchr>:
memchr():
200118d6:	0ff5f593          	andi	a1,a1,255
200118da:	962a                	add	a2,a2,a0
200118dc:	00c51463          	bne	a0,a2,200118e4 <memchr+0xe>
200118e0:	4501                	li	a0,0
200118e2:	8082                	ret
200118e4:	00054783          	lbu	a5,0(a0)
200118e8:	feb78de3          	beq	a5,a1,200118e2 <memchr+0xc>
200118ec:	0505                	addi	a0,a0,1
200118ee:	b7fd                	j	200118dc <memchr+0x6>

200118f0 <__malloc_lock>:
__malloc_lock():
200118f0:	8082                	ret

200118f2 <__malloc_unlock>:
__malloc_unlock():
200118f2:	8082                	ret

200118f4 <_printf_common>:
_printf_common():
200118f4:	7179                	addi	sp,sp,-48
200118f6:	ca56                	sw	s5,20(sp)
200118f8:	499c                	lw	a5,16(a1)
200118fa:	8aba                	mv	s5,a4
200118fc:	4598                	lw	a4,8(a1)
200118fe:	d422                	sw	s0,40(sp)
20011900:	d226                	sw	s1,36(sp)
20011902:	ce4e                	sw	s3,28(sp)
20011904:	cc52                	sw	s4,24(sp)
20011906:	d606                	sw	ra,44(sp)
20011908:	d04a                	sw	s2,32(sp)
2001190a:	c85a                	sw	s6,16(sp)
2001190c:	c65e                	sw	s7,12(sp)
2001190e:	89aa                	mv	s3,a0
20011910:	842e                	mv	s0,a1
20011912:	84b2                	mv	s1,a2
20011914:	8a36                	mv	s4,a3
20011916:	00e7d363          	bge	a5,a4,2001191c <_printf_common+0x28>
2001191a:	87ba                	mv	a5,a4
2001191c:	c09c                	sw	a5,0(s1)
2001191e:	04344703          	lbu	a4,67(s0)
20011922:	c319                	beqz	a4,20011928 <_printf_common+0x34>
20011924:	0785                	addi	a5,a5,1
20011926:	c09c                	sw	a5,0(s1)
20011928:	401c                	lw	a5,0(s0)
2001192a:	0207f793          	andi	a5,a5,32
2001192e:	c781                	beqz	a5,20011936 <_printf_common+0x42>
20011930:	409c                	lw	a5,0(s1)
20011932:	0789                	addi	a5,a5,2
20011934:	c09c                	sw	a5,0(s1)
20011936:	00042903          	lw	s2,0(s0)
2001193a:	00697913          	andi	s2,s2,6
2001193e:	00091a63          	bnez	s2,20011952 <_printf_common+0x5e>
20011942:	01940b13          	addi	s6,s0,25
20011946:	5bfd                	li	s7,-1
20011948:	445c                	lw	a5,12(s0)
2001194a:	4098                	lw	a4,0(s1)
2001194c:	8f99                	sub	a5,a5,a4
2001194e:	04f94c63          	blt	s2,a5,200119a6 <_printf_common+0xb2>
20011952:	401c                	lw	a5,0(s0)
20011954:	04344683          	lbu	a3,67(s0)
20011958:	0207f793          	andi	a5,a5,32
2001195c:	00d036b3          	snez	a3,a3
20011960:	eba5                	bnez	a5,200119d0 <_printf_common+0xdc>
20011962:	04340613          	addi	a2,s0,67
20011966:	85d2                	mv	a1,s4
20011968:	854e                	mv	a0,s3
2001196a:	9a82                	jalr	s5
2001196c:	57fd                	li	a5,-1
2001196e:	04f50363          	beq	a0,a5,200119b4 <_printf_common+0xc0>
20011972:	401c                	lw	a5,0(s0)
20011974:	4611                	li	a2,4
20011976:	4098                	lw	a4,0(s1)
20011978:	8b99                	andi	a5,a5,6
2001197a:	4454                	lw	a3,12(s0)
2001197c:	4481                	li	s1,0
2001197e:	00c79763          	bne	a5,a2,2001198c <_printf_common+0x98>
20011982:	40e684b3          	sub	s1,a3,a4
20011986:	0004d363          	bgez	s1,2001198c <_printf_common+0x98>
2001198a:	4481                	li	s1,0
2001198c:	441c                	lw	a5,8(s0)
2001198e:	4818                	lw	a4,16(s0)
20011990:	00f75463          	bge	a4,a5,20011998 <_printf_common+0xa4>
20011994:	8f99                	sub	a5,a5,a4
20011996:	94be                	add	s1,s1,a5
20011998:	4901                	li	s2,0
2001199a:	0469                	addi	s0,s0,26
2001199c:	5b7d                	li	s6,-1
2001199e:	05249863          	bne	s1,s2,200119ee <_printf_common+0xfa>
200119a2:	4501                	li	a0,0
200119a4:	a809                	j	200119b6 <_printf_common+0xc2>
200119a6:	4685                	li	a3,1
200119a8:	865a                	mv	a2,s6
200119aa:	85d2                	mv	a1,s4
200119ac:	854e                	mv	a0,s3
200119ae:	9a82                	jalr	s5
200119b0:	01751e63          	bne	a0,s7,200119cc <_printf_common+0xd8>
200119b4:	557d                	li	a0,-1
200119b6:	50b2                	lw	ra,44(sp)
200119b8:	5422                	lw	s0,40(sp)
200119ba:	5492                	lw	s1,36(sp)
200119bc:	5902                	lw	s2,32(sp)
200119be:	49f2                	lw	s3,28(sp)
200119c0:	4a62                	lw	s4,24(sp)
200119c2:	4ad2                	lw	s5,20(sp)
200119c4:	4b42                	lw	s6,16(sp)
200119c6:	4bb2                	lw	s7,12(sp)
200119c8:	6145                	addi	sp,sp,48
200119ca:	8082                	ret
200119cc:	0905                	addi	s2,s2,1
200119ce:	bfad                	j	20011948 <_printf_common+0x54>
200119d0:	00d40733          	add	a4,s0,a3
200119d4:	03000613          	li	a2,48
200119d8:	04c701a3          	sb	a2,67(a4) # fffff043 <metal_segment_heap_target_end+0x7fffd8d3>
200119dc:	04544703          	lbu	a4,69(s0)
200119e0:	00168793          	addi	a5,a3,1
200119e4:	97a2                	add	a5,a5,s0
200119e6:	0689                	addi	a3,a3,2
200119e8:	04e781a3          	sb	a4,67(a5) # 1043 <__heap_size+0x843>
200119ec:	bf9d                	j	20011962 <_printf_common+0x6e>
200119ee:	4685                	li	a3,1
200119f0:	8622                	mv	a2,s0
200119f2:	85d2                	mv	a1,s4
200119f4:	854e                	mv	a0,s3
200119f6:	9a82                	jalr	s5
200119f8:	fb650ee3          	beq	a0,s6,200119b4 <_printf_common+0xc0>
200119fc:	0905                	addi	s2,s2,1
200119fe:	b745                	j	2001199e <_printf_common+0xaa>

20011a00 <_printf_i>:
_printf_i():
20011a00:	7179                	addi	sp,sp,-48
20011a02:	d422                	sw	s0,40(sp)
20011a04:	d226                	sw	s1,36(sp)
20011a06:	d04a                	sw	s2,32(sp)
20011a08:	ce4e                	sw	s3,28(sp)
20011a0a:	d606                	sw	ra,44(sp)
20011a0c:	cc52                	sw	s4,24(sp)
20011a0e:	ca56                	sw	s5,20(sp)
20011a10:	c85a                	sw	s6,16(sp)
20011a12:	89b6                	mv	s3,a3
20011a14:	0185c683          	lbu	a3,24(a1)
20011a18:	06e00793          	li	a5,110
20011a1c:	8932                	mv	s2,a2
20011a1e:	84aa                	mv	s1,a0
20011a20:	842e                	mv	s0,a1
20011a22:	04358613          	addi	a2,a1,67
20011a26:	1ef68063          	beq	a3,a5,20011c06 <_printf_i+0x206>
20011a2a:	06d7e263          	bltu	a5,a3,20011a8e <_printf_i+0x8e>
20011a2e:	06300793          	li	a5,99
20011a32:	0af68263          	beq	a3,a5,20011ad6 <_printf_i+0xd6>
20011a36:	00d7ed63          	bltu	a5,a3,20011a50 <_printf_i+0x50>
20011a3a:	1e068a63          	beqz	a3,20011c2e <_printf_i+0x22e>
20011a3e:	05800793          	li	a5,88
20011a42:	16f68663          	beq	a3,a5,20011bae <_printf_i+0x1ae>
20011a46:	04240a93          	addi	s5,s0,66
20011a4a:	04d40123          	sb	a3,66(s0)
20011a4e:	a869                	j	20011ae8 <_printf_i+0xe8>
20011a50:	06400793          	li	a5,100
20011a54:	00f68663          	beq	a3,a5,20011a60 <_printf_i+0x60>
20011a58:	06900793          	li	a5,105
20011a5c:	fef695e3          	bne	a3,a5,20011a46 <_printf_i+0x46>
20011a60:	401c                	lw	a5,0(s0)
20011a62:	4308                	lw	a0,0(a4)
20011a64:	0807f693          	andi	a3,a5,128
20011a68:	00450593          	addi	a1,a0,4
20011a6c:	c2c1                	beqz	a3,20011aec <_printf_i+0xec>
20011a6e:	411c                	lw	a5,0(a0)
20011a70:	c30c                	sw	a1,0(a4)
20011a72:	0007d863          	bgez	a5,20011a82 <_printf_i+0x82>
20011a76:	02d00713          	li	a4,45
20011a7a:	40f007b3          	neg	a5,a5
20011a7e:	04e401a3          	sb	a4,67(s0)
20011a82:	00005697          	auipc	a3,0x5
20011a86:	53268693          	addi	a3,a3,1330 # 20016fb4 <__sf_fake_stdout+0x34>
20011a8a:	4729                	li	a4,10
20011a8c:	a065                	j	20011b34 <_printf_i+0x134>
20011a8e:	07300793          	li	a5,115
20011a92:	1af68263          	beq	a3,a5,20011c36 <_printf_i+0x236>
20011a96:	00d7ef63          	bltu	a5,a3,20011ab4 <_printf_i+0xb4>
20011a9a:	06f00793          	li	a5,111
20011a9e:	04f68f63          	beq	a3,a5,20011afc <_printf_i+0xfc>
20011aa2:	07000793          	li	a5,112
20011aa6:	faf690e3          	bne	a3,a5,20011a46 <_printf_i+0x46>
20011aaa:	419c                	lw	a5,0(a1)
20011aac:	0207e793          	ori	a5,a5,32
20011ab0:	c19c                	sw	a5,0(a1)
20011ab2:	a809                	j	20011ac4 <_printf_i+0xc4>
20011ab4:	07500793          	li	a5,117
20011ab8:	04f68263          	beq	a3,a5,20011afc <_printf_i+0xfc>
20011abc:	07800793          	li	a5,120
20011ac0:	f8f693e3          	bne	a3,a5,20011a46 <_printf_i+0x46>
20011ac4:	07800793          	li	a5,120
20011ac8:	04f402a3          	sb	a5,69(s0)
20011acc:	00005697          	auipc	a3,0x5
20011ad0:	4fc68693          	addi	a3,a3,1276 # 20016fc8 <__sf_fake_stdout+0x48>
20011ad4:	a0dd                	j	20011bba <_printf_i+0x1ba>
20011ad6:	431c                	lw	a5,0(a4)
20011ad8:	04258a93          	addi	s5,a1,66
20011adc:	00478693          	addi	a3,a5,4
20011ae0:	439c                	lw	a5,0(a5)
20011ae2:	c314                	sw	a3,0(a4)
20011ae4:	04f58123          	sb	a5,66(a1)
20011ae8:	4785                	li	a5,1
20011aea:	a2ad                	j	20011c54 <_printf_i+0x254>
20011aec:	0407f693          	andi	a3,a5,64
20011af0:	411c                	lw	a5,0(a0)
20011af2:	c30c                	sw	a1,0(a4)
20011af4:	debd                	beqz	a3,20011a72 <_printf_i+0x72>
20011af6:	07c2                	slli	a5,a5,0x10
20011af8:	87c1                	srai	a5,a5,0x10
20011afa:	bfa5                	j	20011a72 <_printf_i+0x72>
20011afc:	400c                	lw	a1,0(s0)
20011afe:	431c                	lw	a5,0(a4)
20011b00:	0805f813          	andi	a6,a1,128
20011b04:	00478513          	addi	a0,a5,4
20011b08:	00080563          	beqz	a6,20011b12 <_printf_i+0x112>
20011b0c:	c308                	sw	a0,0(a4)
20011b0e:	439c                	lw	a5,0(a5)
20011b10:	a039                	j	20011b1e <_printf_i+0x11e>
20011b12:	0405f593          	andi	a1,a1,64
20011b16:	c308                	sw	a0,0(a4)
20011b18:	d9fd                	beqz	a1,20011b0e <_printf_i+0x10e>
20011b1a:	0007d783          	lhu	a5,0(a5)
20011b1e:	06f00713          	li	a4,111
20011b22:	0ce68a63          	beq	a3,a4,20011bf6 <_printf_i+0x1f6>
20011b26:	00005697          	auipc	a3,0x5
20011b2a:	48e68693          	addi	a3,a3,1166 # 20016fb4 <__sf_fake_stdout+0x34>
20011b2e:	4729                	li	a4,10
20011b30:	040401a3          	sb	zero,67(s0)
20011b34:	404c                	lw	a1,4(s0)
20011b36:	c40c                	sw	a1,8(s0)
20011b38:	0005c563          	bltz	a1,20011b42 <_printf_i+0x142>
20011b3c:	4008                	lw	a0,0(s0)
20011b3e:	996d                	andi	a0,a0,-5
20011b40:	c008                	sw	a0,0(s0)
20011b42:	e399                	bnez	a5,20011b48 <_printf_i+0x148>
20011b44:	8ab2                	mv	s5,a2
20011b46:	cd91                	beqz	a1,20011b62 <_printf_i+0x162>
20011b48:	8ab2                	mv	s5,a2
20011b4a:	02e7f5b3          	remu	a1,a5,a4
20011b4e:	1afd                	addi	s5,s5,-1
20011b50:	95b6                	add	a1,a1,a3
20011b52:	0005c583          	lbu	a1,0(a1)
20011b56:	00ba8023          	sb	a1,0(s5)
20011b5a:	02e7d5b3          	divu	a1,a5,a4
20011b5e:	0ae7f263          	bgeu	a5,a4,20011c02 <_printf_i+0x202>
20011b62:	47a1                	li	a5,8
20011b64:	00f71e63          	bne	a4,a5,20011b80 <_printf_i+0x180>
20011b68:	401c                	lw	a5,0(s0)
20011b6a:	8b85                	andi	a5,a5,1
20011b6c:	cb91                	beqz	a5,20011b80 <_printf_i+0x180>
20011b6e:	4058                	lw	a4,4(s0)
20011b70:	481c                	lw	a5,16(s0)
20011b72:	00e7c763          	blt	a5,a4,20011b80 <_printf_i+0x180>
20011b76:	03000793          	li	a5,48
20011b7a:	fefa8fa3          	sb	a5,-1(s5)
20011b7e:	1afd                	addi	s5,s5,-1
20011b80:	41560633          	sub	a2,a2,s5
20011b84:	c810                	sw	a2,16(s0)
20011b86:	874e                	mv	a4,s3
20011b88:	86ca                	mv	a3,s2
20011b8a:	0070                	addi	a2,sp,12
20011b8c:	85a2                	mv	a1,s0
20011b8e:	8526                	mv	a0,s1
20011b90:	3395                	jal	200118f4 <_printf_common>
20011b92:	5a7d                	li	s4,-1
20011b94:	0d451463          	bne	a0,s4,20011c5c <_printf_i+0x25c>
20011b98:	557d                	li	a0,-1
20011b9a:	50b2                	lw	ra,44(sp)
20011b9c:	5422                	lw	s0,40(sp)
20011b9e:	5492                	lw	s1,36(sp)
20011ba0:	5902                	lw	s2,32(sp)
20011ba2:	49f2                	lw	s3,28(sp)
20011ba4:	4a62                	lw	s4,24(sp)
20011ba6:	4ad2                	lw	s5,20(sp)
20011ba8:	4b42                	lw	s6,16(sp)
20011baa:	6145                	addi	sp,sp,48
20011bac:	8082                	ret
20011bae:	04d582a3          	sb	a3,69(a1)
20011bb2:	00005697          	auipc	a3,0x5
20011bb6:	40268693          	addi	a3,a3,1026 # 20016fb4 <__sf_fake_stdout+0x34>
20011bba:	400c                	lw	a1,0(s0)
20011bbc:	4308                	lw	a0,0(a4)
20011bbe:	0805f813          	andi	a6,a1,128
20011bc2:	411c                	lw	a5,0(a0)
20011bc4:	0511                	addi	a0,a0,4
20011bc6:	02080063          	beqz	a6,20011be6 <_printf_i+0x1e6>
20011bca:	c308                	sw	a0,0(a4)
20011bcc:	0015f713          	andi	a4,a1,1
20011bd0:	c701                	beqz	a4,20011bd8 <_printf_i+0x1d8>
20011bd2:	0205e593          	ori	a1,a1,32
20011bd6:	c00c                	sw	a1,0(s0)
20011bd8:	4741                	li	a4,16
20011bda:	fbb9                	bnez	a5,20011b30 <_printf_i+0x130>
20011bdc:	400c                	lw	a1,0(s0)
20011bde:	fdf5f593          	andi	a1,a1,-33
20011be2:	c00c                	sw	a1,0(s0)
20011be4:	b7b1                	j	20011b30 <_printf_i+0x130>
20011be6:	0405f813          	andi	a6,a1,64
20011bea:	c308                	sw	a0,0(a4)
20011bec:	fe0800e3          	beqz	a6,20011bcc <_printf_i+0x1cc>
20011bf0:	07c2                	slli	a5,a5,0x10
20011bf2:	83c1                	srli	a5,a5,0x10
20011bf4:	bfe1                	j	20011bcc <_printf_i+0x1cc>
20011bf6:	00005697          	auipc	a3,0x5
20011bfa:	3be68693          	addi	a3,a3,958 # 20016fb4 <__sf_fake_stdout+0x34>
20011bfe:	4721                	li	a4,8
20011c00:	bf05                	j	20011b30 <_printf_i+0x130>
20011c02:	87ae                	mv	a5,a1
20011c04:	b799                	j	20011b4a <_printf_i+0x14a>
20011c06:	4194                	lw	a3,0(a1)
20011c08:	431c                	lw	a5,0(a4)
20011c0a:	49cc                	lw	a1,20(a1)
20011c0c:	0806f813          	andi	a6,a3,128
20011c10:	00478513          	addi	a0,a5,4
20011c14:	00080663          	beqz	a6,20011c20 <_printf_i+0x220>
20011c18:	c308                	sw	a0,0(a4)
20011c1a:	439c                	lw	a5,0(a5)
20011c1c:	c38c                	sw	a1,0(a5)
20011c1e:	a801                	j	20011c2e <_printf_i+0x22e>
20011c20:	c308                	sw	a0,0(a4)
20011c22:	0406f693          	andi	a3,a3,64
20011c26:	439c                	lw	a5,0(a5)
20011c28:	daf5                	beqz	a3,20011c1c <_printf_i+0x21c>
20011c2a:	00b79023          	sh	a1,0(a5)
20011c2e:	00042823          	sw	zero,16(s0)
20011c32:	8ab2                	mv	s5,a2
20011c34:	bf89                	j	20011b86 <_printf_i+0x186>
20011c36:	431c                	lw	a5,0(a4)
20011c38:	41d0                	lw	a2,4(a1)
20011c3a:	4581                	li	a1,0
20011c3c:	00478693          	addi	a3,a5,4
20011c40:	c314                	sw	a3,0(a4)
20011c42:	0007aa83          	lw	s5,0(a5)
20011c46:	8556                	mv	a0,s5
20011c48:	3179                	jal	200118d6 <memchr>
20011c4a:	c501                	beqz	a0,20011c52 <_printf_i+0x252>
20011c4c:	41550533          	sub	a0,a0,s5
20011c50:	c048                	sw	a0,4(s0)
20011c52:	405c                	lw	a5,4(s0)
20011c54:	c81c                	sw	a5,16(s0)
20011c56:	040401a3          	sb	zero,67(s0)
20011c5a:	b735                	j	20011b86 <_printf_i+0x186>
20011c5c:	4814                	lw	a3,16(s0)
20011c5e:	8656                	mv	a2,s5
20011c60:	85ca                	mv	a1,s2
20011c62:	8526                	mv	a0,s1
20011c64:	9982                	jalr	s3
20011c66:	f34509e3          	beq	a0,s4,20011b98 <_printf_i+0x198>
20011c6a:	401c                	lw	a5,0(s0)
20011c6c:	8b89                	andi	a5,a5,2
20011c6e:	e78d                	bnez	a5,20011c98 <_printf_i+0x298>
20011c70:	47b2                	lw	a5,12(sp)
20011c72:	4448                	lw	a0,12(s0)
20011c74:	f2f553e3          	bge	a0,a5,20011b9a <_printf_i+0x19a>
20011c78:	853e                	mv	a0,a5
20011c7a:	b705                	j	20011b9a <_printf_i+0x19a>
20011c7c:	4685                	li	a3,1
20011c7e:	8656                	mv	a2,s5
20011c80:	85ca                	mv	a1,s2
20011c82:	8526                	mv	a0,s1
20011c84:	9982                	jalr	s3
20011c86:	f16509e3          	beq	a0,s6,20011b98 <_printf_i+0x198>
20011c8a:	0a05                	addi	s4,s4,1
20011c8c:	445c                	lw	a5,12(s0)
20011c8e:	4732                	lw	a4,12(sp)
20011c90:	8f99                	sub	a5,a5,a4
20011c92:	fefa45e3          	blt	s4,a5,20011c7c <_printf_i+0x27c>
20011c96:	bfe9                	j	20011c70 <_printf_i+0x270>
20011c98:	4a01                	li	s4,0
20011c9a:	01940a93          	addi	s5,s0,25
20011c9e:	5b7d                	li	s6,-1
20011ca0:	b7f5                	j	20011c8c <_printf_i+0x28c>

20011ca2 <_read_r>:
_read_r():
20011ca2:	1141                	addi	sp,sp,-16
20011ca4:	c422                	sw	s0,8(sp)
20011ca6:	842a                	mv	s0,a0
20011ca8:	852e                	mv	a0,a1
20011caa:	85b2                	mv	a1,a2
20011cac:	8636                	mv	a2,a3
20011cae:	8e01a223          	sw	zero,-1820(gp) # 80000b6c <errno>
20011cb2:	c606                	sw	ra,12(sp)
20011cb4:	688040ef          	jal	ra,2001633c <_read>
20011cb8:	57fd                	li	a5,-1
20011cba:	00f51763          	bne	a0,a5,20011cc8 <_read_r+0x26>
20011cbe:	8e418793          	addi	a5,gp,-1820 # 80000b6c <errno>
20011cc2:	439c                	lw	a5,0(a5)
20011cc4:	c391                	beqz	a5,20011cc8 <_read_r+0x26>
20011cc6:	c01c                	sw	a5,0(s0)
20011cc8:	40b2                	lw	ra,12(sp)
20011cca:	4422                	lw	s0,8(sp)
20011ccc:	0141                	addi	sp,sp,16
20011cce:	8082                	ret

20011cd0 <__metal_driver_sifive_clint0_control_base>:
__metal_driver_sifive_clint0_control_base():
E:\8.AWS-FreeRTOS-HiFive1\Workspace\sifive-hifive1-revb-i2c\bsp\build\debug/./metal/machine.h:203
/* --------------------- fixed_factor_clock ------------ */


/* --------------------- sifive_clint0 ------------ */
static __inline__ unsigned long __metal_driver_sifive_clint0_control_base(struct metal_interrupt *controller)
{
20011cd0:	1101                	addi	sp,sp,-32
20011cd2:	ce22                	sw	s0,28(sp)
20011cd4:	1000                	addi	s0,sp,32
20011cd6:	fea42623          	sw	a0,-20(s0)
E:\8.AWS-FreeRTOS-HiFive1\Workspace\sifive-hifive1-revb-i2c\bsp\build\debug/./metal/machine.h:204
	if ((uintptr_t)controller == (uintptr_t)&__metal_dt_clint_2000000) {
20011cda:	fec42703          	lw	a4,-20(s0)
20011cde:	800017b7          	lui	a5,0x80001
20011ce2:	a9478793          	addi	a5,a5,-1388 # 80000a94 <metal_segment_heap_target_end+0xfffff324>
20011ce6:	00f71563          	bne	a4,a5,20011cf0 <__metal_driver_sifive_clint0_control_base+0x20>
E:\8.AWS-FreeRTOS-HiFive1\Workspace\sifive-hifive1-revb-i2c\bsp\build\debug/./metal/machine.h:205
		return METAL_RISCV_CLINT0_2000000_BASE_ADDRESS;
20011cea:	020007b7          	lui	a5,0x2000
20011cee:	a011                	j	20011cf2 <__metal_driver_sifive_clint0_control_base+0x22>
E:\8.AWS-FreeRTOS-HiFive1\Workspace\sifive-hifive1-revb-i2c\bsp\build\debug/./metal/machine.h:208
	}
	else {
		return 0;
20011cf0:	4781                	li	a5,0
E:\8.AWS-FreeRTOS-HiFive1\Workspace\sifive-hifive1-revb-i2c\bsp\build\debug/./metal/machine.h:210
	}
}
20011cf2:	853e                	mv	a0,a5
20011cf4:	4472                	lw	s0,28(sp)
20011cf6:	6105                	addi	sp,sp,32
20011cf8:	8082                	ret

20011cfa <__metal_driver_sifive_clint0_num_interrupts>:
__metal_driver_sifive_clint0_num_interrupts():
E:\8.AWS-FreeRTOS-HiFive1\Workspace\sifive-hifive1-revb-i2c\bsp\build\debug/./metal/machine.h:223
		return 0;
	}
}

static __inline__ int __metal_driver_sifive_clint0_num_interrupts(struct metal_interrupt *controller)
{
20011cfa:	1101                	addi	sp,sp,-32
20011cfc:	ce22                	sw	s0,28(sp)
20011cfe:	1000                	addi	s0,sp,32
20011d00:	fea42623          	sw	a0,-20(s0)
E:\8.AWS-FreeRTOS-HiFive1\Workspace\sifive-hifive1-revb-i2c\bsp\build\debug/./metal/machine.h:224
	if ((uintptr_t)controller == (uintptr_t)&__metal_dt_clint_2000000) {
20011d04:	fec42703          	lw	a4,-20(s0)
20011d08:	800017b7          	lui	a5,0x80001
20011d0c:	a9478793          	addi	a5,a5,-1388 # 80000a94 <metal_segment_heap_target_end+0xfffff324>
20011d10:	00f71463          	bne	a4,a5,20011d18 <__metal_driver_sifive_clint0_num_interrupts+0x1e>
E:\8.AWS-FreeRTOS-HiFive1\Workspace\sifive-hifive1-revb-i2c\bsp\build\debug/./metal/machine.h:225
		return METAL_MAX_CLINT_INTERRUPTS;
20011d14:	4789                	li	a5,2
20011d16:	a011                	j	20011d1a <__metal_driver_sifive_clint0_num_interrupts+0x20>
E:\8.AWS-FreeRTOS-HiFive1\Workspace\sifive-hifive1-revb-i2c\bsp\build\debug/./metal/machine.h:228
	}
	else {
		return 0;
20011d18:	4781                	li	a5,0
E:\8.AWS-FreeRTOS-HiFive1\Workspace\sifive-hifive1-revb-i2c\bsp\build\debug/./metal/machine.h:230
	}
}
20011d1a:	853e                	mv	a0,a5
20011d1c:	4472                	lw	s0,28(sp)
20011d1e:	6105                	addi	sp,sp,32
20011d20:	8082                	ret

20011d22 <__metal_driver_sifive_clint0_interrupt_parents>:
__metal_driver_sifive_clint0_interrupt_parents():
E:\8.AWS-FreeRTOS-HiFive1\Workspace\sifive-hifive1-revb-i2c\bsp\build\debug/./metal/machine.h:233

static __inline__ struct metal_interrupt * __metal_driver_sifive_clint0_interrupt_parents(struct metal_interrupt *controller, int idx)
{
20011d22:	1101                	addi	sp,sp,-32
20011d24:	ce22                	sw	s0,28(sp)
20011d26:	1000                	addi	s0,sp,32
20011d28:	fea42623          	sw	a0,-20(s0)
20011d2c:	feb42423          	sw	a1,-24(s0)
E:\8.AWS-FreeRTOS-HiFive1\Workspace\sifive-hifive1-revb-i2c\bsp\build\debug/./metal/machine.h:234
	if (idx == 0) {
20011d30:	fe842783          	lw	a5,-24(s0)
20011d34:	e791                	bnez	a5,20011d40 <__metal_driver_sifive_clint0_interrupt_parents+0x1e>
E:\8.AWS-FreeRTOS-HiFive1\Workspace\sifive-hifive1-revb-i2c\bsp\build\debug/./metal/machine.h:235
		return (struct metal_interrupt *)&__metal_dt_cpu_0_interrupt_controller.controller;
20011d36:	800007b7          	lui	a5,0x80000
20011d3a:	09078793          	addi	a5,a5,144 # 80000090 <metal_segment_heap_target_end+0xffffe920>
20011d3e:	a821                	j	20011d56 <__metal_driver_sifive_clint0_interrupt_parents+0x34>
E:\8.AWS-FreeRTOS-HiFive1\Workspace\sifive-hifive1-revb-i2c\bsp\build\debug/./metal/machine.h:237
	}
	else if (idx == 1) {
20011d40:	fe842703          	lw	a4,-24(s0)
20011d44:	4785                	li	a5,1
20011d46:	00f71763          	bne	a4,a5,20011d54 <__metal_driver_sifive_clint0_interrupt_parents+0x32>
E:\8.AWS-FreeRTOS-HiFive1\Workspace\sifive-hifive1-revb-i2c\bsp\build\debug/./metal/machine.h:238
		return (struct metal_interrupt *)&__metal_dt_cpu_0_interrupt_controller.controller;
20011d4a:	800007b7          	lui	a5,0x80000
20011d4e:	09078793          	addi	a5,a5,144 # 80000090 <metal_segment_heap_target_end+0xffffe920>
20011d52:	a011                	j	20011d56 <__metal_driver_sifive_clint0_interrupt_parents+0x34>
E:\8.AWS-FreeRTOS-HiFive1\Workspace\sifive-hifive1-revb-i2c\bsp\build\debug/./metal/machine.h:241
	}
	else {
		return NULL;
20011d54:	4781                	li	a5,0
E:\8.AWS-FreeRTOS-HiFive1\Workspace\sifive-hifive1-revb-i2c\bsp\build\debug/./metal/machine.h:243
	}
}
20011d56:	853e                	mv	a0,a5
20011d58:	4472                	lw	s0,28(sp)
20011d5a:	6105                	addi	sp,sp,32
20011d5c:	8082                	ret

20011d5e <__metal_driver_sifive_clint0_interrupt_lines>:
__metal_driver_sifive_clint0_interrupt_lines():
E:\8.AWS-FreeRTOS-HiFive1\Workspace\sifive-hifive1-revb-i2c\bsp\build\debug/./metal/machine.h:246

static __inline__ int __metal_driver_sifive_clint0_interrupt_lines(struct metal_interrupt *controller, int idx)
{
20011d5e:	1101                	addi	sp,sp,-32
20011d60:	ce22                	sw	s0,28(sp)
20011d62:	1000                	addi	s0,sp,32
20011d64:	fea42623          	sw	a0,-20(s0)
20011d68:	feb42423          	sw	a1,-24(s0)
E:\8.AWS-FreeRTOS-HiFive1\Workspace\sifive-hifive1-revb-i2c\bsp\build\debug/./metal/machine.h:247
	if (idx == 0) {
20011d6c:	fe842783          	lw	a5,-24(s0)
20011d70:	e399                	bnez	a5,20011d76 <__metal_driver_sifive_clint0_interrupt_lines+0x18>
E:\8.AWS-FreeRTOS-HiFive1\Workspace\sifive-hifive1-revb-i2c\bsp\build\debug/./metal/machine.h:248
		return 3;
20011d72:	478d                	li	a5,3
20011d74:	a809                	j	20011d86 <__metal_driver_sifive_clint0_interrupt_lines+0x28>
E:\8.AWS-FreeRTOS-HiFive1\Workspace\sifive-hifive1-revb-i2c\bsp\build\debug/./metal/machine.h:250
	}
	else if (idx == 1) {
20011d76:	fe842703          	lw	a4,-24(s0)
20011d7a:	4785                	li	a5,1
20011d7c:	00f71463          	bne	a4,a5,20011d84 <__metal_driver_sifive_clint0_interrupt_lines+0x26>
E:\8.AWS-FreeRTOS-HiFive1\Workspace\sifive-hifive1-revb-i2c\bsp\build\debug/./metal/machine.h:251
		return 7;
20011d80:	479d                	li	a5,7
20011d82:	a011                	j	20011d86 <__metal_driver_sifive_clint0_interrupt_lines+0x28>
E:\8.AWS-FreeRTOS-HiFive1\Workspace\sifive-hifive1-revb-i2c\bsp\build\debug/./metal/machine.h:254
	}
	else {
		return 0;
20011d84:	4781                	li	a5,0
E:\8.AWS-FreeRTOS-HiFive1\Workspace\sifive-hifive1-revb-i2c\bsp\build\debug/./metal/machine.h:256
	}
}
20011d86:	853e                	mv	a0,a5
20011d88:	4472                	lw	s0,28(sp)
20011d8a:	6105                	addi	sp,sp,32
20011d8c:	8082                	ret

20011d8e <__metal_clint0_mtime_get>:
__metal_clint0_mtime_get():
E:/8.AWS-FreeRTOS-HiFive1/Workspace/sifive-hifive1-revb-i2c/freedom-metal/src/drivers/riscv_clint0.c:14
#include <metal/cpu.h>
#include <metal/drivers/riscv_clint0.h>
#include <metal/machine.h>

unsigned long long __metal_clint0_mtime_get (struct __metal_driver_riscv_clint0 *clint)
{
20011d8e:	715d                	addi	sp,sp,-80
20011d90:	c686                	sw	ra,76(sp)
20011d92:	c4a2                	sw	s0,72(sp)
20011d94:	c2ca                	sw	s2,68(sp)
20011d96:	c0ce                	sw	s3,64(sp)
20011d98:	de52                	sw	s4,60(sp)
20011d9a:	dc56                	sw	s5,56(sp)
20011d9c:	da5a                	sw	s6,52(sp)
20011d9e:	d85e                	sw	s7,48(sp)
20011da0:	d662                	sw	s8,44(sp)
20011da2:	d466                	sw	s9,40(sp)
20011da4:	0880                	addi	s0,sp,80
20011da6:	faa42e23          	sw	a0,-68(s0)
E:/8.AWS-FreeRTOS-HiFive1/Workspace/sifive-hifive1-revb-i2c/freedom-metal/src/drivers/riscv_clint0.c:16
    __metal_io_u32 lo, hi;
    unsigned long control_base = __metal_driver_sifive_clint0_control_base(&clint->controller);
20011daa:	fbc42783          	lw	a5,-68(s0)
20011dae:	853e                	mv	a0,a5
20011db0:	3705                	jal	20011cd0 <__metal_driver_sifive_clint0_control_base>
20011db2:	fca42623          	sw	a0,-52(s0)
E:/8.AWS-FreeRTOS-HiFive1/Workspace/sifive-hifive1-revb-i2c/freedom-metal/src/drivers/riscv_clint0.c:20 (discriminator 1)

    /* Guard against rollover when reading */
    do {
	hi = __METAL_ACCESS_ONCE((__metal_io_u32 *)(control_base + METAL_RISCV_CLINT0_MTIME + 4));
20011db6:	fcc42703          	lw	a4,-52(s0)
20011dba:	67b1                	lui	a5,0xc
20011dbc:	17f1                	addi	a5,a5,-4
20011dbe:	97ba                	add	a5,a5,a4
20011dc0:	439c                	lw	a5,0(a5)
20011dc2:	fcf42423          	sw	a5,-56(s0)
E:/8.AWS-FreeRTOS-HiFive1/Workspace/sifive-hifive1-revb-i2c/freedom-metal/src/drivers/riscv_clint0.c:21 (discriminator 1)
	lo = __METAL_ACCESS_ONCE((__metal_io_u32 *)(control_base + METAL_RISCV_CLINT0_MTIME));
20011dc6:	fcc42703          	lw	a4,-52(s0)
20011dca:	67b1                	lui	a5,0xc
20011dcc:	17e1                	addi	a5,a5,-8
20011dce:	97ba                	add	a5,a5,a4
20011dd0:	439c                	lw	a5,0(a5)
20011dd2:	fcf42223          	sw	a5,-60(s0)
E:/8.AWS-FreeRTOS-HiFive1/Workspace/sifive-hifive1-revb-i2c/freedom-metal/src/drivers/riscv_clint0.c:22 (discriminator 1)
    } while (__METAL_ACCESS_ONCE((__metal_io_u32 *)(control_base + METAL_RISCV_CLINT0_MTIME + 4)) != hi);
20011dd6:	fcc42703          	lw	a4,-52(s0)
20011dda:	67b1                	lui	a5,0xc
20011ddc:	17f1                	addi	a5,a5,-4
20011dde:	97ba                	add	a5,a5,a4
20011de0:	439c                	lw	a5,0(a5)
20011de2:	fc842703          	lw	a4,-56(s0)
20011de6:	fcf718e3          	bne	a4,a5,20011db6 <__metal_clint0_mtime_get+0x28>
E:/8.AWS-FreeRTOS-HiFive1/Workspace/sifive-hifive1-revb-i2c/freedom-metal/src/drivers/riscv_clint0.c:24

    return (((unsigned long long)hi) << 32) | lo;
20011dea:	fc842783          	lw	a5,-56(s0)
20011dee:	8c3e                	mv	s8,a5
20011df0:	4c81                	li	s9,0
20011df2:	000c1993          	slli	s3,s8,0x0
20011df6:	4901                	li	s2,0
20011df8:	fc442783          	lw	a5,-60(s0)
20011dfc:	8a3e                	mv	s4,a5
20011dfe:	4a81                	li	s5,0
20011e00:	01496b33          	or	s6,s2,s4
20011e04:	0159ebb3          	or	s7,s3,s5
20011e08:	87da                	mv	a5,s6
20011e0a:	885e                	mv	a6,s7
E:/8.AWS-FreeRTOS-HiFive1/Workspace/sifive-hifive1-revb-i2c/freedom-metal/src/drivers/riscv_clint0.c:25
}
20011e0c:	853e                	mv	a0,a5
20011e0e:	85c2                	mv	a1,a6
20011e10:	40b6                	lw	ra,76(sp)
20011e12:	4426                	lw	s0,72(sp)
20011e14:	4916                	lw	s2,68(sp)
20011e16:	4986                	lw	s3,64(sp)
20011e18:	5a72                	lw	s4,60(sp)
20011e1a:	5ae2                	lw	s5,56(sp)
20011e1c:	5b52                	lw	s6,52(sp)
20011e1e:	5bc2                	lw	s7,48(sp)
20011e20:	5c32                	lw	s8,44(sp)
20011e22:	5ca2                	lw	s9,40(sp)
20011e24:	6161                	addi	sp,sp,80
20011e26:	8082                	ret

20011e28 <__metal_driver_riscv_clint0_mtimecmp_set>:
__metal_driver_riscv_clint0_mtimecmp_set():
E:/8.AWS-FreeRTOS-HiFive1/Workspace/sifive-hifive1-revb-i2c/freedom-metal/src/drivers/riscv_clint0.c:30

int __metal_driver_riscv_clint0_mtimecmp_set(struct metal_interrupt *controller,
                                             int hartid,
                                             unsigned long long time)
{   
20011e28:	7179                	addi	sp,sp,-48
20011e2a:	d606                	sw	ra,44(sp)
20011e2c:	d422                	sw	s0,40(sp)
20011e2e:	d24a                	sw	s2,36(sp)
20011e30:	d04e                	sw	s3,32(sp)
20011e32:	1800                	addi	s0,sp,48
20011e34:	fca42e23          	sw	a0,-36(s0)
20011e38:	fcb42c23          	sw	a1,-40(s0)
20011e3c:	fcc42823          	sw	a2,-48(s0)
20011e40:	fcd42a23          	sw	a3,-44(s0)
E:/8.AWS-FreeRTOS-HiFive1/Workspace/sifive-hifive1-revb-i2c/freedom-metal/src/drivers/riscv_clint0.c:31
    struct __metal_driver_riscv_clint0 *clint =
20011e44:	fdc42783          	lw	a5,-36(s0)
20011e48:	fef42623          	sw	a5,-20(s0)
E:/8.AWS-FreeRTOS-HiFive1/Workspace/sifive-hifive1-revb-i2c/freedom-metal/src/drivers/riscv_clint0.c:33
                              (struct __metal_driver_riscv_clint0 *)(controller);
    unsigned long control_base = __metal_driver_sifive_clint0_control_base(&clint->controller);
20011e4c:	fec42783          	lw	a5,-20(s0)
20011e50:	853e                	mv	a0,a5
20011e52:	3dbd                	jal	20011cd0 <__metal_driver_sifive_clint0_control_base>
20011e54:	fea42423          	sw	a0,-24(s0)
E:/8.AWS-FreeRTOS-HiFive1/Workspace/sifive-hifive1-revb-i2c/freedom-metal/src/drivers/riscv_clint0.c:40
     * and are NOT internally latched for multiword transfers.
     * Need to be careful about sequencing to avoid triggering
     * spurious interrupts: For that set the high word to a max
     * value first.
     */
    __METAL_ACCESS_ONCE((__metal_io_u32 *)(control_base + (8 * hartid) + METAL_RISCV_CLINT0_MTIMECMP_BASE + 4)) = 0xFFFFFFFF;
20011e58:	fd842783          	lw	a5,-40(s0)
20011e5c:	078e                	slli	a5,a5,0x3
20011e5e:	873e                	mv	a4,a5
20011e60:	fe842783          	lw	a5,-24(s0)
20011e64:	973e                	add	a4,a4,a5
20011e66:	6791                	lui	a5,0x4
20011e68:	0791                	addi	a5,a5,4
20011e6a:	97ba                	add	a5,a5,a4
20011e6c:	873e                	mv	a4,a5
20011e6e:	57fd                	li	a5,-1
20011e70:	c31c                	sw	a5,0(a4)
E:/8.AWS-FreeRTOS-HiFive1/Workspace/sifive-hifive1-revb-i2c/freedom-metal/src/drivers/riscv_clint0.c:41
    __METAL_ACCESS_ONCE((__metal_io_u32 *)(control_base + (8 * hartid) + METAL_RISCV_CLINT0_MTIMECMP_BASE)) = (__metal_io_u32)time;
20011e72:	fd842783          	lw	a5,-40(s0)
20011e76:	078e                	slli	a5,a5,0x3
20011e78:	873e                	mv	a4,a5
20011e7a:	fe842783          	lw	a5,-24(s0)
20011e7e:	973e                	add	a4,a4,a5
20011e80:	6791                	lui	a5,0x4
20011e82:	97ba                	add	a5,a5,a4
20011e84:	873e                	mv	a4,a5
20011e86:	fd042783          	lw	a5,-48(s0)
20011e8a:	c31c                	sw	a5,0(a4)
E:/8.AWS-FreeRTOS-HiFive1/Workspace/sifive-hifive1-revb-i2c/freedom-metal/src/drivers/riscv_clint0.c:42
    __METAL_ACCESS_ONCE((__metal_io_u32 *)(control_base + (8 * hartid) + METAL_RISCV_CLINT0_MTIMECMP_BASE + 4)) = (__metal_io_u32)(time >> 32);
20011e8c:	fd442783          	lw	a5,-44(s0)
20011e90:	0007d913          	srli	s2,a5,0x0
20011e94:	4981                	li	s3,0
20011e96:	fd842783          	lw	a5,-40(s0)
20011e9a:	078e                	slli	a5,a5,0x3
20011e9c:	873e                	mv	a4,a5
20011e9e:	fe842783          	lw	a5,-24(s0)
20011ea2:	973e                	add	a4,a4,a5
20011ea4:	6791                	lui	a5,0x4
20011ea6:	0791                	addi	a5,a5,4
20011ea8:	97ba                	add	a5,a5,a4
20011eaa:	874a                	mv	a4,s2
20011eac:	c398                	sw	a4,0(a5)
E:/8.AWS-FreeRTOS-HiFive1/Workspace/sifive-hifive1-revb-i2c/freedom-metal/src/drivers/riscv_clint0.c:43
    return 0;
20011eae:	4781                	li	a5,0
E:/8.AWS-FreeRTOS-HiFive1/Workspace/sifive-hifive1-revb-i2c/freedom-metal/src/drivers/riscv_clint0.c:44
}
20011eb0:	853e                	mv	a0,a5
20011eb2:	50b2                	lw	ra,44(sp)
20011eb4:	5422                	lw	s0,40(sp)
20011eb6:	5912                	lw	s2,36(sp)
20011eb8:	5982                	lw	s3,32(sp)
20011eba:	6145                	addi	sp,sp,48
20011ebc:	8082                	ret

20011ebe <_get_cpu_intc>:
_get_cpu_intc():
E:/8.AWS-FreeRTOS-HiFive1/Workspace/sifive-hifive1-revb-i2c/freedom-metal/src/drivers/riscv_clint0.c:47

static struct metal_interrupt *_get_cpu_intc()
{
20011ebe:	1101                	addi	sp,sp,-32
20011ec0:	ce06                	sw	ra,28(sp)
20011ec2:	cc22                	sw	s0,24(sp)
20011ec4:	1000                	addi	s0,sp,32
E:/8.AWS-FreeRTOS-HiFive1/Workspace/sifive-hifive1-revb-i2c/freedom-metal/src/drivers/riscv_clint0.c:48
    int hartid = 0;
20011ec6:	fe042623          	sw	zero,-20(s0)
E:/8.AWS-FreeRTOS-HiFive1/Workspace/sifive-hifive1-revb-i2c/freedom-metal/src/drivers/riscv_clint0.c:49
    __asm__ volatile("csrr %[hartid], mhartid"
20011eca:	f14027f3          	csrr	a5,mhartid
20011ece:	fef42623          	sw	a5,-20(s0)
E:/8.AWS-FreeRTOS-HiFive1/Workspace/sifive-hifive1-revb-i2c/freedom-metal/src/drivers/riscv_clint0.c:52
                     : [hartid] "=r" (hartid) :: "memory");

    struct metal_cpu *cpu = metal_cpu_get(hartid);
20011ed2:	fec42783          	lw	a5,-20(s0)
20011ed6:	853e                	mv	a0,a5
20011ed8:	6b1030ef          	jal	ra,20015d88 <metal_cpu_get>
20011edc:	fea42423          	sw	a0,-24(s0)
E:/8.AWS-FreeRTOS-HiFive1/Workspace/sifive-hifive1-revb-i2c/freedom-metal/src/drivers/riscv_clint0.c:54

    return metal_cpu_interrupt_controller(cpu);
20011ee0:	fe842503          	lw	a0,-24(s0)
20011ee4:	67f030ef          	jal	ra,20015d62 <metal_cpu_interrupt_controller>
20011ee8:	87aa                	mv	a5,a0
E:/8.AWS-FreeRTOS-HiFive1/Workspace/sifive-hifive1-revb-i2c/freedom-metal/src/drivers/riscv_clint0.c:55
}
20011eea:	853e                	mv	a0,a5
20011eec:	40f2                	lw	ra,28(sp)
20011eee:	4462                	lw	s0,24(sp)
20011ef0:	6105                	addi	sp,sp,32
20011ef2:	8082                	ret

20011ef4 <__metal_driver_riscv_clint0_init>:
__metal_driver_riscv_clint0_init():
E:/8.AWS-FreeRTOS-HiFive1/Workspace/sifive-hifive1-revb-i2c/freedom-metal/src/drivers/riscv_clint0.c:58

void __metal_driver_riscv_clint0_init (struct metal_interrupt *controller)
{
20011ef4:	7139                	addi	sp,sp,-64
20011ef6:	de06                	sw	ra,60(sp)
20011ef8:	dc22                	sw	s0,56(sp)
20011efa:	0080                	addi	s0,sp,64
20011efc:	fca42623          	sw	a0,-52(s0)
E:/8.AWS-FreeRTOS-HiFive1/Workspace/sifive-hifive1-revb-i2c/freedom-metal/src/drivers/riscv_clint0.c:59
    int num_interrupts = __metal_driver_sifive_clint0_num_interrupts(controller);
20011f00:	fcc42503          	lw	a0,-52(s0)
20011f04:	3bdd                	jal	20011cfa <__metal_driver_sifive_clint0_num_interrupts>
20011f06:	fea42423          	sw	a0,-24(s0)
E:/8.AWS-FreeRTOS-HiFive1/Workspace/sifive-hifive1-revb-i2c/freedom-metal/src/drivers/riscv_clint0.c:60
    struct __metal_driver_riscv_clint0 *clint =
20011f0a:	fcc42783          	lw	a5,-52(s0)
20011f0e:	fef42223          	sw	a5,-28(s0)
E:/8.AWS-FreeRTOS-HiFive1/Workspace/sifive-hifive1-revb-i2c/freedom-metal/src/drivers/riscv_clint0.c:63
                              (struct __metal_driver_riscv_clint0 *)(controller);

    if ( !clint->init_done ) {
20011f12:	fe442783          	lw	a5,-28(s0)
20011f16:	43dc                	lw	a5,4(a5)
20011f18:	efa9                	bnez	a5,20011f72 <__metal_driver_riscv_clint0_init+0x7e>
E:/8.AWS-FreeRTOS-HiFive1/Workspace/sifive-hifive1-revb-i2c/freedom-metal/src/drivers/riscv_clint0.c:65
	/* Register its interrupts with with parent controller, aka sw and timerto its default isr */
        for (int i = 0; i < num_interrupts; i++) {
20011f1a:	fe042623          	sw	zero,-20(s0)
20011f1e:	a081                	j	20011f5e <__metal_driver_riscv_clint0_init+0x6a>
E:/8.AWS-FreeRTOS-HiFive1/Workspace/sifive-hifive1-revb-i2c/freedom-metal/src/drivers/riscv_clint0.c:66 (discriminator 3)
	  struct metal_interrupt *intc = __metal_driver_sifive_clint0_interrupt_parents(controller, i);
20011f20:	fec42583          	lw	a1,-20(s0)
20011f24:	fcc42503          	lw	a0,-52(s0)
20011f28:	3bed                	jal	20011d22 <__metal_driver_sifive_clint0_interrupt_parents>
20011f2a:	fea42023          	sw	a0,-32(s0)
E:/8.AWS-FreeRTOS-HiFive1/Workspace/sifive-hifive1-revb-i2c/freedom-metal/src/drivers/riscv_clint0.c:67 (discriminator 3)
	  int line = __metal_driver_sifive_clint0_interrupt_lines(controller, i);
20011f2e:	fec42583          	lw	a1,-20(s0)
20011f32:	fcc42503          	lw	a0,-52(s0)
20011f36:	3525                	jal	20011d5e <__metal_driver_sifive_clint0_interrupt_lines>
20011f38:	fca42e23          	sw	a0,-36(s0)
E:/8.AWS-FreeRTOS-HiFive1/Workspace/sifive-hifive1-revb-i2c/freedom-metal/src/drivers/riscv_clint0.c:68 (discriminator 3)
            intc->vtable->interrupt_register(intc, line, NULL, controller);
20011f3c:	fe042783          	lw	a5,-32(s0)
20011f40:	439c                	lw	a5,0(a5)
20011f42:	4fdc                	lw	a5,28(a5)
20011f44:	fcc42683          	lw	a3,-52(s0)
20011f48:	4601                	li	a2,0
20011f4a:	fdc42583          	lw	a1,-36(s0)
20011f4e:	fe042503          	lw	a0,-32(s0)
20011f52:	9782                	jalr	a5
E:/8.AWS-FreeRTOS-HiFive1/Workspace/sifive-hifive1-revb-i2c/freedom-metal/src/drivers/riscv_clint0.c:65 (discriminator 3)
        for (int i = 0; i < num_interrupts; i++) {
20011f54:	fec42783          	lw	a5,-20(s0)
20011f58:	0785                	addi	a5,a5,1
20011f5a:	fef42623          	sw	a5,-20(s0)
E:/8.AWS-FreeRTOS-HiFive1/Workspace/sifive-hifive1-revb-i2c/freedom-metal/src/drivers/riscv_clint0.c:65 (discriminator 1)
20011f5e:	fec42703          	lw	a4,-20(s0)
20011f62:	fe842783          	lw	a5,-24(s0)
20011f66:	faf74de3          	blt	a4,a5,20011f20 <__metal_driver_riscv_clint0_init+0x2c>
E:/8.AWS-FreeRTOS-HiFive1/Workspace/sifive-hifive1-revb-i2c/freedom-metal/src/drivers/riscv_clint0.c:70
	}
	clint->init_done = 1;
20011f6a:	fe442783          	lw	a5,-28(s0)
20011f6e:	4705                	li	a4,1
20011f70:	c3d8                	sw	a4,4(a5)
E:/8.AWS-FreeRTOS-HiFive1/Workspace/sifive-hifive1-revb-i2c/freedom-metal/src/drivers/riscv_clint0.c:72
    }	
}
20011f72:	0001                	nop
20011f74:	50f2                	lw	ra,60(sp)
20011f76:	5462                	lw	s0,56(sp)
20011f78:	6121                	addi	sp,sp,64
20011f7a:	8082                	ret

20011f7c <__metal_driver_riscv_clint0_register>:
__metal_driver_riscv_clint0_register():
E:/8.AWS-FreeRTOS-HiFive1/Workspace/sifive-hifive1-revb-i2c/freedom-metal/src/drivers/riscv_clint0.c:77

int __metal_driver_riscv_clint0_register (struct metal_interrupt *controller,
                                        int id, metal_interrupt_handler_t isr,
                                        void *priv)
{
20011f7c:	7139                	addi	sp,sp,-64
20011f7e:	de06                	sw	ra,60(sp)
20011f80:	dc22                	sw	s0,56(sp)
20011f82:	0080                	addi	s0,sp,64
20011f84:	fca42623          	sw	a0,-52(s0)
20011f88:	fcb42423          	sw	a1,-56(s0)
20011f8c:	fcc42223          	sw	a2,-60(s0)
20011f90:	fcd42023          	sw	a3,-64(s0)
E:/8.AWS-FreeRTOS-HiFive1/Workspace/sifive-hifive1-revb-i2c/freedom-metal/src/drivers/riscv_clint0.c:78
    int rc = -1;
20011f94:	57fd                	li	a5,-1
20011f96:	fef42623          	sw	a5,-20(s0)
E:/8.AWS-FreeRTOS-HiFive1/Workspace/sifive-hifive1-revb-i2c/freedom-metal/src/drivers/riscv_clint0.c:79
    metal_vector_mode mode = __metal_controller_interrupt_vector_mode();
20011f9a:	3be010ef          	jal	ra,20013358 <__metal_controller_interrupt_vector_mode>
20011f9e:	fea42023          	sw	a0,-32(s0)
E:/8.AWS-FreeRTOS-HiFive1/Workspace/sifive-hifive1-revb-i2c/freedom-metal/src/drivers/riscv_clint0.c:80
    struct metal_interrupt *intc = NULL;
20011fa2:	fe042423          	sw	zero,-24(s0)
E:/8.AWS-FreeRTOS-HiFive1/Workspace/sifive-hifive1-revb-i2c/freedom-metal/src/drivers/riscv_clint0.c:81
    struct metal_interrupt *cpu_intc = _get_cpu_intc();
20011fa6:	3f21                	jal	20011ebe <_get_cpu_intc>
20011fa8:	fca42e23          	sw	a0,-36(s0)
E:/8.AWS-FreeRTOS-HiFive1/Workspace/sifive-hifive1-revb-i2c/freedom-metal/src/drivers/riscv_clint0.c:82
    int num_interrupts = __metal_driver_sifive_clint0_num_interrupts(controller);
20011fac:	fcc42503          	lw	a0,-52(s0)
20011fb0:	33a9                	jal	20011cfa <__metal_driver_sifive_clint0_num_interrupts>
20011fb2:	fca42c23          	sw	a0,-40(s0)
E:/8.AWS-FreeRTOS-HiFive1/Workspace/sifive-hifive1-revb-i2c/freedom-metal/src/drivers/riscv_clint0.c:84

    if ( (mode != METAL_VECTOR_MODE) && (mode != METAL_DIRECT_MODE) ) {
20011fb6:	fe042703          	lw	a4,-32(s0)
20011fba:	4785                	li	a5,1
20011fbc:	00f70863          	beq	a4,a5,20011fcc <__metal_driver_riscv_clint0_register+0x50>
E:/8.AWS-FreeRTOS-HiFive1/Workspace/sifive-hifive1-revb-i2c/freedom-metal/src/drivers/riscv_clint0.c:84 (discriminator 1)
20011fc0:	fe042783          	lw	a5,-32(s0)
20011fc4:	c781                	beqz	a5,20011fcc <__metal_driver_riscv_clint0_register+0x50>
E:/8.AWS-FreeRTOS-HiFive1/Workspace/sifive-hifive1-revb-i2c/freedom-metal/src/drivers/riscv_clint0.c:85
        return rc;
20011fc6:	fec42783          	lw	a5,-20(s0)
20011fca:	a049                	j	2001204c <__metal_driver_riscv_clint0_register+0xd0>
E:/8.AWS-FreeRTOS-HiFive1/Workspace/sifive-hifive1-revb-i2c/freedom-metal/src/drivers/riscv_clint0.c:88
    }

    for(int i = 0; i < num_interrupts; i++) {
20011fcc:	fe042223          	sw	zero,-28(s0)
20011fd0:	a091                	j	20012014 <__metal_driver_riscv_clint0_register+0x98>
E:/8.AWS-FreeRTOS-HiFive1/Workspace/sifive-hifive1-revb-i2c/freedom-metal/src/drivers/riscv_clint0.c:89
	int line = __metal_driver_sifive_clint0_interrupt_lines(controller, i);
20011fd2:	fe442583          	lw	a1,-28(s0)
20011fd6:	fcc42503          	lw	a0,-52(s0)
20011fda:	3351                	jal	20011d5e <__metal_driver_sifive_clint0_interrupt_lines>
20011fdc:	fca42a23          	sw	a0,-44(s0)
E:/8.AWS-FreeRTOS-HiFive1/Workspace/sifive-hifive1-revb-i2c/freedom-metal/src/drivers/riscv_clint0.c:90
        intc = __metal_driver_sifive_clint0_interrupt_parents(controller, i);
20011fe0:	fe442583          	lw	a1,-28(s0)
20011fe4:	fcc42503          	lw	a0,-52(s0)
20011fe8:	3b2d                	jal	20011d22 <__metal_driver_sifive_clint0_interrupt_parents>
20011fea:	fea42423          	sw	a0,-24(s0)
E:/8.AWS-FreeRTOS-HiFive1/Workspace/sifive-hifive1-revb-i2c/freedom-metal/src/drivers/riscv_clint0.c:91
        if (cpu_intc == intc && id == line) {
20011fee:	fdc42703          	lw	a4,-36(s0)
20011ff2:	fe842783          	lw	a5,-24(s0)
20011ff6:	00f71863          	bne	a4,a5,20012006 <__metal_driver_riscv_clint0_register+0x8a>
E:/8.AWS-FreeRTOS-HiFive1/Workspace/sifive-hifive1-revb-i2c/freedom-metal/src/drivers/riscv_clint0.c:91 (discriminator 1)
20011ffa:	fc842703          	lw	a4,-56(s0)
20011ffe:	fd442783          	lw	a5,-44(s0)
20012002:	02f70063          	beq	a4,a5,20012022 <__metal_driver_riscv_clint0_register+0xa6>
E:/8.AWS-FreeRTOS-HiFive1/Workspace/sifive-hifive1-revb-i2c/freedom-metal/src/drivers/riscv_clint0.c:94 (discriminator 2)
            break;
        }
	intc = NULL;
20012006:	fe042423          	sw	zero,-24(s0)
E:/8.AWS-FreeRTOS-HiFive1/Workspace/sifive-hifive1-revb-i2c/freedom-metal/src/drivers/riscv_clint0.c:88 (discriminator 2)
    for(int i = 0; i < num_interrupts; i++) {
2001200a:	fe442783          	lw	a5,-28(s0)
2001200e:	0785                	addi	a5,a5,1
20012010:	fef42223          	sw	a5,-28(s0)
E:/8.AWS-FreeRTOS-HiFive1/Workspace/sifive-hifive1-revb-i2c/freedom-metal/src/drivers/riscv_clint0.c:88 (discriminator 1)
20012014:	fe442703          	lw	a4,-28(s0)
20012018:	fd842783          	lw	a5,-40(s0)
2001201c:	faf74be3          	blt	a4,a5,20011fd2 <__metal_driver_riscv_clint0_register+0x56>
20012020:	a011                	j	20012024 <__metal_driver_riscv_clint0_register+0xa8>
E:/8.AWS-FreeRTOS-HiFive1/Workspace/sifive-hifive1-revb-i2c/freedom-metal/src/drivers/riscv_clint0.c:92
            break;
20012022:	0001                	nop
E:/8.AWS-FreeRTOS-HiFive1/Workspace/sifive-hifive1-revb-i2c/freedom-metal/src/drivers/riscv_clint0.c:98
    }

    /* Register its interrupts with parent controller */
    if (intc) {
20012024:	fe842783          	lw	a5,-24(s0)
20012028:	c385                	beqz	a5,20012048 <__metal_driver_riscv_clint0_register+0xcc>
E:/8.AWS-FreeRTOS-HiFive1/Workspace/sifive-hifive1-revb-i2c/freedom-metal/src/drivers/riscv_clint0.c:99
        rc = intc->vtable->interrupt_register(intc, id, isr, priv);
2001202a:	fe842783          	lw	a5,-24(s0)
2001202e:	439c                	lw	a5,0(a5)
20012030:	4fdc                	lw	a5,28(a5)
20012032:	fc042683          	lw	a3,-64(s0)
20012036:	fc442603          	lw	a2,-60(s0)
2001203a:	fc842583          	lw	a1,-56(s0)
2001203e:	fe842503          	lw	a0,-24(s0)
20012042:	9782                	jalr	a5
20012044:	fea42623          	sw	a0,-20(s0)
E:/8.AWS-FreeRTOS-HiFive1/Workspace/sifive-hifive1-revb-i2c/freedom-metal/src/drivers/riscv_clint0.c:101
    }
    return rc;
20012048:	fec42783          	lw	a5,-20(s0)
E:/8.AWS-FreeRTOS-HiFive1/Workspace/sifive-hifive1-revb-i2c/freedom-metal/src/drivers/riscv_clint0.c:102
}
2001204c:	853e                	mv	a0,a5
2001204e:	50f2                	lw	ra,60(sp)
20012050:	5462                	lw	s0,56(sp)
20012052:	6121                	addi	sp,sp,64
20012054:	8082                	ret

20012056 <__metal_driver_riscv_clint0_vector_register>:
__metal_driver_riscv_clint0_vector_register():
E:/8.AWS-FreeRTOS-HiFive1/Workspace/sifive-hifive1-revb-i2c/freedom-metal/src/drivers/riscv_clint0.c:107

int __metal_driver_riscv_clint0_vector_register (struct metal_interrupt *controller,
                                                 int id, metal_interrupt_vector_handler_t isr,
                                                 void *priv)
{   
20012056:	7179                	addi	sp,sp,-48
20012058:	d622                	sw	s0,44(sp)
2001205a:	1800                	addi	s0,sp,48
2001205c:	fca42e23          	sw	a0,-36(s0)
20012060:	fcb42c23          	sw	a1,-40(s0)
20012064:	fcc42a23          	sw	a2,-44(s0)
20012068:	fcd42823          	sw	a3,-48(s0)
E:/8.AWS-FreeRTOS-HiFive1/Workspace/sifive-hifive1-revb-i2c/freedom-metal/src/drivers/riscv_clint0.c:109
    /* Not supported. User can override the 'weak' handler with their own */
    int rc = -1;
2001206c:	57fd                	li	a5,-1
2001206e:	fef42623          	sw	a5,-20(s0)
E:/8.AWS-FreeRTOS-HiFive1/Workspace/sifive-hifive1-revb-i2c/freedom-metal/src/drivers/riscv_clint0.c:110
    return rc;
20012072:	fec42783          	lw	a5,-20(s0)
E:/8.AWS-FreeRTOS-HiFive1/Workspace/sifive-hifive1-revb-i2c/freedom-metal/src/drivers/riscv_clint0.c:111
}
20012076:	853e                	mv	a0,a5
20012078:	5432                	lw	s0,44(sp)
2001207a:	6145                	addi	sp,sp,48
2001207c:	8082                	ret

2001207e <__metal_driver_riscv_clint0_get_vector_mode>:
__metal_driver_riscv_clint0_get_vector_mode():
E:/8.AWS-FreeRTOS-HiFive1/Workspace/sifive-hifive1-revb-i2c/freedom-metal/src/drivers/riscv_clint0.c:114

metal_vector_mode __metal_driver_riscv_clint0_get_vector_mode (struct metal_interrupt *controller)
{
2001207e:	1101                	addi	sp,sp,-32
20012080:	ce06                	sw	ra,28(sp)
20012082:	cc22                	sw	s0,24(sp)
20012084:	1000                	addi	s0,sp,32
20012086:	fea42623          	sw	a0,-20(s0)
E:/8.AWS-FreeRTOS-HiFive1/Workspace/sifive-hifive1-revb-i2c/freedom-metal/src/drivers/riscv_clint0.c:115
    return __metal_controller_interrupt_vector_mode();
2001208a:	2ce010ef          	jal	ra,20013358 <__metal_controller_interrupt_vector_mode>
2001208e:	87aa                	mv	a5,a0
E:/8.AWS-FreeRTOS-HiFive1/Workspace/sifive-hifive1-revb-i2c/freedom-metal/src/drivers/riscv_clint0.c:116
}
20012090:	853e                	mv	a0,a5
20012092:	40f2                	lw	ra,28(sp)
20012094:	4462                	lw	s0,24(sp)
20012096:	6105                	addi	sp,sp,32
20012098:	8082                	ret

2001209a <__metal_driver_riscv_clint0_set_vector_mode>:
__metal_driver_riscv_clint0_set_vector_mode():
E:/8.AWS-FreeRTOS-HiFive1/Workspace/sifive-hifive1-revb-i2c/freedom-metal/src/drivers/riscv_clint0.c:119

int __metal_driver_riscv_clint0_set_vector_mode (struct metal_interrupt *controller, metal_vector_mode mode)
{
2001209a:	7179                	addi	sp,sp,-48
2001209c:	d606                	sw	ra,44(sp)
2001209e:	d422                	sw	s0,40(sp)
200120a0:	1800                	addi	s0,sp,48
200120a2:	fca42e23          	sw	a0,-36(s0)
200120a6:	fcb42c23          	sw	a1,-40(s0)
E:/8.AWS-FreeRTOS-HiFive1/Workspace/sifive-hifive1-revb-i2c/freedom-metal/src/drivers/riscv_clint0.c:120
    int rc = -1;
200120aa:	57fd                	li	a5,-1
200120ac:	fef42623          	sw	a5,-20(s0)
E:/8.AWS-FreeRTOS-HiFive1/Workspace/sifive-hifive1-revb-i2c/freedom-metal/src/drivers/riscv_clint0.c:121
    struct metal_interrupt *intc = _get_cpu_intc();
200120b0:	3539                	jal	20011ebe <_get_cpu_intc>
200120b2:	fea42423          	sw	a0,-24(s0)
E:/8.AWS-FreeRTOS-HiFive1/Workspace/sifive-hifive1-revb-i2c/freedom-metal/src/drivers/riscv_clint0.c:123

    if (intc) {
200120b6:	fe842783          	lw	a5,-24(s0)
200120ba:	c395                	beqz	a5,200120de <__metal_driver_riscv_clint0_set_vector_mode+0x44>
E:/8.AWS-FreeRTOS-HiFive1/Workspace/sifive-hifive1-revb-i2c/freedom-metal/src/drivers/riscv_clint0.c:125
	/* Valid vector modes are VECTOR and DIRECT, anything else is invalid (-1) */
        switch (mode) {
200120bc:	fd842703          	lw	a4,-40(s0)
200120c0:	4785                	li	a5,1
200120c2:	00e7ef63          	bltu	a5,a4,200120e0 <__metal_driver_riscv_clint0_set_vector_mode+0x46>
E:/8.AWS-FreeRTOS-HiFive1/Workspace/sifive-hifive1-revb-i2c/freedom-metal/src/drivers/riscv_clint0.c:128
        case METAL_VECTOR_MODE:
        case METAL_DIRECT_MODE:
            rc = intc->vtable->interrupt_set_vector_mode(intc, mode);
200120c6:	fe842783          	lw	a5,-24(s0)
200120ca:	439c                	lw	a5,0(a5)
200120cc:	43dc                	lw	a5,4(a5)
200120ce:	fd842583          	lw	a1,-40(s0)
200120d2:	fe842503          	lw	a0,-24(s0)
200120d6:	9782                	jalr	a5
200120d8:	fea42623          	sw	a0,-20(s0)
E:/8.AWS-FreeRTOS-HiFive1/Workspace/sifive-hifive1-revb-i2c/freedom-metal/src/drivers/riscv_clint0.c:129
            break;
200120dc:	a011                	j	200120e0 <__metal_driver_riscv_clint0_set_vector_mode+0x46>
E:/8.AWS-FreeRTOS-HiFive1/Workspace/sifive-hifive1-revb-i2c/freedom-metal/src/drivers/riscv_clint0.c:131
        }
    }
200120de:	0001                	nop
E:/8.AWS-FreeRTOS-HiFive1/Workspace/sifive-hifive1-revb-i2c/freedom-metal/src/drivers/riscv_clint0.c:132
    return rc;
200120e0:	fec42783          	lw	a5,-20(s0)
E:/8.AWS-FreeRTOS-HiFive1/Workspace/sifive-hifive1-revb-i2c/freedom-metal/src/drivers/riscv_clint0.c:133
}
200120e4:	853e                	mv	a0,a5
200120e6:	50b2                	lw	ra,44(sp)
200120e8:	5422                	lw	s0,40(sp)
200120ea:	6145                	addi	sp,sp,48
200120ec:	8082                	ret

200120ee <__metal_driver_riscv_clint0_enable>:
__metal_driver_riscv_clint0_enable():
E:/8.AWS-FreeRTOS-HiFive1/Workspace/sifive-hifive1-revb-i2c/freedom-metal/src/drivers/riscv_clint0.c:136

int __metal_driver_riscv_clint0_enable (struct metal_interrupt *controller, int id)
{
200120ee:	7139                	addi	sp,sp,-64
200120f0:	de06                	sw	ra,60(sp)
200120f2:	dc22                	sw	s0,56(sp)
200120f4:	0080                	addi	s0,sp,64
200120f6:	fca42623          	sw	a0,-52(s0)
200120fa:	fcb42423          	sw	a1,-56(s0)
E:/8.AWS-FreeRTOS-HiFive1/Workspace/sifive-hifive1-revb-i2c/freedom-metal/src/drivers/riscv_clint0.c:137
    int rc = -1;
200120fe:	57fd                	li	a5,-1
20012100:	fef42623          	sw	a5,-20(s0)
E:/8.AWS-FreeRTOS-HiFive1/Workspace/sifive-hifive1-revb-i2c/freedom-metal/src/drivers/riscv_clint0.c:139

    if ( id ) {
20012104:	fc842783          	lw	a5,-56(s0)
20012108:	c7c9                	beqz	a5,20012192 <__metal_driver_riscv_clint0_enable+0xa4>
E:/8.AWS-FreeRTOS-HiFive1/Workspace/sifive-hifive1-revb-i2c/freedom-metal/src/drivers/riscv_clint0.c:140
        struct metal_interrupt *intc = NULL;
2001210a:	fe042423          	sw	zero,-24(s0)
E:/8.AWS-FreeRTOS-HiFive1/Workspace/sifive-hifive1-revb-i2c/freedom-metal/src/drivers/riscv_clint0.c:141
        struct metal_interrupt *cpu_intc = _get_cpu_intc();
2001210e:	3b45                	jal	20011ebe <_get_cpu_intc>
20012110:	fea42023          	sw	a0,-32(s0)
E:/8.AWS-FreeRTOS-HiFive1/Workspace/sifive-hifive1-revb-i2c/freedom-metal/src/drivers/riscv_clint0.c:142
	int num_interrupts = __metal_driver_sifive_clint0_num_interrupts(controller);
20012114:	fcc42503          	lw	a0,-52(s0)
20012118:	36cd                	jal	20011cfa <__metal_driver_sifive_clint0_num_interrupts>
2001211a:	fca42e23          	sw	a0,-36(s0)
E:/8.AWS-FreeRTOS-HiFive1/Workspace/sifive-hifive1-revb-i2c/freedom-metal/src/drivers/riscv_clint0.c:144

        for(int i = 0; i < num_interrupts; i++) {
2001211e:	fe042223          	sw	zero,-28(s0)
20012122:	a091                	j	20012166 <__metal_driver_riscv_clint0_enable+0x78>
E:/8.AWS-FreeRTOS-HiFive1/Workspace/sifive-hifive1-revb-i2c/freedom-metal/src/drivers/riscv_clint0.c:145
	    int line = __metal_driver_sifive_clint0_interrupt_lines(controller, i);
20012124:	fe442583          	lw	a1,-28(s0)
20012128:	fcc42503          	lw	a0,-52(s0)
2001212c:	390d                	jal	20011d5e <__metal_driver_sifive_clint0_interrupt_lines>
2001212e:	fca42c23          	sw	a0,-40(s0)
E:/8.AWS-FreeRTOS-HiFive1/Workspace/sifive-hifive1-revb-i2c/freedom-metal/src/drivers/riscv_clint0.c:146
	    intc = __metal_driver_sifive_clint0_interrupt_parents(controller, i);
20012132:	fe442583          	lw	a1,-28(s0)
20012136:	fcc42503          	lw	a0,-52(s0)
2001213a:	36e5                	jal	20011d22 <__metal_driver_sifive_clint0_interrupt_parents>
2001213c:	fea42423          	sw	a0,-24(s0)
E:/8.AWS-FreeRTOS-HiFive1/Workspace/sifive-hifive1-revb-i2c/freedom-metal/src/drivers/riscv_clint0.c:147
            if(cpu_intc == intc && id == line) {
20012140:	fe042703          	lw	a4,-32(s0)
20012144:	fe842783          	lw	a5,-24(s0)
20012148:	00f71863          	bne	a4,a5,20012158 <__metal_driver_riscv_clint0_enable+0x6a>
E:/8.AWS-FreeRTOS-HiFive1/Workspace/sifive-hifive1-revb-i2c/freedom-metal/src/drivers/riscv_clint0.c:147 (discriminator 1)
2001214c:	fc842703          	lw	a4,-56(s0)
20012150:	fd842783          	lw	a5,-40(s0)
20012154:	02f70063          	beq	a4,a5,20012174 <__metal_driver_riscv_clint0_enable+0x86>
E:/8.AWS-FreeRTOS-HiFive1/Workspace/sifive-hifive1-revb-i2c/freedom-metal/src/drivers/riscv_clint0.c:150 (discriminator 2)
                break;
            }
	    intc = NULL;
20012158:	fe042423          	sw	zero,-24(s0)
E:/8.AWS-FreeRTOS-HiFive1/Workspace/sifive-hifive1-revb-i2c/freedom-metal/src/drivers/riscv_clint0.c:144 (discriminator 2)
        for(int i = 0; i < num_interrupts; i++) {
2001215c:	fe442783          	lw	a5,-28(s0)
20012160:	0785                	addi	a5,a5,1
20012162:	fef42223          	sw	a5,-28(s0)
E:/8.AWS-FreeRTOS-HiFive1/Workspace/sifive-hifive1-revb-i2c/freedom-metal/src/drivers/riscv_clint0.c:144 (discriminator 1)
20012166:	fe442703          	lw	a4,-28(s0)
2001216a:	fdc42783          	lw	a5,-36(s0)
2001216e:	faf74be3          	blt	a4,a5,20012124 <__metal_driver_riscv_clint0_enable+0x36>
20012172:	a011                	j	20012176 <__metal_driver_riscv_clint0_enable+0x88>
E:/8.AWS-FreeRTOS-HiFive1/Workspace/sifive-hifive1-revb-i2c/freedom-metal/src/drivers/riscv_clint0.c:148
                break;
20012174:	0001                	nop
E:/8.AWS-FreeRTOS-HiFive1/Workspace/sifive-hifive1-revb-i2c/freedom-metal/src/drivers/riscv_clint0.c:154
        }
        
        /* Enable its interrupts with parent controller */
        if (intc) {
20012176:	fe842783          	lw	a5,-24(s0)
2001217a:	cf81                	beqz	a5,20012192 <__metal_driver_riscv_clint0_enable+0xa4>
E:/8.AWS-FreeRTOS-HiFive1/Workspace/sifive-hifive1-revb-i2c/freedom-metal/src/drivers/riscv_clint0.c:155
            rc = intc->vtable->interrupt_enable(intc, id);
2001217c:	fe842783          	lw	a5,-24(s0)
20012180:	439c                	lw	a5,0(a5)
20012182:	53dc                	lw	a5,36(a5)
20012184:	fc842583          	lw	a1,-56(s0)
20012188:	fe842503          	lw	a0,-24(s0)
2001218c:	9782                	jalr	a5
2001218e:	fea42623          	sw	a0,-20(s0)
E:/8.AWS-FreeRTOS-HiFive1/Workspace/sifive-hifive1-revb-i2c/freedom-metal/src/drivers/riscv_clint0.c:159
        }
    }

    return rc;
20012192:	fec42783          	lw	a5,-20(s0)
E:/8.AWS-FreeRTOS-HiFive1/Workspace/sifive-hifive1-revb-i2c/freedom-metal/src/drivers/riscv_clint0.c:160
}
20012196:	853e                	mv	a0,a5
20012198:	50f2                	lw	ra,60(sp)
2001219a:	5462                	lw	s0,56(sp)
2001219c:	6121                	addi	sp,sp,64
2001219e:	8082                	ret

200121a0 <__metal_driver_riscv_clint0_disable>:
__metal_driver_riscv_clint0_disable():
E:/8.AWS-FreeRTOS-HiFive1/Workspace/sifive-hifive1-revb-i2c/freedom-metal/src/drivers/riscv_clint0.c:163

int __metal_driver_riscv_clint0_disable (struct metal_interrupt *controller, int id)
{
200121a0:	7139                	addi	sp,sp,-64
200121a2:	de06                	sw	ra,60(sp)
200121a4:	dc22                	sw	s0,56(sp)
200121a6:	0080                	addi	s0,sp,64
200121a8:	fca42623          	sw	a0,-52(s0)
200121ac:	fcb42423          	sw	a1,-56(s0)
E:/8.AWS-FreeRTOS-HiFive1/Workspace/sifive-hifive1-revb-i2c/freedom-metal/src/drivers/riscv_clint0.c:164
    int rc = -1;
200121b0:	57fd                	li	a5,-1
200121b2:	fef42623          	sw	a5,-20(s0)
E:/8.AWS-FreeRTOS-HiFive1/Workspace/sifive-hifive1-revb-i2c/freedom-metal/src/drivers/riscv_clint0.c:166

    if ( id ) {
200121b6:	fc842783          	lw	a5,-56(s0)
200121ba:	c7c9                	beqz	a5,20012244 <__metal_driver_riscv_clint0_disable+0xa4>
E:/8.AWS-FreeRTOS-HiFive1/Workspace/sifive-hifive1-revb-i2c/freedom-metal/src/drivers/riscv_clint0.c:167
        struct metal_interrupt *intc = NULL;
200121bc:	fe042423          	sw	zero,-24(s0)
E:/8.AWS-FreeRTOS-HiFive1/Workspace/sifive-hifive1-revb-i2c/freedom-metal/src/drivers/riscv_clint0.c:168
        struct metal_interrupt *cpu_intc = _get_cpu_intc();
200121c0:	39fd                	jal	20011ebe <_get_cpu_intc>
200121c2:	fea42023          	sw	a0,-32(s0)
E:/8.AWS-FreeRTOS-HiFive1/Workspace/sifive-hifive1-revb-i2c/freedom-metal/src/drivers/riscv_clint0.c:169
	int num_interrupts = __metal_driver_sifive_clint0_num_interrupts(controller);
200121c6:	fcc42503          	lw	a0,-52(s0)
200121ca:	3e05                	jal	20011cfa <__metal_driver_sifive_clint0_num_interrupts>
200121cc:	fca42e23          	sw	a0,-36(s0)
E:/8.AWS-FreeRTOS-HiFive1/Workspace/sifive-hifive1-revb-i2c/freedom-metal/src/drivers/riscv_clint0.c:171

        for(int i = 0; i < num_interrupts; i++) {
200121d0:	fe042223          	sw	zero,-28(s0)
200121d4:	a091                	j	20012218 <__metal_driver_riscv_clint0_disable+0x78>
E:/8.AWS-FreeRTOS-HiFive1/Workspace/sifive-hifive1-revb-i2c/freedom-metal/src/drivers/riscv_clint0.c:172
	    int line = __metal_driver_sifive_clint0_interrupt_lines(controller, i);
200121d6:	fe442583          	lw	a1,-28(s0)
200121da:	fcc42503          	lw	a0,-52(s0)
200121de:	3641                	jal	20011d5e <__metal_driver_sifive_clint0_interrupt_lines>
200121e0:	fca42c23          	sw	a0,-40(s0)
E:/8.AWS-FreeRTOS-HiFive1/Workspace/sifive-hifive1-revb-i2c/freedom-metal/src/drivers/riscv_clint0.c:173
	    intc = __metal_driver_sifive_clint0_interrupt_parents(controller, i);
200121e4:	fe442583          	lw	a1,-28(s0)
200121e8:	fcc42503          	lw	a0,-52(s0)
200121ec:	3e1d                	jal	20011d22 <__metal_driver_sifive_clint0_interrupt_parents>
200121ee:	fea42423          	sw	a0,-24(s0)
E:/8.AWS-FreeRTOS-HiFive1/Workspace/sifive-hifive1-revb-i2c/freedom-metal/src/drivers/riscv_clint0.c:174
            if(cpu_intc == intc && id == line) {
200121f2:	fe042703          	lw	a4,-32(s0)
200121f6:	fe842783          	lw	a5,-24(s0)
200121fa:	00f71863          	bne	a4,a5,2001220a <__metal_driver_riscv_clint0_disable+0x6a>
E:/8.AWS-FreeRTOS-HiFive1/Workspace/sifive-hifive1-revb-i2c/freedom-metal/src/drivers/riscv_clint0.c:174 (discriminator 1)
200121fe:	fc842703          	lw	a4,-56(s0)
20012202:	fd842783          	lw	a5,-40(s0)
20012206:	02f70063          	beq	a4,a5,20012226 <__metal_driver_riscv_clint0_disable+0x86>
E:/8.AWS-FreeRTOS-HiFive1/Workspace/sifive-hifive1-revb-i2c/freedom-metal/src/drivers/riscv_clint0.c:177 (discriminator 2)
                break;
            }
	    intc = NULL;
2001220a:	fe042423          	sw	zero,-24(s0)
E:/8.AWS-FreeRTOS-HiFive1/Workspace/sifive-hifive1-revb-i2c/freedom-metal/src/drivers/riscv_clint0.c:171 (discriminator 2)
        for(int i = 0; i < num_interrupts; i++) {
2001220e:	fe442783          	lw	a5,-28(s0)
20012212:	0785                	addi	a5,a5,1
20012214:	fef42223          	sw	a5,-28(s0)
E:/8.AWS-FreeRTOS-HiFive1/Workspace/sifive-hifive1-revb-i2c/freedom-metal/src/drivers/riscv_clint0.c:171 (discriminator 1)
20012218:	fe442703          	lw	a4,-28(s0)
2001221c:	fdc42783          	lw	a5,-36(s0)
20012220:	faf74be3          	blt	a4,a5,200121d6 <__metal_driver_riscv_clint0_disable+0x36>
20012224:	a011                	j	20012228 <__metal_driver_riscv_clint0_disable+0x88>
E:/8.AWS-FreeRTOS-HiFive1/Workspace/sifive-hifive1-revb-i2c/freedom-metal/src/drivers/riscv_clint0.c:175
                break;
20012226:	0001                	nop
E:/8.AWS-FreeRTOS-HiFive1/Workspace/sifive-hifive1-revb-i2c/freedom-metal/src/drivers/riscv_clint0.c:181
        }
        
        /* Disable its interrupts with parent controller */
        if (intc) {
20012228:	fe842783          	lw	a5,-24(s0)
2001222c:	cf81                	beqz	a5,20012244 <__metal_driver_riscv_clint0_disable+0xa4>
E:/8.AWS-FreeRTOS-HiFive1/Workspace/sifive-hifive1-revb-i2c/freedom-metal/src/drivers/riscv_clint0.c:182
            rc = intc->vtable->interrupt_disable(intc, id);
2001222e:	fe842783          	lw	a5,-24(s0)
20012232:	439c                	lw	a5,0(a5)
20012234:	579c                	lw	a5,40(a5)
20012236:	fc842583          	lw	a1,-56(s0)
2001223a:	fe842503          	lw	a0,-24(s0)
2001223e:	9782                	jalr	a5
20012240:	fea42623          	sw	a0,-20(s0)
E:/8.AWS-FreeRTOS-HiFive1/Workspace/sifive-hifive1-revb-i2c/freedom-metal/src/drivers/riscv_clint0.c:186
        }
    }

    return rc;
20012244:	fec42783          	lw	a5,-20(s0)
E:/8.AWS-FreeRTOS-HiFive1/Workspace/sifive-hifive1-revb-i2c/freedom-metal/src/drivers/riscv_clint0.c:187
}
20012248:	853e                	mv	a0,a5
2001224a:	50f2                	lw	ra,60(sp)
2001224c:	5462                	lw	s0,56(sp)
2001224e:	6121                	addi	sp,sp,64
20012250:	8082                	ret

20012252 <__metal_driver_riscv_clint0_command_request>:
__metal_driver_riscv_clint0_command_request():
E:/8.AWS-FreeRTOS-HiFive1/Workspace/sifive-hifive1-revb-i2c/freedom-metal/src/drivers/riscv_clint0.c:191

int __metal_driver_riscv_clint0_command_request (struct metal_interrupt *controller,
                                               int command, void *data)
{
20012252:	7179                	addi	sp,sp,-48
20012254:	d606                	sw	ra,44(sp)
20012256:	d422                	sw	s0,40(sp)
20012258:	1800                	addi	s0,sp,48
2001225a:	fca42e23          	sw	a0,-36(s0)
2001225e:	fcb42c23          	sw	a1,-40(s0)
20012262:	fcc42a23          	sw	a2,-44(s0)
E:/8.AWS-FreeRTOS-HiFive1/Workspace/sifive-hifive1-revb-i2c/freedom-metal/src/drivers/riscv_clint0.c:193
    int hartid;
    int rc = -1;
20012266:	57fd                	li	a5,-1
20012268:	fef42623          	sw	a5,-20(s0)
E:/8.AWS-FreeRTOS-HiFive1/Workspace/sifive-hifive1-revb-i2c/freedom-metal/src/drivers/riscv_clint0.c:194
    struct __metal_driver_riscv_clint0 *clint =
2001226c:	fdc42783          	lw	a5,-36(s0)
20012270:	fef42423          	sw	a5,-24(s0)
E:/8.AWS-FreeRTOS-HiFive1/Workspace/sifive-hifive1-revb-i2c/freedom-metal/src/drivers/riscv_clint0.c:196
                              (struct __metal_driver_riscv_clint0 *)(controller);
    unsigned long control_base = __metal_driver_sifive_clint0_control_base(controller);
20012274:	fdc42503          	lw	a0,-36(s0)
20012278:	a59ff0ef          	jal	ra,20011cd0 <__metal_driver_sifive_clint0_control_base>
2001227c:	fea42223          	sw	a0,-28(s0)
E:/8.AWS-FreeRTOS-HiFive1/Workspace/sifive-hifive1-revb-i2c/freedom-metal/src/drivers/riscv_clint0.c:198

    switch (command) {
20012280:	fd842703          	lw	a4,-40(s0)
20012284:	4789                	li	a5,2
20012286:	04f70963          	beq	a4,a5,200122d8 <__metal_driver_riscv_clint0_command_request+0x86>
2001228a:	fd842703          	lw	a4,-40(s0)
2001228e:	4789                	li	a5,2
20012290:	00e7c863          	blt	a5,a4,200122a0 <__metal_driver_riscv_clint0_command_request+0x4e>
20012294:	fd842703          	lw	a4,-40(s0)
20012298:	4785                	li	a5,1
2001229a:	00f70e63          	beq	a4,a5,200122b6 <__metal_driver_riscv_clint0_command_request+0x64>
E:/8.AWS-FreeRTOS-HiFive1/Workspace/sifive-hifive1-revb-i2c/freedom-metal/src/drivers/riscv_clint0.c:242
            rc = __METAL_ACCESS_ONCE((__metal_io_u32 *)(control_base +
						    (hartid * 4)));
        }
        break;
    default:
	break;
2001229e:	a8f1                	j	2001237a <__metal_driver_riscv_clint0_command_request+0x128>
E:/8.AWS-FreeRTOS-HiFive1/Workspace/sifive-hifive1-revb-i2c/freedom-metal/src/drivers/riscv_clint0.c:198
    switch (command) {
200122a0:	fd842703          	lw	a4,-40(s0)
200122a4:	478d                	li	a5,3
200122a6:	04f70d63          	beq	a4,a5,20012300 <__metal_driver_riscv_clint0_command_request+0xae>
200122aa:	fd842703          	lw	a4,-40(s0)
200122ae:	4791                	li	a5,4
200122b0:	08f70963          	beq	a4,a5,20012342 <__metal_driver_riscv_clint0_command_request+0xf0>
E:/8.AWS-FreeRTOS-HiFive1/Workspace/sifive-hifive1-revb-i2c/freedom-metal/src/drivers/riscv_clint0.c:242
	break;
200122b4:	a0d9                	j	2001237a <__metal_driver_riscv_clint0_command_request+0x128>
E:/8.AWS-FreeRTOS-HiFive1/Workspace/sifive-hifive1-revb-i2c/freedom-metal/src/drivers/riscv_clint0.c:200
        if (data) {
200122b6:	fd442783          	lw	a5,-44(s0)
200122ba:	cbcd                	beqz	a5,2001236c <__metal_driver_riscv_clint0_command_request+0x11a>
E:/8.AWS-FreeRTOS-HiFive1/Workspace/sifive-hifive1-revb-i2c/freedom-metal/src/drivers/riscv_clint0.c:201
	    *(unsigned long long *)data = __metal_clint0_mtime_get(clint);
200122bc:	fe842503          	lw	a0,-24(s0)
200122c0:	acfff0ef          	jal	ra,20011d8e <__metal_clint0_mtime_get>
200122c4:	87aa                	mv	a5,a0
200122c6:	882e                	mv	a6,a1
200122c8:	fd442703          	lw	a4,-44(s0)
200122cc:	c31c                	sw	a5,0(a4)
200122ce:	01072223          	sw	a6,4(a4)
E:/8.AWS-FreeRTOS-HiFive1/Workspace/sifive-hifive1-revb-i2c/freedom-metal/src/drivers/riscv_clint0.c:202
            rc = 0;
200122d2:	fe042623          	sw	zero,-20(s0)
E:/8.AWS-FreeRTOS-HiFive1/Workspace/sifive-hifive1-revb-i2c/freedom-metal/src/drivers/riscv_clint0.c:204
        break;
200122d6:	a859                	j	2001236c <__metal_driver_riscv_clint0_command_request+0x11a>
E:/8.AWS-FreeRTOS-HiFive1/Workspace/sifive-hifive1-revb-i2c/freedom-metal/src/drivers/riscv_clint0.c:206
	if (data) {
200122d8:	fd442783          	lw	a5,-44(s0)
200122dc:	cbd1                	beqz	a5,20012370 <__metal_driver_riscv_clint0_command_request+0x11e>
E:/8.AWS-FreeRTOS-HiFive1/Workspace/sifive-hifive1-revb-i2c/freedom-metal/src/drivers/riscv_clint0.c:207
	    hartid = *(int *)data;
200122de:	fd442783          	lw	a5,-44(s0)
200122e2:	439c                	lw	a5,0(a5)
200122e4:	fef42023          	sw	a5,-32(s0)
E:/8.AWS-FreeRTOS-HiFive1/Workspace/sifive-hifive1-revb-i2c/freedom-metal/src/drivers/riscv_clint0.c:208
            __METAL_ACCESS_ONCE((__metal_io_u32 *)(control_base +
200122e8:	fe042783          	lw	a5,-32(s0)
200122ec:	078a                	slli	a5,a5,0x2
200122ee:	873e                	mv	a4,a5
200122f0:	fe442783          	lw	a5,-28(s0)
200122f4:	97ba                	add	a5,a5,a4
E:/8.AWS-FreeRTOS-HiFive1/Workspace/sifive-hifive1-revb-i2c/freedom-metal/src/drivers/riscv_clint0.c:209
					       (hartid * 4))) = METAL_DISABLE;
200122f6:	0007a023          	sw	zero,0(a5) # 4000 <__heap_size+0x3800>
E:/8.AWS-FreeRTOS-HiFive1/Workspace/sifive-hifive1-revb-i2c/freedom-metal/src/drivers/riscv_clint0.c:210
            rc = 0;
200122fa:	fe042623          	sw	zero,-20(s0)
E:/8.AWS-FreeRTOS-HiFive1/Workspace/sifive-hifive1-revb-i2c/freedom-metal/src/drivers/riscv_clint0.c:212
        break;
200122fe:	a88d                	j	20012370 <__metal_driver_riscv_clint0_command_request+0x11e>
E:/8.AWS-FreeRTOS-HiFive1/Workspace/sifive-hifive1-revb-i2c/freedom-metal/src/drivers/riscv_clint0.c:214
	if (data) {
20012300:	fd442783          	lw	a5,-44(s0)
20012304:	cba5                	beqz	a5,20012374 <__metal_driver_riscv_clint0_command_request+0x122>
E:/8.AWS-FreeRTOS-HiFive1/Workspace/sifive-hifive1-revb-i2c/freedom-metal/src/drivers/riscv_clint0.c:215
	    hartid = *(int *)data;
20012306:	fd442783          	lw	a5,-44(s0)
2001230a:	439c                	lw	a5,0(a5)
2001230c:	fef42023          	sw	a5,-32(s0)
E:/8.AWS-FreeRTOS-HiFive1/Workspace/sifive-hifive1-revb-i2c/freedom-metal/src/drivers/riscv_clint0.c:216
            __METAL_ACCESS_ONCE((__metal_io_u32 *)(control_base +
20012310:	fe042783          	lw	a5,-32(s0)
20012314:	078a                	slli	a5,a5,0x2
20012316:	873e                	mv	a4,a5
20012318:	fe442783          	lw	a5,-28(s0)
2001231c:	97ba                	add	a5,a5,a4
2001231e:	873e                	mv	a4,a5
E:/8.AWS-FreeRTOS-HiFive1/Workspace/sifive-hifive1-revb-i2c/freedom-metal/src/drivers/riscv_clint0.c:217
					       (hartid * 4))) = METAL_ENABLE;
20012320:	4785                	li	a5,1
20012322:	c31c                	sw	a5,0(a4)
E:/8.AWS-FreeRTOS-HiFive1/Workspace/sifive-hifive1-revb-i2c/freedom-metal/src/drivers/riscv_clint0.c:227
	    __METAL_IO_FENCE(o,i);
20012324:	0480000f          	fence	o,i
E:/8.AWS-FreeRTOS-HiFive1/Workspace/sifive-hifive1-revb-i2c/freedom-metal/src/drivers/riscv_clint0.c:228
            rc = __METAL_ACCESS_ONCE((__metal_io_u32 *)(control_base +
20012328:	fe042783          	lw	a5,-32(s0)
2001232c:	078a                	slli	a5,a5,0x2
2001232e:	873e                	mv	a4,a5
20012330:	fe442783          	lw	a5,-28(s0)
20012334:	97ba                	add	a5,a5,a4
20012336:	439c                	lw	a5,0(a5)
20012338:	fef42623          	sw	a5,-20(s0)
E:/8.AWS-FreeRTOS-HiFive1/Workspace/sifive-hifive1-revb-i2c/freedom-metal/src/drivers/riscv_clint0.c:230
            rc = 0;
2001233c:	fe042623          	sw	zero,-20(s0)
E:/8.AWS-FreeRTOS-HiFive1/Workspace/sifive-hifive1-revb-i2c/freedom-metal/src/drivers/riscv_clint0.c:232
        break;
20012340:	a815                	j	20012374 <__metal_driver_riscv_clint0_command_request+0x122>
E:/8.AWS-FreeRTOS-HiFive1/Workspace/sifive-hifive1-revb-i2c/freedom-metal/src/drivers/riscv_clint0.c:234
        rc = 0;
20012342:	fe042623          	sw	zero,-20(s0)
E:/8.AWS-FreeRTOS-HiFive1/Workspace/sifive-hifive1-revb-i2c/freedom-metal/src/drivers/riscv_clint0.c:235
	if (data) {
20012346:	fd442783          	lw	a5,-44(s0)
2001234a:	c79d                	beqz	a5,20012378 <__metal_driver_riscv_clint0_command_request+0x126>
E:/8.AWS-FreeRTOS-HiFive1/Workspace/sifive-hifive1-revb-i2c/freedom-metal/src/drivers/riscv_clint0.c:236
	    hartid = *(int *)data;
2001234c:	fd442783          	lw	a5,-44(s0)
20012350:	439c                	lw	a5,0(a5)
20012352:	fef42023          	sw	a5,-32(s0)
E:/8.AWS-FreeRTOS-HiFive1/Workspace/sifive-hifive1-revb-i2c/freedom-metal/src/drivers/riscv_clint0.c:237
            rc = __METAL_ACCESS_ONCE((__metal_io_u32 *)(control_base +
20012356:	fe042783          	lw	a5,-32(s0)
2001235a:	078a                	slli	a5,a5,0x2
2001235c:	873e                	mv	a4,a5
2001235e:	fe442783          	lw	a5,-28(s0)
20012362:	97ba                	add	a5,a5,a4
20012364:	439c                	lw	a5,0(a5)
20012366:	fef42623          	sw	a5,-20(s0)
E:/8.AWS-FreeRTOS-HiFive1/Workspace/sifive-hifive1-revb-i2c/freedom-metal/src/drivers/riscv_clint0.c:240
        break;
2001236a:	a039                	j	20012378 <__metal_driver_riscv_clint0_command_request+0x126>
E:/8.AWS-FreeRTOS-HiFive1/Workspace/sifive-hifive1-revb-i2c/freedom-metal/src/drivers/riscv_clint0.c:204
        break;
2001236c:	0001                	nop
2001236e:	a031                	j	2001237a <__metal_driver_riscv_clint0_command_request+0x128>
E:/8.AWS-FreeRTOS-HiFive1/Workspace/sifive-hifive1-revb-i2c/freedom-metal/src/drivers/riscv_clint0.c:212
        break;
20012370:	0001                	nop
20012372:	a021                	j	2001237a <__metal_driver_riscv_clint0_command_request+0x128>
E:/8.AWS-FreeRTOS-HiFive1/Workspace/sifive-hifive1-revb-i2c/freedom-metal/src/drivers/riscv_clint0.c:232
        break;
20012374:	0001                	nop
20012376:	a011                	j	2001237a <__metal_driver_riscv_clint0_command_request+0x128>
E:/8.AWS-FreeRTOS-HiFive1/Workspace/sifive-hifive1-revb-i2c/freedom-metal/src/drivers/riscv_clint0.c:240
        break;
20012378:	0001                	nop
E:/8.AWS-FreeRTOS-HiFive1/Workspace/sifive-hifive1-revb-i2c/freedom-metal/src/drivers/riscv_clint0.c:245
    }

    return rc;
2001237a:	fec42783          	lw	a5,-20(s0)
E:/8.AWS-FreeRTOS-HiFive1/Workspace/sifive-hifive1-revb-i2c/freedom-metal/src/drivers/riscv_clint0.c:246
}
2001237e:	853e                	mv	a0,a5
20012380:	50b2                	lw	ra,44(sp)
20012382:	5422                	lw	s0,40(sp)
20012384:	6145                	addi	sp,sp,48
20012386:	8082                	ret

20012388 <__metal_driver_riscv_clint0_clear_interrupt>:
__metal_driver_riscv_clint0_clear_interrupt():
E:/8.AWS-FreeRTOS-HiFive1/Workspace/sifive-hifive1-revb-i2c/freedom-metal/src/drivers/riscv_clint0.c:249

int __metal_driver_riscv_clint0_clear_interrupt (struct metal_interrupt *controller, int id)
{
20012388:	7179                	addi	sp,sp,-48
2001238a:	d606                	sw	ra,44(sp)
2001238c:	d422                	sw	s0,40(sp)
2001238e:	1800                	addi	s0,sp,48
20012390:	fca42e23          	sw	a0,-36(s0)
20012394:	fcb42c23          	sw	a1,-40(s0)
E:/8.AWS-FreeRTOS-HiFive1/Workspace/sifive-hifive1-revb-i2c/freedom-metal/src/drivers/riscv_clint0.c:250
    int hartid = metal_cpu_get_current_hartid();
20012398:	21f030ef          	jal	ra,20015db6 <metal_cpu_get_current_hartid>
2001239c:	87aa                	mv	a5,a0
2001239e:	fef42623          	sw	a5,-20(s0)
E:/8.AWS-FreeRTOS-HiFive1/Workspace/sifive-hifive1-revb-i2c/freedom-metal/src/drivers/riscv_clint0.c:251
    return __metal_driver_riscv_clint0_command_request(controller,
200123a2:	fec40793          	addi	a5,s0,-20
200123a6:	863e                	mv	a2,a5
200123a8:	4589                	li	a1,2
200123aa:	fdc42503          	lw	a0,-36(s0)
200123ae:	3555                	jal	20012252 <__metal_driver_riscv_clint0_command_request>
200123b0:	87aa                	mv	a5,a0
E:/8.AWS-FreeRTOS-HiFive1/Workspace/sifive-hifive1-revb-i2c/freedom-metal/src/drivers/riscv_clint0.c:253
						METAL_SOFTWARE_IPI_CLEAR, &hartid);
}
200123b2:	853e                	mv	a0,a5
200123b4:	50b2                	lw	ra,44(sp)
200123b6:	5422                	lw	s0,40(sp)
200123b8:	6145                	addi	sp,sp,48
200123ba:	8082                	ret

200123bc <__metal_driver_riscv_clint0_set_interrupt>:
__metal_driver_riscv_clint0_set_interrupt():
E:/8.AWS-FreeRTOS-HiFive1/Workspace/sifive-hifive1-revb-i2c/freedom-metal/src/drivers/riscv_clint0.c:256

int __metal_driver_riscv_clint0_set_interrupt (struct metal_interrupt *controller, int id)
{
200123bc:	7179                	addi	sp,sp,-48
200123be:	d606                	sw	ra,44(sp)
200123c0:	d422                	sw	s0,40(sp)
200123c2:	1800                	addi	s0,sp,48
200123c4:	fca42e23          	sw	a0,-36(s0)
200123c8:	fcb42c23          	sw	a1,-40(s0)
E:/8.AWS-FreeRTOS-HiFive1/Workspace/sifive-hifive1-revb-i2c/freedom-metal/src/drivers/riscv_clint0.c:257
    int hartid = metal_cpu_get_current_hartid();
200123cc:	1eb030ef          	jal	ra,20015db6 <metal_cpu_get_current_hartid>
200123d0:	87aa                	mv	a5,a0
200123d2:	fef42623          	sw	a5,-20(s0)
E:/8.AWS-FreeRTOS-HiFive1/Workspace/sifive-hifive1-revb-i2c/freedom-metal/src/drivers/riscv_clint0.c:258
    return __metal_driver_riscv_clint0_command_request(controller,
200123d6:	fec40793          	addi	a5,s0,-20
200123da:	863e                	mv	a2,a5
200123dc:	458d                	li	a1,3
200123de:	fdc42503          	lw	a0,-36(s0)
200123e2:	3d85                	jal	20012252 <__metal_driver_riscv_clint0_command_request>
200123e4:	87aa                	mv	a5,a0
E:/8.AWS-FreeRTOS-HiFive1/Workspace/sifive-hifive1-revb-i2c/freedom-metal/src/drivers/riscv_clint0.c:260
						METAL_SOFTWARE_IPI_SET, &hartid);
}
200123e6:	853e                	mv	a0,a5
200123e8:	50b2                	lw	ra,44(sp)
200123ea:	5422                	lw	s0,40(sp)
200123ec:	6145                	addi	sp,sp,48
200123ee:	8082                	ret

200123f0 <__metal_driver_cpu_hartid>:
__metal_driver_cpu_hartid():
E:\8.AWS-FreeRTOS-HiFive1\Workspace\sifive-hifive1-revb-i2c\bsp\build\debug/./metal/machine.h:262



/* --------------------- cpu ------------ */
static __inline__ int __metal_driver_cpu_hartid(struct metal_cpu *cpu)
{
200123f0:	1101                	addi	sp,sp,-32
200123f2:	ce22                	sw	s0,28(sp)
200123f4:	1000                	addi	s0,sp,32
200123f6:	fea42623          	sw	a0,-20(s0)
E:\8.AWS-FreeRTOS-HiFive1\Workspace\sifive-hifive1-revb-i2c\bsp\build\debug/./metal/machine.h:263
	if ((uintptr_t)cpu == (uintptr_t)&__metal_dt_cpu_0) {
200123fa:	fec42703          	lw	a4,-20(s0)
200123fe:	81418793          	addi	a5,gp,-2028 # 80000a9c <__metal_dt_cpu_0>
20012402:	00f71463          	bne	a4,a5,2001240a <__metal_driver_cpu_hartid+0x1a>
E:\8.AWS-FreeRTOS-HiFive1\Workspace\sifive-hifive1-revb-i2c\bsp\build\debug/./metal/machine.h:264
		return 0;
20012406:	4781                	li	a5,0
20012408:	a011                	j	2001240c <__metal_driver_cpu_hartid+0x1c>
E:\8.AWS-FreeRTOS-HiFive1\Workspace\sifive-hifive1-revb-i2c\bsp\build\debug/./metal/machine.h:267
	}
	else {
		return -1;
2001240a:	57fd                	li	a5,-1
E:\8.AWS-FreeRTOS-HiFive1\Workspace\sifive-hifive1-revb-i2c\bsp\build\debug/./metal/machine.h:269
	}
}
2001240c:	853e                	mv	a0,a5
2001240e:	4472                	lw	s0,28(sp)
20012410:	6105                	addi	sp,sp,32
20012412:	8082                	ret

20012414 <__metal_driver_cpu_timebase>:
__metal_driver_cpu_timebase():
E:\8.AWS-FreeRTOS-HiFive1\Workspace\sifive-hifive1-revb-i2c\bsp\build\debug/./metal/machine.h:272

static __inline__ int __metal_driver_cpu_timebase(struct metal_cpu *cpu)
{
20012414:	1101                	addi	sp,sp,-32
20012416:	ce22                	sw	s0,28(sp)
20012418:	1000                	addi	s0,sp,32
2001241a:	fea42623          	sw	a0,-20(s0)
E:\8.AWS-FreeRTOS-HiFive1\Workspace\sifive-hifive1-revb-i2c\bsp\build\debug/./metal/machine.h:273
	if ((uintptr_t)cpu == (uintptr_t)&__metal_dt_cpu_0) {
2001241e:	fec42703          	lw	a4,-20(s0)
20012422:	81418793          	addi	a5,gp,-2028 # 80000a9c <__metal_dt_cpu_0>
20012426:	00f71763          	bne	a4,a5,20012434 <__metal_driver_cpu_timebase+0x20>
E:\8.AWS-FreeRTOS-HiFive1\Workspace\sifive-hifive1-revb-i2c\bsp\build\debug/./metal/machine.h:274
		return 16000000;
2001242a:	00f427b7          	lui	a5,0xf42
2001242e:	40078793          	addi	a5,a5,1024 # f42400 <__heap_size+0xf41c00>
20012432:	a011                	j	20012436 <__metal_driver_cpu_timebase+0x22>
E:\8.AWS-FreeRTOS-HiFive1\Workspace\sifive-hifive1-revb-i2c\bsp\build\debug/./metal/machine.h:277
	}
	else {
		return 0;
20012434:	4781                	li	a5,0
E:\8.AWS-FreeRTOS-HiFive1\Workspace\sifive-hifive1-revb-i2c\bsp\build\debug/./metal/machine.h:279
	}
}
20012436:	853e                	mv	a0,a5
20012438:	4472                	lw	s0,28(sp)
2001243a:	6105                	addi	sp,sp,32
2001243c:	8082                	ret

2001243e <__metal_driver_cpu_interrupt_controller>:
__metal_driver_cpu_interrupt_controller():
E:\8.AWS-FreeRTOS-HiFive1\Workspace\sifive-hifive1-revb-i2c\bsp\build\debug/./metal/machine.h:282

static __inline__ struct metal_interrupt * __metal_driver_cpu_interrupt_controller(struct metal_cpu *cpu)
{
2001243e:	1101                	addi	sp,sp,-32
20012440:	ce22                	sw	s0,28(sp)
20012442:	1000                	addi	s0,sp,32
20012444:	fea42623          	sw	a0,-20(s0)
E:\8.AWS-FreeRTOS-HiFive1\Workspace\sifive-hifive1-revb-i2c\bsp\build\debug/./metal/machine.h:283
	if ((uintptr_t)cpu == (uintptr_t)&__metal_dt_cpu_0) {
20012448:	fec42703          	lw	a4,-20(s0)
2001244c:	81418793          	addi	a5,gp,-2028 # 80000a9c <__metal_dt_cpu_0>
20012450:	00f71763          	bne	a4,a5,2001245e <__metal_driver_cpu_interrupt_controller+0x20>
E:\8.AWS-FreeRTOS-HiFive1\Workspace\sifive-hifive1-revb-i2c\bsp\build\debug/./metal/machine.h:284
		return &__metal_dt_cpu_0_interrupt_controller.controller;
20012454:	800007b7          	lui	a5,0x80000
20012458:	09078793          	addi	a5,a5,144 # 80000090 <metal_segment_heap_target_end+0xffffe920>
2001245c:	a011                	j	20012460 <__metal_driver_cpu_interrupt_controller+0x22>
E:\8.AWS-FreeRTOS-HiFive1\Workspace\sifive-hifive1-revb-i2c\bsp\build\debug/./metal/machine.h:287
	}
	else {
		return NULL;
2001245e:	4781                	li	a5,0
E:\8.AWS-FreeRTOS-HiFive1\Workspace\sifive-hifive1-revb-i2c\bsp\build\debug/./metal/machine.h:289
	}
}
20012460:	853e                	mv	a0,a5
20012462:	4472                	lw	s0,28(sp)
20012464:	6105                	addi	sp,sp,32
20012466:	8082                	ret

20012468 <__metal_driver_cpu_get>:
__metal_driver_cpu_get():
E:/8.AWS-FreeRTOS-HiFive1/Workspace/sifive-hifive1-revb-i2c/freedom-metal/src/drivers/riscv_cpu.c:14
extern void __metal_vector_table();
unsigned long long __metal_driver_cpu_mtime_get(struct metal_cpu *cpu);
int __metal_driver_cpu_mtimecmp_set(struct metal_cpu *cpu, unsigned long long time);

struct metal_cpu *__metal_driver_cpu_get(int hartid)
{
20012468:	1101                	addi	sp,sp,-32
2001246a:	ce22                	sw	s0,28(sp)
2001246c:	1000                	addi	s0,sp,32
2001246e:	fea42623          	sw	a0,-20(s0)
E:/8.AWS-FreeRTOS-HiFive1/Workspace/sifive-hifive1-revb-i2c/freedom-metal/src/drivers/riscv_cpu.c:15
    if (hartid < __METAL_DT_MAX_HARTS) {
20012472:	fec42783          	lw	a5,-20(s0)
20012476:	00f04c63          	bgtz	a5,2001248e <__metal_driver_cpu_get+0x26>
E:/8.AWS-FreeRTOS-HiFive1/Workspace/sifive-hifive1-revb-i2c/freedom-metal/src/drivers/riscv_cpu.c:16
        return &(__metal_cpu_table[hartid]->cpu);
2001247a:	800017b7          	lui	a5,0x80001
2001247e:	fec42703          	lw	a4,-20(s0)
20012482:	070a                	slli	a4,a4,0x2
20012484:	a8878793          	addi	a5,a5,-1400 # 80000a88 <metal_segment_heap_target_end+0xfffff318>
20012488:	97ba                	add	a5,a5,a4
2001248a:	439c                	lw	a5,0(a5)
2001248c:	a011                	j	20012490 <__metal_driver_cpu_get+0x28>
E:/8.AWS-FreeRTOS-HiFive1/Workspace/sifive-hifive1-revb-i2c/freedom-metal/src/drivers/riscv_cpu.c:18
    }
    return (struct metal_cpu *)NULL;
2001248e:	4781                	li	a5,0
E:/8.AWS-FreeRTOS-HiFive1/Workspace/sifive-hifive1-revb-i2c/freedom-metal/src/drivers/riscv_cpu.c:19
}
20012490:	853e                	mv	a0,a5
20012492:	4472                	lw	s0,28(sp)
20012494:	6105                	addi	sp,sp,32
20012496:	8082                	ret

20012498 <__metal_myhart_id>:
__metal_myhart_id():
E:/8.AWS-FreeRTOS-HiFive1/Workspace/sifive-hifive1-revb-i2c/freedom-metal/src/drivers/riscv_cpu.c:22

uintptr_t __metal_myhart_id (void)
{
20012498:	1101                	addi	sp,sp,-32
2001249a:	ce22                	sw	s0,28(sp)
2001249c:	1000                	addi	s0,sp,32
E:/8.AWS-FreeRTOS-HiFive1/Workspace/sifive-hifive1-revb-i2c/freedom-metal/src/drivers/riscv_cpu.c:24
    uintptr_t myhart;
    __asm__ volatile ("csrr %0, mhartid" : "=r"(myhart));
2001249e:	f14027f3          	csrr	a5,mhartid
200124a2:	fef42623          	sw	a5,-20(s0)
E:/8.AWS-FreeRTOS-HiFive1/Workspace/sifive-hifive1-revb-i2c/freedom-metal/src/drivers/riscv_cpu.c:25
    return myhart;
200124a6:	fec42783          	lw	a5,-20(s0)
E:/8.AWS-FreeRTOS-HiFive1/Workspace/sifive-hifive1-revb-i2c/freedom-metal/src/drivers/riscv_cpu.c:26
}
200124aa:	853e                	mv	a0,a5
200124ac:	4472                	lw	s0,28(sp)
200124ae:	6105                	addi	sp,sp,32
200124b0:	8082                	ret

200124b2 <__metal_interrupt_global_enable>:
__metal_interrupt_global_enable():
E:/8.AWS-FreeRTOS-HiFive1/Workspace/sifive-hifive1-revb-i2c/freedom-metal/src/drivers/riscv_cpu.c:36
    for (ptr = base; ptr < (base + size); ptr++){
        *ptr = 0;
    }
}

void __metal_interrupt_global_enable (void) {
200124b2:	1101                	addi	sp,sp,-32
200124b4:	ce22                	sw	s0,28(sp)
200124b6:	1000                	addi	s0,sp,32
E:/8.AWS-FreeRTOS-HiFive1/Workspace/sifive-hifive1-revb-i2c/freedom-metal/src/drivers/riscv_cpu.c:38
    uintptr_t m;
    __asm__ volatile ("csrrs %0, mstatus, %1" : "=r"(m) : "r"(METAL_MIE_INTERRUPT));
200124b8:	47a1                	li	a5,8
200124ba:	3007a7f3          	csrrs	a5,mstatus,a5
200124be:	fef42623          	sw	a5,-20(s0)
E:/8.AWS-FreeRTOS-HiFive1/Workspace/sifive-hifive1-revb-i2c/freedom-metal/src/drivers/riscv_cpu.c:39
}
200124c2:	0001                	nop
200124c4:	4472                	lw	s0,28(sp)
200124c6:	6105                	addi	sp,sp,32
200124c8:	8082                	ret

200124ca <__metal_interrupt_global_disable>:
__metal_interrupt_global_disable():
E:/8.AWS-FreeRTOS-HiFive1/Workspace/sifive-hifive1-revb-i2c/freedom-metal/src/drivers/riscv_cpu.c:41

void __metal_interrupt_global_disable (void) {
200124ca:	1101                	addi	sp,sp,-32
200124cc:	ce22                	sw	s0,28(sp)
200124ce:	1000                	addi	s0,sp,32
E:/8.AWS-FreeRTOS-HiFive1/Workspace/sifive-hifive1-revb-i2c/freedom-metal/src/drivers/riscv_cpu.c:43
    uintptr_t m;
    __asm__ volatile ("csrrc %0, mstatus, %1" : "=r"(m) : "r"(METAL_MIE_INTERRUPT));
200124d0:	47a1                	li	a5,8
200124d2:	3007b7f3          	csrrc	a5,mstatus,a5
200124d6:	fef42623          	sw	a5,-20(s0)
E:/8.AWS-FreeRTOS-HiFive1/Workspace/sifive-hifive1-revb-i2c/freedom-metal/src/drivers/riscv_cpu.c:44
}
200124da:	0001                	nop
200124dc:	4472                	lw	s0,28(sp)
200124de:	6105                	addi	sp,sp,32
200124e0:	8082                	ret

200124e2 <__metal_interrupt_software_enable>:
__metal_interrupt_software_enable():
E:/8.AWS-FreeRTOS-HiFive1/Workspace/sifive-hifive1-revb-i2c/freedom-metal/src/drivers/riscv_cpu.c:46

void __metal_interrupt_software_enable (void) {
200124e2:	1101                	addi	sp,sp,-32
200124e4:	ce22                	sw	s0,28(sp)
200124e6:	1000                	addi	s0,sp,32
E:/8.AWS-FreeRTOS-HiFive1/Workspace/sifive-hifive1-revb-i2c/freedom-metal/src/drivers/riscv_cpu.c:48
    uintptr_t m;
    __asm__ volatile ("csrrs %0, mie, %1" : "=r"(m) : "r"(METAL_LOCAL_INTERRUPT_SW));
200124e8:	47a1                	li	a5,8
200124ea:	3047a7f3          	csrrs	a5,mie,a5
200124ee:	fef42623          	sw	a5,-20(s0)
E:/8.AWS-FreeRTOS-HiFive1/Workspace/sifive-hifive1-revb-i2c/freedom-metal/src/drivers/riscv_cpu.c:49
}
200124f2:	0001                	nop
200124f4:	4472                	lw	s0,28(sp)
200124f6:	6105                	addi	sp,sp,32
200124f8:	8082                	ret

200124fa <__metal_interrupt_software_disable>:
__metal_interrupt_software_disable():
E:/8.AWS-FreeRTOS-HiFive1/Workspace/sifive-hifive1-revb-i2c/freedom-metal/src/drivers/riscv_cpu.c:51

void __metal_interrupt_software_disable (void) {
200124fa:	1101                	addi	sp,sp,-32
200124fc:	ce22                	sw	s0,28(sp)
200124fe:	1000                	addi	s0,sp,32
E:/8.AWS-FreeRTOS-HiFive1/Workspace/sifive-hifive1-revb-i2c/freedom-metal/src/drivers/riscv_cpu.c:53
    uintptr_t m;
    __asm__ volatile ("csrrc %0, mie, %1" : "=r"(m) : "r"(METAL_LOCAL_INTERRUPT_SW));
20012500:	47a1                	li	a5,8
20012502:	3047b7f3          	csrrc	a5,mie,a5
20012506:	fef42623          	sw	a5,-20(s0)
E:/8.AWS-FreeRTOS-HiFive1/Workspace/sifive-hifive1-revb-i2c/freedom-metal/src/drivers/riscv_cpu.c:54
}
2001250a:	0001                	nop
2001250c:	4472                	lw	s0,28(sp)
2001250e:	6105                	addi	sp,sp,32
20012510:	8082                	ret

20012512 <__metal_interrupt_timer_enable>:
__metal_interrupt_timer_enable():
E:/8.AWS-FreeRTOS-HiFive1/Workspace/sifive-hifive1-revb-i2c/freedom-metal/src/drivers/riscv_cpu.c:56

void __metal_interrupt_timer_enable (void) {
20012512:	1101                	addi	sp,sp,-32
20012514:	ce22                	sw	s0,28(sp)
20012516:	1000                	addi	s0,sp,32
E:/8.AWS-FreeRTOS-HiFive1/Workspace/sifive-hifive1-revb-i2c/freedom-metal/src/drivers/riscv_cpu.c:58
    uintptr_t m;
    __asm__ volatile ("csrrs %0, mie, %1" : "=r"(m) : "r"(METAL_LOCAL_INTERRUPT_TMR));
20012518:	08000793          	li	a5,128
2001251c:	3047a7f3          	csrrs	a5,mie,a5
20012520:	fef42623          	sw	a5,-20(s0)
E:/8.AWS-FreeRTOS-HiFive1/Workspace/sifive-hifive1-revb-i2c/freedom-metal/src/drivers/riscv_cpu.c:59
}
20012524:	0001                	nop
20012526:	4472                	lw	s0,28(sp)
20012528:	6105                	addi	sp,sp,32
2001252a:	8082                	ret

2001252c <__metal_interrupt_timer_disable>:
__metal_interrupt_timer_disable():
E:/8.AWS-FreeRTOS-HiFive1/Workspace/sifive-hifive1-revb-i2c/freedom-metal/src/drivers/riscv_cpu.c:61

void __metal_interrupt_timer_disable (void) {
2001252c:	1101                	addi	sp,sp,-32
2001252e:	ce22                	sw	s0,28(sp)
20012530:	1000                	addi	s0,sp,32
E:/8.AWS-FreeRTOS-HiFive1/Workspace/sifive-hifive1-revb-i2c/freedom-metal/src/drivers/riscv_cpu.c:63
    uintptr_t m;
    __asm__ volatile ("csrrc %0, mie, %1" : "=r"(m) : "r"(METAL_LOCAL_INTERRUPT_TMR));
20012532:	08000793          	li	a5,128
20012536:	3047b7f3          	csrrc	a5,mie,a5
2001253a:	fef42623          	sw	a5,-20(s0)
E:/8.AWS-FreeRTOS-HiFive1/Workspace/sifive-hifive1-revb-i2c/freedom-metal/src/drivers/riscv_cpu.c:64
}
2001253e:	0001                	nop
20012540:	4472                	lw	s0,28(sp)
20012542:	6105                	addi	sp,sp,32
20012544:	8082                	ret

20012546 <__metal_interrupt_external_enable>:
__metal_interrupt_external_enable():
E:/8.AWS-FreeRTOS-HiFive1/Workspace/sifive-hifive1-revb-i2c/freedom-metal/src/drivers/riscv_cpu.c:66

void __metal_interrupt_external_enable (void) {
20012546:	1101                	addi	sp,sp,-32
20012548:	ce22                	sw	s0,28(sp)
2001254a:	1000                	addi	s0,sp,32
E:/8.AWS-FreeRTOS-HiFive1/Workspace/sifive-hifive1-revb-i2c/freedom-metal/src/drivers/riscv_cpu.c:68
    uintptr_t m;
    __asm__ volatile ("csrrs %0, mie, %1" : "=r"(m) : "r"(METAL_LOCAL_INTERRUPT_EXT));
2001254c:	6785                	lui	a5,0x1
2001254e:	80078793          	addi	a5,a5,-2048 # 800 <__heap_size>
20012552:	3047a7f3          	csrrs	a5,mie,a5
20012556:	fef42623          	sw	a5,-20(s0)
E:/8.AWS-FreeRTOS-HiFive1/Workspace/sifive-hifive1-revb-i2c/freedom-metal/src/drivers/riscv_cpu.c:69
}
2001255a:	0001                	nop
2001255c:	4472                	lw	s0,28(sp)
2001255e:	6105                	addi	sp,sp,32
20012560:	8082                	ret

20012562 <__metal_interrupt_external_disable>:
__metal_interrupt_external_disable():
E:/8.AWS-FreeRTOS-HiFive1/Workspace/sifive-hifive1-revb-i2c/freedom-metal/src/drivers/riscv_cpu.c:71

void __metal_interrupt_external_disable (void) {
20012562:	1101                	addi	sp,sp,-32
20012564:	ce22                	sw	s0,28(sp)
20012566:	1000                	addi	s0,sp,32
E:/8.AWS-FreeRTOS-HiFive1/Workspace/sifive-hifive1-revb-i2c/freedom-metal/src/drivers/riscv_cpu.c:73
    unsigned long m;
    __asm__ volatile ("csrrc %0, mie, %1" : "=r"(m) : "r"(METAL_LOCAL_INTERRUPT_EXT));
20012568:	6785                	lui	a5,0x1
2001256a:	80078793          	addi	a5,a5,-2048 # 800 <__heap_size>
2001256e:	3047b7f3          	csrrc	a5,mie,a5
20012572:	fef42623          	sw	a5,-20(s0)
E:/8.AWS-FreeRTOS-HiFive1/Workspace/sifive-hifive1-revb-i2c/freedom-metal/src/drivers/riscv_cpu.c:74
}
20012576:	0001                	nop
20012578:	4472                	lw	s0,28(sp)
2001257a:	6105                	addi	sp,sp,32
2001257c:	8082                	ret

2001257e <__metal_interrupt_local_enable>:
__metal_interrupt_local_enable():
E:/8.AWS-FreeRTOS-HiFive1/Workspace/sifive-hifive1-revb-i2c/freedom-metal/src/drivers/riscv_cpu.c:76

void __metal_interrupt_local_enable (int id) {
2001257e:	7179                	addi	sp,sp,-48
20012580:	d622                	sw	s0,44(sp)
20012582:	1800                	addi	s0,sp,48
20012584:	fca42e23          	sw	a0,-36(s0)
E:/8.AWS-FreeRTOS-HiFive1/Workspace/sifive-hifive1-revb-i2c/freedom-metal/src/drivers/riscv_cpu.c:77
    uintptr_t b = 1 << id;
20012588:	fdc42783          	lw	a5,-36(s0)
2001258c:	4705                	li	a4,1
2001258e:	00f717b3          	sll	a5,a4,a5
20012592:	fef42623          	sw	a5,-20(s0)
E:/8.AWS-FreeRTOS-HiFive1/Workspace/sifive-hifive1-revb-i2c/freedom-metal/src/drivers/riscv_cpu.c:79
    uintptr_t m;
    __asm__ volatile ("csrrs %0, mie, %1" : "=r"(m) : "r"(b));
20012596:	fec42783          	lw	a5,-20(s0)
2001259a:	3047a7f3          	csrrs	a5,mie,a5
2001259e:	fef42423          	sw	a5,-24(s0)
E:/8.AWS-FreeRTOS-HiFive1/Workspace/sifive-hifive1-revb-i2c/freedom-metal/src/drivers/riscv_cpu.c:80
}
200125a2:	0001                	nop
200125a4:	5432                	lw	s0,44(sp)
200125a6:	6145                	addi	sp,sp,48
200125a8:	8082                	ret

200125aa <__metal_interrupt_local_disable>:
__metal_interrupt_local_disable():
E:/8.AWS-FreeRTOS-HiFive1/Workspace/sifive-hifive1-revb-i2c/freedom-metal/src/drivers/riscv_cpu.c:82

void __metal_interrupt_local_disable (int id) {
200125aa:	7179                	addi	sp,sp,-48
200125ac:	d622                	sw	s0,44(sp)
200125ae:	1800                	addi	s0,sp,48
200125b0:	fca42e23          	sw	a0,-36(s0)
E:/8.AWS-FreeRTOS-HiFive1/Workspace/sifive-hifive1-revb-i2c/freedom-metal/src/drivers/riscv_cpu.c:83
    uintptr_t b = 1 << id;
200125b4:	fdc42783          	lw	a5,-36(s0)
200125b8:	4705                	li	a4,1
200125ba:	00f717b3          	sll	a5,a4,a5
200125be:	fef42623          	sw	a5,-20(s0)
E:/8.AWS-FreeRTOS-HiFive1/Workspace/sifive-hifive1-revb-i2c/freedom-metal/src/drivers/riscv_cpu.c:85
    uintptr_t m;
    __asm__ volatile ("csrrc %0, mie, %1" : "=r"(m) : "r"(b));
200125c2:	fec42783          	lw	a5,-20(s0)
200125c6:	3047b7f3          	csrrc	a5,mie,a5
200125ca:	fef42423          	sw	a5,-24(s0)
E:/8.AWS-FreeRTOS-HiFive1/Workspace/sifive-hifive1-revb-i2c/freedom-metal/src/drivers/riscv_cpu.c:86
}
200125ce:	0001                	nop
200125d0:	5432                	lw	s0,44(sp)
200125d2:	6145                	addi	sp,sp,48
200125d4:	8082                	ret

200125d6 <__metal_default_exception_handler>:
__metal_default_exception_handler():
E:/8.AWS-FreeRTOS-HiFive1/Workspace/sifive-hifive1-revb-i2c/freedom-metal/src/drivers/riscv_cpu.c:88

void __metal_default_exception_handler (struct metal_cpu *cpu, int ecode) {
200125d6:	1101                	addi	sp,sp,-32
200125d8:	ce06                	sw	ra,28(sp)
200125da:	cc22                	sw	s0,24(sp)
200125dc:	1000                	addi	s0,sp,32
200125de:	fea42623          	sw	a0,-20(s0)
200125e2:	feb42423          	sw	a1,-24(s0)
E:/8.AWS-FreeRTOS-HiFive1/Workspace/sifive-hifive1-revb-i2c/freedom-metal/src/drivers/riscv_cpu.c:89
    metal_shutdown(100);
200125e6:	06400513          	li	a0,100
200125ea:	7e6030ef          	jal	ra,20015dd0 <metal_shutdown>

200125ee <__metal_default_interrupt_handler>:
__metal_default_interrupt_handler():
E:/8.AWS-FreeRTOS-HiFive1/Workspace/sifive-hifive1-revb-i2c/freedom-metal/src/drivers/riscv_cpu.c:92
}

void __metal_default_interrupt_handler (int id, void *priv) {
200125ee:	1101                	addi	sp,sp,-32
200125f0:	ce06                	sw	ra,28(sp)
200125f2:	cc22                	sw	s0,24(sp)
200125f4:	1000                	addi	s0,sp,32
200125f6:	fea42623          	sw	a0,-20(s0)
200125fa:	feb42423          	sw	a1,-24(s0)
E:/8.AWS-FreeRTOS-HiFive1/Workspace/sifive-hifive1-revb-i2c/freedom-metal/src/drivers/riscv_cpu.c:93
    metal_shutdown(200);
200125fe:	0c800513          	li	a0,200
20012602:	7ce030ef          	jal	ra,20015dd0 <metal_shutdown>

20012606 <metal_interrupt_vector_handler>:
metal_interrupt_vector_handler():
E:/8.AWS-FreeRTOS-HiFive1/Workspace/sifive-hifive1-revb-i2c/freedom-metal/src/drivers/riscv_cpu.c:97
}

/* The metal_interrupt_vector_handler() function can be redefined. */
void __attribute__((weak, interrupt)) metal_interrupt_vector_handler (void) {
20012606:	715d                	addi	sp,sp,-80
20012608:	c686                	sw	ra,76(sp)
2001260a:	c496                	sw	t0,72(sp)
2001260c:	c29a                	sw	t1,68(sp)
2001260e:	c09e                	sw	t2,64(sp)
20012610:	de22                	sw	s0,60(sp)
20012612:	dc2a                	sw	a0,56(sp)
20012614:	da2e                	sw	a1,52(sp)
20012616:	d832                	sw	a2,48(sp)
20012618:	d636                	sw	a3,44(sp)
2001261a:	d43a                	sw	a4,40(sp)
2001261c:	d23e                	sw	a5,36(sp)
2001261e:	d042                	sw	a6,32(sp)
20012620:	ce46                	sw	a7,28(sp)
20012622:	cc72                	sw	t3,24(sp)
20012624:	ca76                	sw	t4,20(sp)
20012626:	c87a                	sw	t5,16(sp)
20012628:	c67e                	sw	t6,12(sp)
2001262a:	0880                	addi	s0,sp,80
E:/8.AWS-FreeRTOS-HiFive1/Workspace/sifive-hifive1-revb-i2c/freedom-metal/src/drivers/riscv_cpu.c:98
    metal_shutdown(300);
2001262c:	12c00513          	li	a0,300
20012630:	7a0030ef          	jal	ra,20015dd0 <metal_shutdown>

20012634 <metal_software_interrupt_vector_handler>:
metal_software_interrupt_vector_handler():
E:/8.AWS-FreeRTOS-HiFive1/Workspace/sifive-hifive1-revb-i2c/freedom-metal/src/drivers/riscv_cpu.c:102
}

/* The metal_software_interrupt_vector_handler() function can be redefined. */
void __attribute__((weak, interrupt)) metal_software_interrupt_vector_handler (void) {
20012634:	711d                	addi	sp,sp,-96
20012636:	ce86                	sw	ra,92(sp)
20012638:	cc96                	sw	t0,88(sp)
2001263a:	ca9a                	sw	t1,84(sp)
2001263c:	c89e                	sw	t2,80(sp)
2001263e:	c6a2                	sw	s0,76(sp)
20012640:	c4aa                	sw	a0,72(sp)
20012642:	c2ae                	sw	a1,68(sp)
20012644:	c0b2                	sw	a2,64(sp)
20012646:	de36                	sw	a3,60(sp)
20012648:	dc3a                	sw	a4,56(sp)
2001264a:	da3e                	sw	a5,52(sp)
2001264c:	d842                	sw	a6,48(sp)
2001264e:	d646                	sw	a7,44(sp)
20012650:	d472                	sw	t3,40(sp)
20012652:	d276                	sw	t4,36(sp)
20012654:	d07a                	sw	t5,32(sp)
20012656:	ce7e                	sw	t6,28(sp)
20012658:	1080                	addi	s0,sp,96
E:/8.AWS-FreeRTOS-HiFive1/Workspace/sifive-hifive1-revb-i2c/freedom-metal/src/drivers/riscv_cpu.c:105
    void *priv;
    struct __metal_driver_riscv_cpu_intc *intc;
    struct __metal_driver_cpu *cpu = __metal_cpu_table[__metal_myhart_id()];
2001265a:	3d3d                	jal	20012498 <__metal_myhart_id>
2001265c:	872a                	mv	a4,a0
2001265e:	800017b7          	lui	a5,0x80001
20012662:	070a                	slli	a4,a4,0x2
20012664:	a8878793          	addi	a5,a5,-1400 # 80000a88 <metal_segment_heap_target_end+0xfffff318>
20012668:	97ba                	add	a5,a5,a4
2001266a:	439c                	lw	a5,0(a5)
2001266c:	faf42623          	sw	a5,-84(s0)
E:/8.AWS-FreeRTOS-HiFive1/Workspace/sifive-hifive1-revb-i2c/freedom-metal/src/drivers/riscv_cpu.c:107

    if ( cpu ) {
20012670:	fac42783          	lw	a5,-84(s0)
20012674:	c785                	beqz	a5,2001269c <metal_software_interrupt_vector_handler+0x68>
E:/8.AWS-FreeRTOS-HiFive1/Workspace/sifive-hifive1-revb-i2c/freedom-metal/src/drivers/riscv_cpu.c:109
        intc = (struct __metal_driver_riscv_cpu_intc *)
          __metal_driver_cpu_interrupt_controller((struct metal_cpu *)cpu);
20012676:	fac42503          	lw	a0,-84(s0)
2001267a:	33d1                	jal	2001243e <__metal_driver_cpu_interrupt_controller>
2001267c:	faa42423          	sw	a0,-88(s0)
E:/8.AWS-FreeRTOS-HiFive1/Workspace/sifive-hifive1-revb-i2c/freedom-metal/src/drivers/riscv_cpu.c:110
        priv = intc->metal_int_table[METAL_INTERRUPT_ID_SW].exint_data;
20012680:	fa842783          	lw	a5,-88(s0)
20012684:	0e07a783          	lw	a5,224(a5)
20012688:	faf42223          	sw	a5,-92(s0)
E:/8.AWS-FreeRTOS-HiFive1/Workspace/sifive-hifive1-revb-i2c/freedom-metal/src/drivers/riscv_cpu.c:111
        intc->metal_int_table[METAL_INTERRUPT_ID_SW].handler(METAL_INTERRUPT_ID_SW, priv);
2001268c:	fa842783          	lw	a5,-88(s0)
20012690:	0d87a783          	lw	a5,216(a5)
20012694:	fa442583          	lw	a1,-92(s0)
20012698:	450d                	li	a0,3
2001269a:	9782                	jalr	a5
E:/8.AWS-FreeRTOS-HiFive1/Workspace/sifive-hifive1-revb-i2c/freedom-metal/src/drivers/riscv_cpu.c:113
    }
}
2001269c:	0001                	nop
2001269e:	40f6                	lw	ra,92(sp)
200126a0:	42e6                	lw	t0,88(sp)
200126a2:	4356                	lw	t1,84(sp)
200126a4:	43c6                	lw	t2,80(sp)
200126a6:	4436                	lw	s0,76(sp)
200126a8:	4526                	lw	a0,72(sp)
200126aa:	4596                	lw	a1,68(sp)
200126ac:	4606                	lw	a2,64(sp)
200126ae:	56f2                	lw	a3,60(sp)
200126b0:	5762                	lw	a4,56(sp)
200126b2:	57d2                	lw	a5,52(sp)
200126b4:	5842                	lw	a6,48(sp)
200126b6:	58b2                	lw	a7,44(sp)
200126b8:	5e22                	lw	t3,40(sp)
200126ba:	5e92                	lw	t4,36(sp)
200126bc:	5f02                	lw	t5,32(sp)
200126be:	4ff2                	lw	t6,28(sp)
200126c0:	6125                	addi	sp,sp,96
200126c2:	30200073          	mret

200126c6 <__metal_default_sw_handler>:
__metal_default_sw_handler():
E:/8.AWS-FreeRTOS-HiFive1/Workspace/sifive-hifive1-revb-i2c/freedom-metal/src/drivers/riscv_cpu.c:115

void __metal_default_sw_handler (int id, void *priv) {
200126c6:	7179                	addi	sp,sp,-48
200126c8:	d606                	sw	ra,44(sp)
200126ca:	d422                	sw	s0,40(sp)
200126cc:	1800                	addi	s0,sp,48
200126ce:	fca42e23          	sw	a0,-36(s0)
200126d2:	fcb42c23          	sw	a1,-40(s0)
E:/8.AWS-FreeRTOS-HiFive1/Workspace/sifive-hifive1-revb-i2c/freedom-metal/src/drivers/riscv_cpu.c:118
    uintptr_t mcause;
    struct __metal_driver_riscv_cpu_intc *intc;
    struct __metal_driver_cpu *cpu = __metal_cpu_table[__metal_myhart_id()];
200126d6:	33c9                	jal	20012498 <__metal_myhart_id>
200126d8:	872a                	mv	a4,a0
200126da:	800017b7          	lui	a5,0x80001
200126de:	070a                	slli	a4,a4,0x2
200126e0:	a8878793          	addi	a5,a5,-1400 # 80000a88 <metal_segment_heap_target_end+0xfffff318>
200126e4:	97ba                	add	a5,a5,a4
200126e6:	439c                	lw	a5,0(a5)
200126e8:	fef42623          	sw	a5,-20(s0)
E:/8.AWS-FreeRTOS-HiFive1/Workspace/sifive-hifive1-revb-i2c/freedom-metal/src/drivers/riscv_cpu.c:120

    __asm__ volatile ("csrr %0, mcause" : "=r"(mcause));
200126ec:	342027f3          	csrr	a5,mcause
200126f0:	fef42423          	sw	a5,-24(s0)
E:/8.AWS-FreeRTOS-HiFive1/Workspace/sifive-hifive1-revb-i2c/freedom-metal/src/drivers/riscv_cpu.c:121
    if ( cpu ) {
200126f4:	fec42783          	lw	a5,-20(s0)
200126f8:	c795                	beqz	a5,20012724 <__metal_default_sw_handler+0x5e>
E:/8.AWS-FreeRTOS-HiFive1/Workspace/sifive-hifive1-revb-i2c/freedom-metal/src/drivers/riscv_cpu.c:123
        intc = (struct __metal_driver_riscv_cpu_intc *)
	  __metal_driver_cpu_interrupt_controller((struct metal_cpu *)cpu);
200126fa:	fec42503          	lw	a0,-20(s0)
200126fe:	3381                	jal	2001243e <__metal_driver_cpu_interrupt_controller>
20012700:	fea42223          	sw	a0,-28(s0)
E:/8.AWS-FreeRTOS-HiFive1/Workspace/sifive-hifive1-revb-i2c/freedom-metal/src/drivers/riscv_cpu.c:124
        intc->metal_exception_table[mcause & METAL_MCAUSE_CAUSE]((struct metal_cpu *)cpu, id);
20012704:	fe842783          	lw	a5,-24(s0)
20012708:	3ff7f793          	andi	a5,a5,1023
2001270c:	fe442703          	lw	a4,-28(s0)
20012710:	0e078793          	addi	a5,a5,224
20012714:	078a                	slli	a5,a5,0x2
20012716:	97ba                	add	a5,a5,a4
20012718:	479c                	lw	a5,8(a5)
2001271a:	fdc42583          	lw	a1,-36(s0)
2001271e:	fec42503          	lw	a0,-20(s0)
20012722:	9782                	jalr	a5
E:/8.AWS-FreeRTOS-HiFive1/Workspace/sifive-hifive1-revb-i2c/freedom-metal/src/drivers/riscv_cpu.c:126
    }
}
20012724:	0001                	nop
20012726:	50b2                	lw	ra,44(sp)
20012728:	5422                	lw	s0,40(sp)
2001272a:	6145                	addi	sp,sp,48
2001272c:	8082                	ret

2001272e <metal_timer_interrupt_vector_handler>:
metal_timer_interrupt_vector_handler():
E:/8.AWS-FreeRTOS-HiFive1/Workspace/sifive-hifive1-revb-i2c/freedom-metal/src/drivers/riscv_cpu.c:129

/* The metal_timer_interrupt_vector_handler() function can be redefined. */
void __attribute__((weak, interrupt)) metal_timer_interrupt_vector_handler (void) {
2001272e:	711d                	addi	sp,sp,-96
20012730:	ce86                	sw	ra,92(sp)
20012732:	cc96                	sw	t0,88(sp)
20012734:	ca9a                	sw	t1,84(sp)
20012736:	c89e                	sw	t2,80(sp)
20012738:	c6a2                	sw	s0,76(sp)
2001273a:	c4aa                	sw	a0,72(sp)
2001273c:	c2ae                	sw	a1,68(sp)
2001273e:	c0b2                	sw	a2,64(sp)
20012740:	de36                	sw	a3,60(sp)
20012742:	dc3a                	sw	a4,56(sp)
20012744:	da3e                	sw	a5,52(sp)
20012746:	d842                	sw	a6,48(sp)
20012748:	d646                	sw	a7,44(sp)
2001274a:	d472                	sw	t3,40(sp)
2001274c:	d276                	sw	t4,36(sp)
2001274e:	d07a                	sw	t5,32(sp)
20012750:	ce7e                	sw	t6,28(sp)
20012752:	1080                	addi	s0,sp,96
E:/8.AWS-FreeRTOS-HiFive1/Workspace/sifive-hifive1-revb-i2c/freedom-metal/src/drivers/riscv_cpu.c:132
    void *priv;
    struct __metal_driver_riscv_cpu_intc *intc;
    struct __metal_driver_cpu *cpu = __metal_cpu_table[__metal_myhart_id()];
20012754:	3391                	jal	20012498 <__metal_myhart_id>
20012756:	872a                	mv	a4,a0
20012758:	800017b7          	lui	a5,0x80001
2001275c:	070a                	slli	a4,a4,0x2
2001275e:	a8878793          	addi	a5,a5,-1400 # 80000a88 <metal_segment_heap_target_end+0xfffff318>
20012762:	97ba                	add	a5,a5,a4
20012764:	439c                	lw	a5,0(a5)
20012766:	faf42623          	sw	a5,-84(s0)
E:/8.AWS-FreeRTOS-HiFive1/Workspace/sifive-hifive1-revb-i2c/freedom-metal/src/drivers/riscv_cpu.c:134

    if ( cpu ) {
2001276a:	fac42783          	lw	a5,-84(s0)
2001276e:	c785                	beqz	a5,20012796 <metal_timer_interrupt_vector_handler+0x68>
E:/8.AWS-FreeRTOS-HiFive1/Workspace/sifive-hifive1-revb-i2c/freedom-metal/src/drivers/riscv_cpu.c:136
        intc = (struct __metal_driver_riscv_cpu_intc *)
          __metal_driver_cpu_interrupt_controller((struct metal_cpu *)cpu);
20012770:	fac42503          	lw	a0,-84(s0)
20012774:	31e9                	jal	2001243e <__metal_driver_cpu_interrupt_controller>
20012776:	faa42423          	sw	a0,-88(s0)
E:/8.AWS-FreeRTOS-HiFive1/Workspace/sifive-hifive1-revb-i2c/freedom-metal/src/drivers/riscv_cpu.c:137
        priv = intc->metal_int_table[METAL_INTERRUPT_ID_TMR].exint_data;
2001277a:	fa842783          	lw	a5,-88(s0)
2001277e:	1407a783          	lw	a5,320(a5)
20012782:	faf42223          	sw	a5,-92(s0)
E:/8.AWS-FreeRTOS-HiFive1/Workspace/sifive-hifive1-revb-i2c/freedom-metal/src/drivers/riscv_cpu.c:138
        intc->metal_int_table[METAL_INTERRUPT_ID_TMR].handler(METAL_INTERRUPT_ID_TMR, priv);
20012786:	fa842783          	lw	a5,-88(s0)
2001278a:	1387a783          	lw	a5,312(a5)
2001278e:	fa442583          	lw	a1,-92(s0)
20012792:	451d                	li	a0,7
20012794:	9782                	jalr	a5
E:/8.AWS-FreeRTOS-HiFive1/Workspace/sifive-hifive1-revb-i2c/freedom-metal/src/drivers/riscv_cpu.c:140
    }
}
20012796:	0001                	nop
20012798:	40f6                	lw	ra,92(sp)
2001279a:	42e6                	lw	t0,88(sp)
2001279c:	4356                	lw	t1,84(sp)
2001279e:	43c6                	lw	t2,80(sp)
200127a0:	4436                	lw	s0,76(sp)
200127a2:	4526                	lw	a0,72(sp)
200127a4:	4596                	lw	a1,68(sp)
200127a6:	4606                	lw	a2,64(sp)
200127a8:	56f2                	lw	a3,60(sp)
200127aa:	5762                	lw	a4,56(sp)
200127ac:	57d2                	lw	a5,52(sp)
200127ae:	5842                	lw	a6,48(sp)
200127b0:	58b2                	lw	a7,44(sp)
200127b2:	5e22                	lw	t3,40(sp)
200127b4:	5e92                	lw	t4,36(sp)
200127b6:	5f02                	lw	t5,32(sp)
200127b8:	4ff2                	lw	t6,28(sp)
200127ba:	6125                	addi	sp,sp,96
200127bc:	30200073          	mret

200127c0 <__metal_default_timer_handler>:
__metal_default_timer_handler():
E:/8.AWS-FreeRTOS-HiFive1/Workspace/sifive-hifive1-revb-i2c/freedom-metal/src/drivers/riscv_cpu.c:142

void __metal_default_timer_handler (int id, void *priv) {
200127c0:	7179                	addi	sp,sp,-48
200127c2:	d606                	sw	ra,44(sp)
200127c4:	d422                	sw	s0,40(sp)
200127c6:	1800                	addi	s0,sp,48
200127c8:	fca42e23          	sw	a0,-36(s0)
200127cc:	fcb42c23          	sw	a1,-40(s0)
E:/8.AWS-FreeRTOS-HiFive1/Workspace/sifive-hifive1-revb-i2c/freedom-metal/src/drivers/riscv_cpu.c:143
    struct metal_cpu *cpu = __metal_driver_cpu_get(__metal_myhart_id());
200127d0:	31e1                	jal	20012498 <__metal_myhart_id>
200127d2:	87aa                	mv	a5,a0
200127d4:	853e                	mv	a0,a5
200127d6:	3949                	jal	20012468 <__metal_driver_cpu_get>
200127d8:	fea42623          	sw	a0,-20(s0)
E:/8.AWS-FreeRTOS-HiFive1/Workspace/sifive-hifive1-revb-i2c/freedom-metal/src/drivers/riscv_cpu.c:144
    unsigned long long time = __metal_driver_cpu_mtime_get(cpu);
200127dc:	fec42503          	lw	a0,-20(s0)
200127e0:	1d0010ef          	jal	ra,200139b0 <__metal_driver_cpu_mtime_get>
200127e4:	fea42023          	sw	a0,-32(s0)
200127e8:	feb42223          	sw	a1,-28(s0)
E:/8.AWS-FreeRTOS-HiFive1/Workspace/sifive-hifive1-revb-i2c/freedom-metal/src/drivers/riscv_cpu.c:147

    /* Set a 10 cycle timer */
    __metal_driver_cpu_mtimecmp_set(cpu, time + 10);
200127ec:	fe042783          	lw	a5,-32(s0)
200127f0:	fe442803          	lw	a6,-28(s0)
200127f4:	45a9                	li	a1,10
200127f6:	4601                	li	a2,0
200127f8:	00b786b3          	add	a3,a5,a1
200127fc:	8536                	mv	a0,a3
200127fe:	00f53533          	sltu	a0,a0,a5
20012802:	00c80733          	add	a4,a6,a2
20012806:	00e507b3          	add	a5,a0,a4
2001280a:	873e                	mv	a4,a5
2001280c:	87b6                	mv	a5,a3
2001280e:	883a                	mv	a6,a4
20012810:	85be                	mv	a1,a5
20012812:	8642                	mv	a2,a6
20012814:	fec42503          	lw	a0,-20(s0)
20012818:	1fe010ef          	jal	ra,20013a16 <__metal_driver_cpu_mtimecmp_set>
E:/8.AWS-FreeRTOS-HiFive1/Workspace/sifive-hifive1-revb-i2c/freedom-metal/src/drivers/riscv_cpu.c:148
}
2001281c:	0001                	nop
2001281e:	50b2                	lw	ra,44(sp)
20012820:	5422                	lw	s0,40(sp)
20012822:	6145                	addi	sp,sp,48
20012824:	8082                	ret
	...

20012880 <__metal_exception_handler>:
__metal_exception_handler():
E:/8.AWS-FreeRTOS-HiFive1/Workspace/sifive-hifive1-revb-i2c/freedom-metal/src/drivers/riscv_cpu.c:165
        intc->metal_int_table[METAL_INTERRUPT_ID_EXT].handler(METAL_INTERRUPT_ID_EXT, priv);
    }
}

void __metal_exception_handler(void) __attribute__((interrupt, aligned(128)));
void __metal_exception_handler (void) {
20012880:	7119                	addi	sp,sp,-128
20012882:	de86                	sw	ra,124(sp)
20012884:	dc96                	sw	t0,120(sp)
20012886:	da9a                	sw	t1,116(sp)
20012888:	d89e                	sw	t2,112(sp)
2001288a:	d6a2                	sw	s0,108(sp)
2001288c:	d4aa                	sw	a0,104(sp)
2001288e:	d2ae                	sw	a1,100(sp)
20012890:	d0b2                	sw	a2,96(sp)
20012892:	ceb6                	sw	a3,92(sp)
20012894:	ccba                	sw	a4,88(sp)
20012896:	cabe                	sw	a5,84(sp)
20012898:	c8c2                	sw	a6,80(sp)
2001289a:	c6c6                	sw	a7,76(sp)
2001289c:	c4f2                	sw	t3,72(sp)
2001289e:	c2f6                	sw	t4,68(sp)
200128a0:	c0fa                	sw	t5,64(sp)
200128a2:	de7e                	sw	t6,60(sp)
200128a4:	0100                	addi	s0,sp,128
E:/8.AWS-FreeRTOS-HiFive1/Workspace/sifive-hifive1-revb-i2c/freedom-metal/src/drivers/riscv_cpu.c:170
    int id;
    void *priv;
    uintptr_t mcause, mepc, mtval, mtvec;
    struct __metal_driver_riscv_cpu_intc *intc;
    struct __metal_driver_cpu *cpu = __metal_cpu_table[__metal_myhart_id()];
200128a6:	3ecd                	jal	20012498 <__metal_myhart_id>
200128a8:	872a                	mv	a4,a0
200128aa:	800017b7          	lui	a5,0x80001
200128ae:	070a                	slli	a4,a4,0x2
200128b0:	a8878793          	addi	a5,a5,-1400 # 80000a88 <metal_segment_heap_target_end+0xfffff318>
200128b4:	97ba                	add	a5,a5,a4
200128b6:	439c                	lw	a5,0(a5)
200128b8:	faf42623          	sw	a5,-84(s0)
E:/8.AWS-FreeRTOS-HiFive1/Workspace/sifive-hifive1-revb-i2c/freedom-metal/src/drivers/riscv_cpu.c:172

    __asm__ volatile ("csrr %0, mcause" : "=r"(mcause));
200128bc:	342027f3          	csrr	a5,mcause
200128c0:	faf42423          	sw	a5,-88(s0)
E:/8.AWS-FreeRTOS-HiFive1/Workspace/sifive-hifive1-revb-i2c/freedom-metal/src/drivers/riscv_cpu.c:173
    __asm__ volatile ("csrr %0, mepc" : "=r"(mepc));
200128c4:	341027f3          	csrr	a5,mepc
200128c8:	faf42223          	sw	a5,-92(s0)
E:/8.AWS-FreeRTOS-HiFive1/Workspace/sifive-hifive1-revb-i2c/freedom-metal/src/drivers/riscv_cpu.c:174
    __asm__ volatile ("csrr %0, mtval" : "=r"(mtval));
200128cc:	343027f3          	csrr	a5,mtval
200128d0:	faf42023          	sw	a5,-96(s0)
E:/8.AWS-FreeRTOS-HiFive1/Workspace/sifive-hifive1-revb-i2c/freedom-metal/src/drivers/riscv_cpu.c:175
    __asm__ volatile ("csrr %0, mtvec" : "=r"(mtvec));
200128d4:	305027f3          	csrr	a5,mtvec
200128d8:	f8f42e23          	sw	a5,-100(s0)
E:/8.AWS-FreeRTOS-HiFive1/Workspace/sifive-hifive1-revb-i2c/freedom-metal/src/drivers/riscv_cpu.c:177

    if ( cpu ) {
200128dc:	fac42783          	lw	a5,-84(s0)
200128e0:	c7e9                	beqz	a5,200129aa <__metal_exception_handler+0x12a>
E:/8.AWS-FreeRTOS-HiFive1/Workspace/sifive-hifive1-revb-i2c/freedom-metal/src/drivers/riscv_cpu.c:179
        intc = (struct __metal_driver_riscv_cpu_intc *)
	  __metal_driver_cpu_interrupt_controller((struct metal_cpu *)cpu);
200128e2:	fac42503          	lw	a0,-84(s0)
200128e6:	b59ff0ef          	jal	ra,2001243e <__metal_driver_cpu_interrupt_controller>
200128ea:	f8a42c23          	sw	a0,-104(s0)
E:/8.AWS-FreeRTOS-HiFive1/Workspace/sifive-hifive1-revb-i2c/freedom-metal/src/drivers/riscv_cpu.c:180
        id = mcause & METAL_MCAUSE_CAUSE;
200128ee:	fa842783          	lw	a5,-88(s0)
200128f2:	3ff7f793          	andi	a5,a5,1023
200128f6:	f8f42a23          	sw	a5,-108(s0)
E:/8.AWS-FreeRTOS-HiFive1/Workspace/sifive-hifive1-revb-i2c/freedom-metal/src/drivers/riscv_cpu.c:181
        if (mcause & METAL_MCAUSE_INTR) {
200128fa:	fa842783          	lw	a5,-88(s0)
200128fe:	0807d863          	bgez	a5,2001298e <__metal_exception_handler+0x10e>
E:/8.AWS-FreeRTOS-HiFive1/Workspace/sifive-hifive1-revb-i2c/freedom-metal/src/drivers/riscv_cpu.c:182
            if ((id < METAL_INTERRUPT_ID_CSW) ||
20012902:	f9442703          	lw	a4,-108(s0)
20012906:	47ad                	li	a5,11
20012908:	00e7d763          	bge	a5,a4,20012916 <__metal_exception_handler+0x96>
E:/8.AWS-FreeRTOS-HiFive1/Workspace/sifive-hifive1-revb-i2c/freedom-metal/src/drivers/riscv_cpu.c:183 (discriminator 1)
               ((mtvec & METAL_MTVEC_MASK) == METAL_MTVEC_DIRECT)) {
2001290c:	f9c42783          	lw	a5,-100(s0)
20012910:	03f7f793          	andi	a5,a5,63
E:/8.AWS-FreeRTOS-HiFive1/Workspace/sifive-hifive1-revb-i2c/freedom-metal/src/drivers/riscv_cpu.c:182 (discriminator 1)
            if ((id < METAL_INTERRUPT_ID_CSW) ||
20012914:	ef9d                	bnez	a5,20012952 <__metal_exception_handler+0xd2>
E:/8.AWS-FreeRTOS-HiFive1/Workspace/sifive-hifive1-revb-i2c/freedom-metal/src/drivers/riscv_cpu.c:184
                priv = intc->metal_int_table[id].exint_data;
20012916:	f9842683          	lw	a3,-104(s0)
2001291a:	f9442703          	lw	a4,-108(s0)
2001291e:	87ba                	mv	a5,a4
20012920:	0786                	slli	a5,a5,0x1
20012922:	97ba                	add	a5,a5,a4
20012924:	078e                	slli	a5,a5,0x3
20012926:	97b6                	add	a5,a5,a3
20012928:	0987a783          	lw	a5,152(a5)
2001292c:	f8f42623          	sw	a5,-116(s0)
E:/8.AWS-FreeRTOS-HiFive1/Workspace/sifive-hifive1-revb-i2c/freedom-metal/src/drivers/riscv_cpu.c:185
                intc->metal_int_table[id].handler(id, priv);
20012930:	f9842683          	lw	a3,-104(s0)
20012934:	f9442703          	lw	a4,-108(s0)
20012938:	87ba                	mv	a5,a4
2001293a:	0786                	slli	a5,a5,0x1
2001293c:	97ba                	add	a5,a5,a4
2001293e:	078e                	slli	a5,a5,0x3
20012940:	97b6                	add	a5,a5,a3
20012942:	0907a783          	lw	a5,144(a5)
20012946:	f8c42583          	lw	a1,-116(s0)
2001294a:	f9442503          	lw	a0,-108(s0)
2001294e:	9782                	jalr	a5
E:/8.AWS-FreeRTOS-HiFive1/Workspace/sifive-hifive1-revb-i2c/freedom-metal/src/drivers/riscv_cpu.c:186
		return;
20012950:	a8a9                	j	200129aa <__metal_exception_handler+0x12a>
E:/8.AWS-FreeRTOS-HiFive1/Workspace/sifive-hifive1-revb-i2c/freedom-metal/src/drivers/riscv_cpu.c:188
            }
            if ((mtvec & METAL_MTVEC_MASK) == METAL_MTVEC_CLIC) {
20012952:	f9c42783          	lw	a5,-100(s0)
20012956:	03f7f713          	andi	a4,a5,63
2001295a:	4789                	li	a5,2
2001295c:	04f71763          	bne	a4,a5,200129aa <__metal_exception_handler+0x12a>
E:/8.AWS-FreeRTOS-HiFive1/Workspace/sifive-hifive1-revb-i2c/freedom-metal/src/drivers/riscv_cpu.c:192
    		uintptr_t mtvt;
    		metal_interrupt_handler_t mtvt_handler;

                __asm__ volatile ("csrr %0, 0x307" : "=r"(mtvt));
20012960:	307027f3          	csrr	a5,mtvt
20012964:	f8f42823          	sw	a5,-112(s0)
E:/8.AWS-FreeRTOS-HiFive1/Workspace/sifive-hifive1-revb-i2c/freedom-metal/src/drivers/riscv_cpu.c:193
               	priv = intc->metal_int_table[METAL_INTERRUPT_ID_SW].sub_int;
20012968:	f9842783          	lw	a5,-104(s0)
2001296c:	0dc7a783          	lw	a5,220(a5)
20012970:	f8f42623          	sw	a5,-116(s0)
E:/8.AWS-FreeRTOS-HiFive1/Workspace/sifive-hifive1-revb-i2c/freedom-metal/src/drivers/riscv_cpu.c:194
               	mtvt_handler = (metal_interrupt_handler_t)*(uintptr_t *)mtvt;
20012974:	f9042783          	lw	a5,-112(s0)
20012978:	439c                	lw	a5,0(a5)
2001297a:	f8f42423          	sw	a5,-120(s0)
E:/8.AWS-FreeRTOS-HiFive1/Workspace/sifive-hifive1-revb-i2c/freedom-metal/src/drivers/riscv_cpu.c:195
               	mtvt_handler(id, priv);
2001297e:	f8842783          	lw	a5,-120(s0)
20012982:	f8c42583          	lw	a1,-116(s0)
20012986:	f9442503          	lw	a0,-108(s0)
2001298a:	9782                	jalr	a5
E:/8.AWS-FreeRTOS-HiFive1/Workspace/sifive-hifive1-revb-i2c/freedom-metal/src/drivers/riscv_cpu.c:196
		return;
2001298c:	a839                	j	200129aa <__metal_exception_handler+0x12a>
E:/8.AWS-FreeRTOS-HiFive1/Workspace/sifive-hifive1-revb-i2c/freedom-metal/src/drivers/riscv_cpu.c:199
            }
        } else {
            intc->metal_exception_table[id]((struct metal_cpu *)cpu, id);
2001298e:	f9842703          	lw	a4,-104(s0)
20012992:	f9442783          	lw	a5,-108(s0)
20012996:	0e078793          	addi	a5,a5,224
2001299a:	078a                	slli	a5,a5,0x2
2001299c:	97ba                	add	a5,a5,a4
2001299e:	479c                	lw	a5,8(a5)
200129a0:	f9442583          	lw	a1,-108(s0)
200129a4:	fac42503          	lw	a0,-84(s0)
200129a8:	9782                	jalr	a5
E:/8.AWS-FreeRTOS-HiFive1/Workspace/sifive-hifive1-revb-i2c/freedom-metal/src/drivers/riscv_cpu.c:202
        }
    }
}
200129aa:	50f6                	lw	ra,124(sp)
200129ac:	52e6                	lw	t0,120(sp)
200129ae:	5356                	lw	t1,116(sp)
200129b0:	53c6                	lw	t2,112(sp)
200129b2:	5436                	lw	s0,108(sp)
200129b4:	5526                	lw	a0,104(sp)
200129b6:	5596                	lw	a1,100(sp)
200129b8:	5606                	lw	a2,96(sp)
200129ba:	46f6                	lw	a3,92(sp)
200129bc:	4766                	lw	a4,88(sp)
200129be:	47d6                	lw	a5,84(sp)
200129c0:	4846                	lw	a6,80(sp)
200129c2:	48b6                	lw	a7,76(sp)
200129c4:	4e26                	lw	t3,72(sp)
200129c6:	4e96                	lw	t4,68(sp)
200129c8:	4f06                	lw	t5,64(sp)
200129ca:	5ff2                	lw	t6,60(sp)
200129cc:	6109                	addi	sp,sp,128
200129ce:	30200073          	mret
	...

200129f8 <metal_lc0_interrupt_vector_handler>:
metal_lc0_interrupt_vector_handler():
E:/8.AWS-FreeRTOS-HiFive1/Workspace/sifive-hifive1-revb-i2c/freedom-metal/src/drivers/riscv_cpu.c:205

/* The metal_lc0_interrupt_vector_handler() function can be redefined. */
void __attribute__((weak, interrupt)) metal_lc0_interrupt_vector_handler (void) {
200129f8:	711d                	addi	sp,sp,-96
200129fa:	ce86                	sw	ra,92(sp)
200129fc:	cc96                	sw	t0,88(sp)
200129fe:	ca9a                	sw	t1,84(sp)
20012a00:	c89e                	sw	t2,80(sp)
20012a02:	c6a2                	sw	s0,76(sp)
20012a04:	c4aa                	sw	a0,72(sp)
20012a06:	c2ae                	sw	a1,68(sp)
20012a08:	c0b2                	sw	a2,64(sp)
20012a0a:	de36                	sw	a3,60(sp)
20012a0c:	dc3a                	sw	a4,56(sp)
20012a0e:	da3e                	sw	a5,52(sp)
20012a10:	d842                	sw	a6,48(sp)
20012a12:	d646                	sw	a7,44(sp)
20012a14:	d472                	sw	t3,40(sp)
20012a16:	d276                	sw	t4,36(sp)
20012a18:	d07a                	sw	t5,32(sp)
20012a1a:	ce7e                	sw	t6,28(sp)
20012a1c:	1080                	addi	s0,sp,96
E:/8.AWS-FreeRTOS-HiFive1/Workspace/sifive-hifive1-revb-i2c/freedom-metal/src/drivers/riscv_cpu.c:208
    void *priv;
    struct __metal_driver_riscv_cpu_intc *intc;
    struct __metal_driver_cpu *cpu = __metal_cpu_table[__metal_myhart_id()];
20012a1e:	a7bff0ef          	jal	ra,20012498 <__metal_myhart_id>
20012a22:	872a                	mv	a4,a0
20012a24:	800017b7          	lui	a5,0x80001
20012a28:	070a                	slli	a4,a4,0x2
20012a2a:	a8878793          	addi	a5,a5,-1400 # 80000a88 <metal_segment_heap_target_end+0xfffff318>
20012a2e:	97ba                	add	a5,a5,a4
20012a30:	439c                	lw	a5,0(a5)
20012a32:	faf42623          	sw	a5,-84(s0)
E:/8.AWS-FreeRTOS-HiFive1/Workspace/sifive-hifive1-revb-i2c/freedom-metal/src/drivers/riscv_cpu.c:210

    if ( cpu ) {
20012a36:	fac42783          	lw	a5,-84(s0)
20012a3a:	c78d                	beqz	a5,20012a64 <metal_lc0_interrupt_vector_handler+0x6c>
E:/8.AWS-FreeRTOS-HiFive1/Workspace/sifive-hifive1-revb-i2c/freedom-metal/src/drivers/riscv_cpu.c:212
        intc = (struct __metal_driver_riscv_cpu_intc *)
          __metal_driver_cpu_interrupt_controller((struct metal_cpu *)cpu);
20012a3c:	fac42503          	lw	a0,-84(s0)
20012a40:	9ffff0ef          	jal	ra,2001243e <__metal_driver_cpu_interrupt_controller>
20012a44:	faa42423          	sw	a0,-88(s0)
E:/8.AWS-FreeRTOS-HiFive1/Workspace/sifive-hifive1-revb-i2c/freedom-metal/src/drivers/riscv_cpu.c:213
        priv = intc->metal_int_table[METAL_INTERRUPT_ID_LC0].exint_data;
20012a48:	fa842783          	lw	a5,-88(s0)
20012a4c:	2187a783          	lw	a5,536(a5)
20012a50:	faf42223          	sw	a5,-92(s0)
E:/8.AWS-FreeRTOS-HiFive1/Workspace/sifive-hifive1-revb-i2c/freedom-metal/src/drivers/riscv_cpu.c:214
        intc->metal_int_table[METAL_INTERRUPT_ID_LC0].handler(METAL_INTERRUPT_ID_LC0, priv);
20012a54:	fa842783          	lw	a5,-88(s0)
20012a58:	2107a783          	lw	a5,528(a5)
20012a5c:	fa442583          	lw	a1,-92(s0)
20012a60:	4541                	li	a0,16
20012a62:	9782                	jalr	a5
E:/8.AWS-FreeRTOS-HiFive1/Workspace/sifive-hifive1-revb-i2c/freedom-metal/src/drivers/riscv_cpu.c:216
    }
}
20012a64:	0001                	nop
20012a66:	40f6                	lw	ra,92(sp)
20012a68:	42e6                	lw	t0,88(sp)
20012a6a:	4356                	lw	t1,84(sp)
20012a6c:	43c6                	lw	t2,80(sp)
20012a6e:	4436                	lw	s0,76(sp)
20012a70:	4526                	lw	a0,72(sp)
20012a72:	4596                	lw	a1,68(sp)
20012a74:	4606                	lw	a2,64(sp)
20012a76:	56f2                	lw	a3,60(sp)
20012a78:	5762                	lw	a4,56(sp)
20012a7a:	57d2                	lw	a5,52(sp)
20012a7c:	5842                	lw	a6,48(sp)
20012a7e:	58b2                	lw	a7,44(sp)
20012a80:	5e22                	lw	t3,40(sp)
20012a82:	5e92                	lw	t4,36(sp)
20012a84:	5f02                	lw	t5,32(sp)
20012a86:	4ff2                	lw	t6,28(sp)
20012a88:	6125                	addi	sp,sp,96
20012a8a:	30200073          	mret

20012a8e <metal_lc1_interrupt_vector_handler>:
metal_lc1_interrupt_vector_handler():
E:/8.AWS-FreeRTOS-HiFive1/Workspace/sifive-hifive1-revb-i2c/freedom-metal/src/drivers/riscv_cpu.c:219

/* The metal_lc1_interrupt_vector_handler() function can be redefined. */
void __attribute__((weak, interrupt)) metal_lc1_interrupt_vector_handler (void) {
20012a8e:	711d                	addi	sp,sp,-96
20012a90:	ce86                	sw	ra,92(sp)
20012a92:	cc96                	sw	t0,88(sp)
20012a94:	ca9a                	sw	t1,84(sp)
20012a96:	c89e                	sw	t2,80(sp)
20012a98:	c6a2                	sw	s0,76(sp)
20012a9a:	c4aa                	sw	a0,72(sp)
20012a9c:	c2ae                	sw	a1,68(sp)
20012a9e:	c0b2                	sw	a2,64(sp)
20012aa0:	de36                	sw	a3,60(sp)
20012aa2:	dc3a                	sw	a4,56(sp)
20012aa4:	da3e                	sw	a5,52(sp)
20012aa6:	d842                	sw	a6,48(sp)
20012aa8:	d646                	sw	a7,44(sp)
20012aaa:	d472                	sw	t3,40(sp)
20012aac:	d276                	sw	t4,36(sp)
20012aae:	d07a                	sw	t5,32(sp)
20012ab0:	ce7e                	sw	t6,28(sp)
20012ab2:	1080                	addi	s0,sp,96
E:/8.AWS-FreeRTOS-HiFive1/Workspace/sifive-hifive1-revb-i2c/freedom-metal/src/drivers/riscv_cpu.c:222
    void *priv;
    struct __metal_driver_riscv_cpu_intc *intc;
    struct __metal_driver_cpu *cpu = __metal_cpu_table[__metal_myhart_id()];
20012ab4:	9e5ff0ef          	jal	ra,20012498 <__metal_myhart_id>
20012ab8:	872a                	mv	a4,a0
20012aba:	800017b7          	lui	a5,0x80001
20012abe:	070a                	slli	a4,a4,0x2
20012ac0:	a8878793          	addi	a5,a5,-1400 # 80000a88 <metal_segment_heap_target_end+0xfffff318>
20012ac4:	97ba                	add	a5,a5,a4
20012ac6:	439c                	lw	a5,0(a5)
20012ac8:	faf42623          	sw	a5,-84(s0)
E:/8.AWS-FreeRTOS-HiFive1/Workspace/sifive-hifive1-revb-i2c/freedom-metal/src/drivers/riscv_cpu.c:224

    if ( cpu ) {
20012acc:	fac42783          	lw	a5,-84(s0)
20012ad0:	c78d                	beqz	a5,20012afa <metal_lc1_interrupt_vector_handler+0x6c>
E:/8.AWS-FreeRTOS-HiFive1/Workspace/sifive-hifive1-revb-i2c/freedom-metal/src/drivers/riscv_cpu.c:226
        intc = (struct __metal_driver_riscv_cpu_intc *)
          __metal_driver_cpu_interrupt_controller((struct metal_cpu *)cpu);
20012ad2:	fac42503          	lw	a0,-84(s0)
20012ad6:	969ff0ef          	jal	ra,2001243e <__metal_driver_cpu_interrupt_controller>
20012ada:	faa42423          	sw	a0,-88(s0)
E:/8.AWS-FreeRTOS-HiFive1/Workspace/sifive-hifive1-revb-i2c/freedom-metal/src/drivers/riscv_cpu.c:227
        priv = intc->metal_int_table[METAL_INTERRUPT_ID_LC1].exint_data;
20012ade:	fa842783          	lw	a5,-88(s0)
20012ae2:	2307a783          	lw	a5,560(a5)
20012ae6:	faf42223          	sw	a5,-92(s0)
E:/8.AWS-FreeRTOS-HiFive1/Workspace/sifive-hifive1-revb-i2c/freedom-metal/src/drivers/riscv_cpu.c:228
        intc->metal_int_table[METAL_INTERRUPT_ID_LC1].handler(METAL_INTERRUPT_ID_LC1, priv);
20012aea:	fa842783          	lw	a5,-88(s0)
20012aee:	2287a783          	lw	a5,552(a5)
20012af2:	fa442583          	lw	a1,-92(s0)
20012af6:	4545                	li	a0,17
20012af8:	9782                	jalr	a5
E:/8.AWS-FreeRTOS-HiFive1/Workspace/sifive-hifive1-revb-i2c/freedom-metal/src/drivers/riscv_cpu.c:230
    }
}
20012afa:	0001                	nop
20012afc:	40f6                	lw	ra,92(sp)
20012afe:	42e6                	lw	t0,88(sp)
20012b00:	4356                	lw	t1,84(sp)
20012b02:	43c6                	lw	t2,80(sp)
20012b04:	4436                	lw	s0,76(sp)
20012b06:	4526                	lw	a0,72(sp)
20012b08:	4596                	lw	a1,68(sp)
20012b0a:	4606                	lw	a2,64(sp)
20012b0c:	56f2                	lw	a3,60(sp)
20012b0e:	5762                	lw	a4,56(sp)
20012b10:	57d2                	lw	a5,52(sp)
20012b12:	5842                	lw	a6,48(sp)
20012b14:	58b2                	lw	a7,44(sp)
20012b16:	5e22                	lw	t3,40(sp)
20012b18:	5e92                	lw	t4,36(sp)
20012b1a:	5f02                	lw	t5,32(sp)
20012b1c:	4ff2                	lw	t6,28(sp)
20012b1e:	6125                	addi	sp,sp,96
20012b20:	30200073          	mret

20012b24 <metal_lc2_interrupt_vector_handler>:
metal_lc2_interrupt_vector_handler():
E:/8.AWS-FreeRTOS-HiFive1/Workspace/sifive-hifive1-revb-i2c/freedom-metal/src/drivers/riscv_cpu.c:233

/* The metal_lc2_interrupt_vector_handler() function can be redefined. */
void __attribute__((weak, interrupt)) metal_lc2_interrupt_vector_handler (void) {
20012b24:	711d                	addi	sp,sp,-96
20012b26:	ce86                	sw	ra,92(sp)
20012b28:	cc96                	sw	t0,88(sp)
20012b2a:	ca9a                	sw	t1,84(sp)
20012b2c:	c89e                	sw	t2,80(sp)
20012b2e:	c6a2                	sw	s0,76(sp)
20012b30:	c4aa                	sw	a0,72(sp)
20012b32:	c2ae                	sw	a1,68(sp)
20012b34:	c0b2                	sw	a2,64(sp)
20012b36:	de36                	sw	a3,60(sp)
20012b38:	dc3a                	sw	a4,56(sp)
20012b3a:	da3e                	sw	a5,52(sp)
20012b3c:	d842                	sw	a6,48(sp)
20012b3e:	d646                	sw	a7,44(sp)
20012b40:	d472                	sw	t3,40(sp)
20012b42:	d276                	sw	t4,36(sp)
20012b44:	d07a                	sw	t5,32(sp)
20012b46:	ce7e                	sw	t6,28(sp)
20012b48:	1080                	addi	s0,sp,96
E:/8.AWS-FreeRTOS-HiFive1/Workspace/sifive-hifive1-revb-i2c/freedom-metal/src/drivers/riscv_cpu.c:236
    void *priv;
    struct __metal_driver_riscv_cpu_intc *intc;
    struct __metal_driver_cpu *cpu = __metal_cpu_table[__metal_myhart_id()];
20012b4a:	94fff0ef          	jal	ra,20012498 <__metal_myhart_id>
20012b4e:	872a                	mv	a4,a0
20012b50:	800017b7          	lui	a5,0x80001
20012b54:	070a                	slli	a4,a4,0x2
20012b56:	a8878793          	addi	a5,a5,-1400 # 80000a88 <metal_segment_heap_target_end+0xfffff318>
20012b5a:	97ba                	add	a5,a5,a4
20012b5c:	439c                	lw	a5,0(a5)
20012b5e:	faf42623          	sw	a5,-84(s0)
E:/8.AWS-FreeRTOS-HiFive1/Workspace/sifive-hifive1-revb-i2c/freedom-metal/src/drivers/riscv_cpu.c:238

    if ( cpu ) {
20012b62:	fac42783          	lw	a5,-84(s0)
20012b66:	c78d                	beqz	a5,20012b90 <metal_lc2_interrupt_vector_handler+0x6c>
E:/8.AWS-FreeRTOS-HiFive1/Workspace/sifive-hifive1-revb-i2c/freedom-metal/src/drivers/riscv_cpu.c:240
        intc = (struct __metal_driver_riscv_cpu_intc *)
          __metal_driver_cpu_interrupt_controller((struct metal_cpu *)cpu);
20012b68:	fac42503          	lw	a0,-84(s0)
20012b6c:	8d3ff0ef          	jal	ra,2001243e <__metal_driver_cpu_interrupt_controller>
20012b70:	faa42423          	sw	a0,-88(s0)
E:/8.AWS-FreeRTOS-HiFive1/Workspace/sifive-hifive1-revb-i2c/freedom-metal/src/drivers/riscv_cpu.c:241
        priv = intc->metal_int_table[METAL_INTERRUPT_ID_LC2].exint_data;
20012b74:	fa842783          	lw	a5,-88(s0)
20012b78:	2487a783          	lw	a5,584(a5)
20012b7c:	faf42223          	sw	a5,-92(s0)
E:/8.AWS-FreeRTOS-HiFive1/Workspace/sifive-hifive1-revb-i2c/freedom-metal/src/drivers/riscv_cpu.c:242
        intc->metal_int_table[METAL_INTERRUPT_ID_LC2].handler(METAL_INTERRUPT_ID_LC2, priv);
20012b80:	fa842783          	lw	a5,-88(s0)
20012b84:	2407a783          	lw	a5,576(a5)
20012b88:	fa442583          	lw	a1,-92(s0)
20012b8c:	4549                	li	a0,18
20012b8e:	9782                	jalr	a5
E:/8.AWS-FreeRTOS-HiFive1/Workspace/sifive-hifive1-revb-i2c/freedom-metal/src/drivers/riscv_cpu.c:244
    }
}
20012b90:	0001                	nop
20012b92:	40f6                	lw	ra,92(sp)
20012b94:	42e6                	lw	t0,88(sp)
20012b96:	4356                	lw	t1,84(sp)
20012b98:	43c6                	lw	t2,80(sp)
20012b9a:	4436                	lw	s0,76(sp)
20012b9c:	4526                	lw	a0,72(sp)
20012b9e:	4596                	lw	a1,68(sp)
20012ba0:	4606                	lw	a2,64(sp)
20012ba2:	56f2                	lw	a3,60(sp)
20012ba4:	5762                	lw	a4,56(sp)
20012ba6:	57d2                	lw	a5,52(sp)
20012ba8:	5842                	lw	a6,48(sp)
20012baa:	58b2                	lw	a7,44(sp)
20012bac:	5e22                	lw	t3,40(sp)
20012bae:	5e92                	lw	t4,36(sp)
20012bb0:	5f02                	lw	t5,32(sp)
20012bb2:	4ff2                	lw	t6,28(sp)
20012bb4:	6125                	addi	sp,sp,96
20012bb6:	30200073          	mret

20012bba <metal_lc3_interrupt_vector_handler>:
metal_lc3_interrupt_vector_handler():
E:/8.AWS-FreeRTOS-HiFive1/Workspace/sifive-hifive1-revb-i2c/freedom-metal/src/drivers/riscv_cpu.c:247

/* The metal_lc3_interrupt_vector_handler() function can be redefined. */
void __attribute__((weak, interrupt)) metal_lc3_interrupt_vector_handler (void) {
20012bba:	711d                	addi	sp,sp,-96
20012bbc:	ce86                	sw	ra,92(sp)
20012bbe:	cc96                	sw	t0,88(sp)
20012bc0:	ca9a                	sw	t1,84(sp)
20012bc2:	c89e                	sw	t2,80(sp)
20012bc4:	c6a2                	sw	s0,76(sp)
20012bc6:	c4aa                	sw	a0,72(sp)
20012bc8:	c2ae                	sw	a1,68(sp)
20012bca:	c0b2                	sw	a2,64(sp)
20012bcc:	de36                	sw	a3,60(sp)
20012bce:	dc3a                	sw	a4,56(sp)
20012bd0:	da3e                	sw	a5,52(sp)
20012bd2:	d842                	sw	a6,48(sp)
20012bd4:	d646                	sw	a7,44(sp)
20012bd6:	d472                	sw	t3,40(sp)
20012bd8:	d276                	sw	t4,36(sp)
20012bda:	d07a                	sw	t5,32(sp)
20012bdc:	ce7e                	sw	t6,28(sp)
20012bde:	1080                	addi	s0,sp,96
E:/8.AWS-FreeRTOS-HiFive1/Workspace/sifive-hifive1-revb-i2c/freedom-metal/src/drivers/riscv_cpu.c:250
    void *priv;
    struct __metal_driver_riscv_cpu_intc *intc;
    struct __metal_driver_cpu *cpu = __metal_cpu_table[__metal_myhart_id()];
20012be0:	8b9ff0ef          	jal	ra,20012498 <__metal_myhart_id>
20012be4:	872a                	mv	a4,a0
20012be6:	800017b7          	lui	a5,0x80001
20012bea:	070a                	slli	a4,a4,0x2
20012bec:	a8878793          	addi	a5,a5,-1400 # 80000a88 <metal_segment_heap_target_end+0xfffff318>
20012bf0:	97ba                	add	a5,a5,a4
20012bf2:	439c                	lw	a5,0(a5)
20012bf4:	faf42623          	sw	a5,-84(s0)
E:/8.AWS-FreeRTOS-HiFive1/Workspace/sifive-hifive1-revb-i2c/freedom-metal/src/drivers/riscv_cpu.c:252

    if ( cpu ) {
20012bf8:	fac42783          	lw	a5,-84(s0)
20012bfc:	c78d                	beqz	a5,20012c26 <metal_lc3_interrupt_vector_handler+0x6c>
E:/8.AWS-FreeRTOS-HiFive1/Workspace/sifive-hifive1-revb-i2c/freedom-metal/src/drivers/riscv_cpu.c:254
        intc = (struct __metal_driver_riscv_cpu_intc *)
          __metal_driver_cpu_interrupt_controller((struct metal_cpu *)cpu);
20012bfe:	fac42503          	lw	a0,-84(s0)
20012c02:	83dff0ef          	jal	ra,2001243e <__metal_driver_cpu_interrupt_controller>
20012c06:	faa42423          	sw	a0,-88(s0)
E:/8.AWS-FreeRTOS-HiFive1/Workspace/sifive-hifive1-revb-i2c/freedom-metal/src/drivers/riscv_cpu.c:255
        priv = intc->metal_int_table[METAL_INTERRUPT_ID_LC3].exint_data;
20012c0a:	fa842783          	lw	a5,-88(s0)
20012c0e:	2607a783          	lw	a5,608(a5)
20012c12:	faf42223          	sw	a5,-92(s0)
E:/8.AWS-FreeRTOS-HiFive1/Workspace/sifive-hifive1-revb-i2c/freedom-metal/src/drivers/riscv_cpu.c:256
        intc->metal_int_table[METAL_INTERRUPT_ID_LC3].handler(METAL_INTERRUPT_ID_LC3, priv);
20012c16:	fa842783          	lw	a5,-88(s0)
20012c1a:	2587a783          	lw	a5,600(a5)
20012c1e:	fa442583          	lw	a1,-92(s0)
20012c22:	454d                	li	a0,19
20012c24:	9782                	jalr	a5
E:/8.AWS-FreeRTOS-HiFive1/Workspace/sifive-hifive1-revb-i2c/freedom-metal/src/drivers/riscv_cpu.c:258
    }
}
20012c26:	0001                	nop
20012c28:	40f6                	lw	ra,92(sp)
20012c2a:	42e6                	lw	t0,88(sp)
20012c2c:	4356                	lw	t1,84(sp)
20012c2e:	43c6                	lw	t2,80(sp)
20012c30:	4436                	lw	s0,76(sp)
20012c32:	4526                	lw	a0,72(sp)
20012c34:	4596                	lw	a1,68(sp)
20012c36:	4606                	lw	a2,64(sp)
20012c38:	56f2                	lw	a3,60(sp)
20012c3a:	5762                	lw	a4,56(sp)
20012c3c:	57d2                	lw	a5,52(sp)
20012c3e:	5842                	lw	a6,48(sp)
20012c40:	58b2                	lw	a7,44(sp)
20012c42:	5e22                	lw	t3,40(sp)
20012c44:	5e92                	lw	t4,36(sp)
20012c46:	5f02                	lw	t5,32(sp)
20012c48:	4ff2                	lw	t6,28(sp)
20012c4a:	6125                	addi	sp,sp,96
20012c4c:	30200073          	mret

20012c50 <metal_lc4_interrupt_vector_handler>:
metal_lc4_interrupt_vector_handler():
E:/8.AWS-FreeRTOS-HiFive1/Workspace/sifive-hifive1-revb-i2c/freedom-metal/src/drivers/riscv_cpu.c:261

/* The metal_lc4_interrupt_vector_handler() function can be redefined. */
void __attribute__((weak, interrupt)) metal_lc4_interrupt_vector_handler (void) {
20012c50:	711d                	addi	sp,sp,-96
20012c52:	ce86                	sw	ra,92(sp)
20012c54:	cc96                	sw	t0,88(sp)
20012c56:	ca9a                	sw	t1,84(sp)
20012c58:	c89e                	sw	t2,80(sp)
20012c5a:	c6a2                	sw	s0,76(sp)
20012c5c:	c4aa                	sw	a0,72(sp)
20012c5e:	c2ae                	sw	a1,68(sp)
20012c60:	c0b2                	sw	a2,64(sp)
20012c62:	de36                	sw	a3,60(sp)
20012c64:	dc3a                	sw	a4,56(sp)
20012c66:	da3e                	sw	a5,52(sp)
20012c68:	d842                	sw	a6,48(sp)
20012c6a:	d646                	sw	a7,44(sp)
20012c6c:	d472                	sw	t3,40(sp)
20012c6e:	d276                	sw	t4,36(sp)
20012c70:	d07a                	sw	t5,32(sp)
20012c72:	ce7e                	sw	t6,28(sp)
20012c74:	1080                	addi	s0,sp,96
E:/8.AWS-FreeRTOS-HiFive1/Workspace/sifive-hifive1-revb-i2c/freedom-metal/src/drivers/riscv_cpu.c:264
    void *priv;
    struct __metal_driver_riscv_cpu_intc *intc;
    struct __metal_driver_cpu *cpu = __metal_cpu_table[__metal_myhart_id()];
20012c76:	823ff0ef          	jal	ra,20012498 <__metal_myhart_id>
20012c7a:	872a                	mv	a4,a0
20012c7c:	800017b7          	lui	a5,0x80001
20012c80:	070a                	slli	a4,a4,0x2
20012c82:	a8878793          	addi	a5,a5,-1400 # 80000a88 <metal_segment_heap_target_end+0xfffff318>
20012c86:	97ba                	add	a5,a5,a4
20012c88:	439c                	lw	a5,0(a5)
20012c8a:	faf42623          	sw	a5,-84(s0)
E:/8.AWS-FreeRTOS-HiFive1/Workspace/sifive-hifive1-revb-i2c/freedom-metal/src/drivers/riscv_cpu.c:266

    if ( cpu ) {
20012c8e:	fac42783          	lw	a5,-84(s0)
20012c92:	c78d                	beqz	a5,20012cbc <metal_lc4_interrupt_vector_handler+0x6c>
E:/8.AWS-FreeRTOS-HiFive1/Workspace/sifive-hifive1-revb-i2c/freedom-metal/src/drivers/riscv_cpu.c:268
        intc = (struct __metal_driver_riscv_cpu_intc *)
          __metal_driver_cpu_interrupt_controller((struct metal_cpu *)cpu);
20012c94:	fac42503          	lw	a0,-84(s0)
20012c98:	fa6ff0ef          	jal	ra,2001243e <__metal_driver_cpu_interrupt_controller>
20012c9c:	faa42423          	sw	a0,-88(s0)
E:/8.AWS-FreeRTOS-HiFive1/Workspace/sifive-hifive1-revb-i2c/freedom-metal/src/drivers/riscv_cpu.c:269
        priv = intc->metal_int_table[METAL_INTERRUPT_ID_LC4].exint_data;
20012ca0:	fa842783          	lw	a5,-88(s0)
20012ca4:	2787a783          	lw	a5,632(a5)
20012ca8:	faf42223          	sw	a5,-92(s0)
E:/8.AWS-FreeRTOS-HiFive1/Workspace/sifive-hifive1-revb-i2c/freedom-metal/src/drivers/riscv_cpu.c:270
        intc->metal_int_table[METAL_INTERRUPT_ID_LC4].handler(METAL_INTERRUPT_ID_LC4, priv);
20012cac:	fa842783          	lw	a5,-88(s0)
20012cb0:	2707a783          	lw	a5,624(a5)
20012cb4:	fa442583          	lw	a1,-92(s0)
20012cb8:	4551                	li	a0,20
20012cba:	9782                	jalr	a5
E:/8.AWS-FreeRTOS-HiFive1/Workspace/sifive-hifive1-revb-i2c/freedom-metal/src/drivers/riscv_cpu.c:272
    }
}
20012cbc:	0001                	nop
20012cbe:	40f6                	lw	ra,92(sp)
20012cc0:	42e6                	lw	t0,88(sp)
20012cc2:	4356                	lw	t1,84(sp)
20012cc4:	43c6                	lw	t2,80(sp)
20012cc6:	4436                	lw	s0,76(sp)
20012cc8:	4526                	lw	a0,72(sp)
20012cca:	4596                	lw	a1,68(sp)
20012ccc:	4606                	lw	a2,64(sp)
20012cce:	56f2                	lw	a3,60(sp)
20012cd0:	5762                	lw	a4,56(sp)
20012cd2:	57d2                	lw	a5,52(sp)
20012cd4:	5842                	lw	a6,48(sp)
20012cd6:	58b2                	lw	a7,44(sp)
20012cd8:	5e22                	lw	t3,40(sp)
20012cda:	5e92                	lw	t4,36(sp)
20012cdc:	5f02                	lw	t5,32(sp)
20012cde:	4ff2                	lw	t6,28(sp)
20012ce0:	6125                	addi	sp,sp,96
20012ce2:	30200073          	mret

20012ce6 <metal_lc5_interrupt_vector_handler>:
metal_lc5_interrupt_vector_handler():
E:/8.AWS-FreeRTOS-HiFive1/Workspace/sifive-hifive1-revb-i2c/freedom-metal/src/drivers/riscv_cpu.c:275

/* The metal_lc5_interrupt_vector_handler() function can be redefined. */
void __attribute__((weak, interrupt)) metal_lc5_interrupt_vector_handler (void) {
20012ce6:	711d                	addi	sp,sp,-96
20012ce8:	ce86                	sw	ra,92(sp)
20012cea:	cc96                	sw	t0,88(sp)
20012cec:	ca9a                	sw	t1,84(sp)
20012cee:	c89e                	sw	t2,80(sp)
20012cf0:	c6a2                	sw	s0,76(sp)
20012cf2:	c4aa                	sw	a0,72(sp)
20012cf4:	c2ae                	sw	a1,68(sp)
20012cf6:	c0b2                	sw	a2,64(sp)
20012cf8:	de36                	sw	a3,60(sp)
20012cfa:	dc3a                	sw	a4,56(sp)
20012cfc:	da3e                	sw	a5,52(sp)
20012cfe:	d842                	sw	a6,48(sp)
20012d00:	d646                	sw	a7,44(sp)
20012d02:	d472                	sw	t3,40(sp)
20012d04:	d276                	sw	t4,36(sp)
20012d06:	d07a                	sw	t5,32(sp)
20012d08:	ce7e                	sw	t6,28(sp)
20012d0a:	1080                	addi	s0,sp,96
E:/8.AWS-FreeRTOS-HiFive1/Workspace/sifive-hifive1-revb-i2c/freedom-metal/src/drivers/riscv_cpu.c:278
    void *priv;
    struct __metal_driver_riscv_cpu_intc *intc;
    struct __metal_driver_cpu *cpu = __metal_cpu_table[__metal_myhart_id()];
20012d0c:	f8cff0ef          	jal	ra,20012498 <__metal_myhart_id>
20012d10:	872a                	mv	a4,a0
20012d12:	800017b7          	lui	a5,0x80001
20012d16:	070a                	slli	a4,a4,0x2
20012d18:	a8878793          	addi	a5,a5,-1400 # 80000a88 <metal_segment_heap_target_end+0xfffff318>
20012d1c:	97ba                	add	a5,a5,a4
20012d1e:	439c                	lw	a5,0(a5)
20012d20:	faf42623          	sw	a5,-84(s0)
E:/8.AWS-FreeRTOS-HiFive1/Workspace/sifive-hifive1-revb-i2c/freedom-metal/src/drivers/riscv_cpu.c:280

    if ( cpu ) {
20012d24:	fac42783          	lw	a5,-84(s0)
20012d28:	c78d                	beqz	a5,20012d52 <metal_lc5_interrupt_vector_handler+0x6c>
E:/8.AWS-FreeRTOS-HiFive1/Workspace/sifive-hifive1-revb-i2c/freedom-metal/src/drivers/riscv_cpu.c:282
        intc = (struct __metal_driver_riscv_cpu_intc *)
          __metal_driver_cpu_interrupt_controller((struct metal_cpu *)cpu);
20012d2a:	fac42503          	lw	a0,-84(s0)
20012d2e:	f10ff0ef          	jal	ra,2001243e <__metal_driver_cpu_interrupt_controller>
20012d32:	faa42423          	sw	a0,-88(s0)
E:/8.AWS-FreeRTOS-HiFive1/Workspace/sifive-hifive1-revb-i2c/freedom-metal/src/drivers/riscv_cpu.c:283
        priv = intc->metal_int_table[METAL_INTERRUPT_ID_LC5].exint_data;
20012d36:	fa842783          	lw	a5,-88(s0)
20012d3a:	2907a783          	lw	a5,656(a5)
20012d3e:	faf42223          	sw	a5,-92(s0)
E:/8.AWS-FreeRTOS-HiFive1/Workspace/sifive-hifive1-revb-i2c/freedom-metal/src/drivers/riscv_cpu.c:284
        intc->metal_int_table[METAL_INTERRUPT_ID_LC5].handler(METAL_INTERRUPT_ID_LC5, priv);
20012d42:	fa842783          	lw	a5,-88(s0)
20012d46:	2887a783          	lw	a5,648(a5)
20012d4a:	fa442583          	lw	a1,-92(s0)
20012d4e:	4555                	li	a0,21
20012d50:	9782                	jalr	a5
E:/8.AWS-FreeRTOS-HiFive1/Workspace/sifive-hifive1-revb-i2c/freedom-metal/src/drivers/riscv_cpu.c:286
    }
}
20012d52:	0001                	nop
20012d54:	40f6                	lw	ra,92(sp)
20012d56:	42e6                	lw	t0,88(sp)
20012d58:	4356                	lw	t1,84(sp)
20012d5a:	43c6                	lw	t2,80(sp)
20012d5c:	4436                	lw	s0,76(sp)
20012d5e:	4526                	lw	a0,72(sp)
20012d60:	4596                	lw	a1,68(sp)
20012d62:	4606                	lw	a2,64(sp)
20012d64:	56f2                	lw	a3,60(sp)
20012d66:	5762                	lw	a4,56(sp)
20012d68:	57d2                	lw	a5,52(sp)
20012d6a:	5842                	lw	a6,48(sp)
20012d6c:	58b2                	lw	a7,44(sp)
20012d6e:	5e22                	lw	t3,40(sp)
20012d70:	5e92                	lw	t4,36(sp)
20012d72:	5f02                	lw	t5,32(sp)
20012d74:	4ff2                	lw	t6,28(sp)
20012d76:	6125                	addi	sp,sp,96
20012d78:	30200073          	mret

20012d7c <metal_lc6_interrupt_vector_handler>:
metal_lc6_interrupt_vector_handler():
E:/8.AWS-FreeRTOS-HiFive1/Workspace/sifive-hifive1-revb-i2c/freedom-metal/src/drivers/riscv_cpu.c:289

/* The metal_lc6_interrupt_vector_handler() function can be redefined. */
void __attribute__((weak, interrupt)) metal_lc6_interrupt_vector_handler (void) {
20012d7c:	711d                	addi	sp,sp,-96
20012d7e:	ce86                	sw	ra,92(sp)
20012d80:	cc96                	sw	t0,88(sp)
20012d82:	ca9a                	sw	t1,84(sp)
20012d84:	c89e                	sw	t2,80(sp)
20012d86:	c6a2                	sw	s0,76(sp)
20012d88:	c4aa                	sw	a0,72(sp)
20012d8a:	c2ae                	sw	a1,68(sp)
20012d8c:	c0b2                	sw	a2,64(sp)
20012d8e:	de36                	sw	a3,60(sp)
20012d90:	dc3a                	sw	a4,56(sp)
20012d92:	da3e                	sw	a5,52(sp)
20012d94:	d842                	sw	a6,48(sp)
20012d96:	d646                	sw	a7,44(sp)
20012d98:	d472                	sw	t3,40(sp)
20012d9a:	d276                	sw	t4,36(sp)
20012d9c:	d07a                	sw	t5,32(sp)
20012d9e:	ce7e                	sw	t6,28(sp)
20012da0:	1080                	addi	s0,sp,96
E:/8.AWS-FreeRTOS-HiFive1/Workspace/sifive-hifive1-revb-i2c/freedom-metal/src/drivers/riscv_cpu.c:292
    void *priv;
    struct __metal_driver_riscv_cpu_intc *intc;
    struct __metal_driver_cpu *cpu = __metal_cpu_table[__metal_myhart_id()];
20012da2:	ef6ff0ef          	jal	ra,20012498 <__metal_myhart_id>
20012da6:	872a                	mv	a4,a0
20012da8:	800017b7          	lui	a5,0x80001
20012dac:	070a                	slli	a4,a4,0x2
20012dae:	a8878793          	addi	a5,a5,-1400 # 80000a88 <metal_segment_heap_target_end+0xfffff318>
20012db2:	97ba                	add	a5,a5,a4
20012db4:	439c                	lw	a5,0(a5)
20012db6:	faf42623          	sw	a5,-84(s0)
E:/8.AWS-FreeRTOS-HiFive1/Workspace/sifive-hifive1-revb-i2c/freedom-metal/src/drivers/riscv_cpu.c:294

    if ( cpu ) {
20012dba:	fac42783          	lw	a5,-84(s0)
20012dbe:	c78d                	beqz	a5,20012de8 <metal_lc6_interrupt_vector_handler+0x6c>
E:/8.AWS-FreeRTOS-HiFive1/Workspace/sifive-hifive1-revb-i2c/freedom-metal/src/drivers/riscv_cpu.c:296
        intc = (struct __metal_driver_riscv_cpu_intc *)
          __metal_driver_cpu_interrupt_controller((struct metal_cpu *)cpu);
20012dc0:	fac42503          	lw	a0,-84(s0)
20012dc4:	e7aff0ef          	jal	ra,2001243e <__metal_driver_cpu_interrupt_controller>
20012dc8:	faa42423          	sw	a0,-88(s0)
E:/8.AWS-FreeRTOS-HiFive1/Workspace/sifive-hifive1-revb-i2c/freedom-metal/src/drivers/riscv_cpu.c:297
        priv = intc->metal_int_table[METAL_INTERRUPT_ID_LC6].exint_data;
20012dcc:	fa842783          	lw	a5,-88(s0)
20012dd0:	2a87a783          	lw	a5,680(a5)
20012dd4:	faf42223          	sw	a5,-92(s0)
E:/8.AWS-FreeRTOS-HiFive1/Workspace/sifive-hifive1-revb-i2c/freedom-metal/src/drivers/riscv_cpu.c:298
        intc->metal_int_table[METAL_INTERRUPT_ID_LC6].handler(METAL_INTERRUPT_ID_LC6, priv);
20012dd8:	fa842783          	lw	a5,-88(s0)
20012ddc:	2a07a783          	lw	a5,672(a5)
20012de0:	fa442583          	lw	a1,-92(s0)
20012de4:	4559                	li	a0,22
20012de6:	9782                	jalr	a5
E:/8.AWS-FreeRTOS-HiFive1/Workspace/sifive-hifive1-revb-i2c/freedom-metal/src/drivers/riscv_cpu.c:300
    }
}
20012de8:	0001                	nop
20012dea:	40f6                	lw	ra,92(sp)
20012dec:	42e6                	lw	t0,88(sp)
20012dee:	4356                	lw	t1,84(sp)
20012df0:	43c6                	lw	t2,80(sp)
20012df2:	4436                	lw	s0,76(sp)
20012df4:	4526                	lw	a0,72(sp)
20012df6:	4596                	lw	a1,68(sp)
20012df8:	4606                	lw	a2,64(sp)
20012dfa:	56f2                	lw	a3,60(sp)
20012dfc:	5762                	lw	a4,56(sp)
20012dfe:	57d2                	lw	a5,52(sp)
20012e00:	5842                	lw	a6,48(sp)
20012e02:	58b2                	lw	a7,44(sp)
20012e04:	5e22                	lw	t3,40(sp)
20012e06:	5e92                	lw	t4,36(sp)
20012e08:	5f02                	lw	t5,32(sp)
20012e0a:	4ff2                	lw	t6,28(sp)
20012e0c:	6125                	addi	sp,sp,96
20012e0e:	30200073          	mret

20012e12 <metal_lc7_interrupt_vector_handler>:
metal_lc7_interrupt_vector_handler():
E:/8.AWS-FreeRTOS-HiFive1/Workspace/sifive-hifive1-revb-i2c/freedom-metal/src/drivers/riscv_cpu.c:303

/* The metal_lc7_interrupt_vector_handler() function can be redefined. */
void __attribute__((weak, interrupt)) metal_lc7_interrupt_vector_handler (void) {
20012e12:	711d                	addi	sp,sp,-96
20012e14:	ce86                	sw	ra,92(sp)
20012e16:	cc96                	sw	t0,88(sp)
20012e18:	ca9a                	sw	t1,84(sp)
20012e1a:	c89e                	sw	t2,80(sp)
20012e1c:	c6a2                	sw	s0,76(sp)
20012e1e:	c4aa                	sw	a0,72(sp)
20012e20:	c2ae                	sw	a1,68(sp)
20012e22:	c0b2                	sw	a2,64(sp)
20012e24:	de36                	sw	a3,60(sp)
20012e26:	dc3a                	sw	a4,56(sp)
20012e28:	da3e                	sw	a5,52(sp)
20012e2a:	d842                	sw	a6,48(sp)
20012e2c:	d646                	sw	a7,44(sp)
20012e2e:	d472                	sw	t3,40(sp)
20012e30:	d276                	sw	t4,36(sp)
20012e32:	d07a                	sw	t5,32(sp)
20012e34:	ce7e                	sw	t6,28(sp)
20012e36:	1080                	addi	s0,sp,96
E:/8.AWS-FreeRTOS-HiFive1/Workspace/sifive-hifive1-revb-i2c/freedom-metal/src/drivers/riscv_cpu.c:306
    void *priv;
    struct __metal_driver_riscv_cpu_intc *intc;
    struct __metal_driver_cpu *cpu = __metal_cpu_table[__metal_myhart_id()];
20012e38:	e60ff0ef          	jal	ra,20012498 <__metal_myhart_id>
20012e3c:	872a                	mv	a4,a0
20012e3e:	800017b7          	lui	a5,0x80001
20012e42:	070a                	slli	a4,a4,0x2
20012e44:	a8878793          	addi	a5,a5,-1400 # 80000a88 <metal_segment_heap_target_end+0xfffff318>
20012e48:	97ba                	add	a5,a5,a4
20012e4a:	439c                	lw	a5,0(a5)
20012e4c:	faf42623          	sw	a5,-84(s0)
E:/8.AWS-FreeRTOS-HiFive1/Workspace/sifive-hifive1-revb-i2c/freedom-metal/src/drivers/riscv_cpu.c:308

    if ( cpu ) {
20012e50:	fac42783          	lw	a5,-84(s0)
20012e54:	c78d                	beqz	a5,20012e7e <metal_lc7_interrupt_vector_handler+0x6c>
E:/8.AWS-FreeRTOS-HiFive1/Workspace/sifive-hifive1-revb-i2c/freedom-metal/src/drivers/riscv_cpu.c:310
        intc = (struct __metal_driver_riscv_cpu_intc *)
          __metal_driver_cpu_interrupt_controller((struct metal_cpu *)cpu);
20012e56:	fac42503          	lw	a0,-84(s0)
20012e5a:	de4ff0ef          	jal	ra,2001243e <__metal_driver_cpu_interrupt_controller>
20012e5e:	faa42423          	sw	a0,-88(s0)
E:/8.AWS-FreeRTOS-HiFive1/Workspace/sifive-hifive1-revb-i2c/freedom-metal/src/drivers/riscv_cpu.c:311
        priv = intc->metal_int_table[METAL_INTERRUPT_ID_LC7].exint_data;
20012e62:	fa842783          	lw	a5,-88(s0)
20012e66:	2c07a783          	lw	a5,704(a5)
20012e6a:	faf42223          	sw	a5,-92(s0)
E:/8.AWS-FreeRTOS-HiFive1/Workspace/sifive-hifive1-revb-i2c/freedom-metal/src/drivers/riscv_cpu.c:312
        intc->metal_int_table[METAL_INTERRUPT_ID_LC7].handler(METAL_INTERRUPT_ID_LC7, priv);
20012e6e:	fa842783          	lw	a5,-88(s0)
20012e72:	2b87a783          	lw	a5,696(a5)
20012e76:	fa442583          	lw	a1,-92(s0)
20012e7a:	455d                	li	a0,23
20012e7c:	9782                	jalr	a5
E:/8.AWS-FreeRTOS-HiFive1/Workspace/sifive-hifive1-revb-i2c/freedom-metal/src/drivers/riscv_cpu.c:314
    }
}
20012e7e:	0001                	nop
20012e80:	40f6                	lw	ra,92(sp)
20012e82:	42e6                	lw	t0,88(sp)
20012e84:	4356                	lw	t1,84(sp)
20012e86:	43c6                	lw	t2,80(sp)
20012e88:	4436                	lw	s0,76(sp)
20012e8a:	4526                	lw	a0,72(sp)
20012e8c:	4596                	lw	a1,68(sp)
20012e8e:	4606                	lw	a2,64(sp)
20012e90:	56f2                	lw	a3,60(sp)
20012e92:	5762                	lw	a4,56(sp)
20012e94:	57d2                	lw	a5,52(sp)
20012e96:	5842                	lw	a6,48(sp)
20012e98:	58b2                	lw	a7,44(sp)
20012e9a:	5e22                	lw	t3,40(sp)
20012e9c:	5e92                	lw	t4,36(sp)
20012e9e:	5f02                	lw	t5,32(sp)
20012ea0:	4ff2                	lw	t6,28(sp)
20012ea2:	6125                	addi	sp,sp,96
20012ea4:	30200073          	mret

20012ea8 <metal_lc8_interrupt_vector_handler>:
metal_lc8_interrupt_vector_handler():
E:/8.AWS-FreeRTOS-HiFive1/Workspace/sifive-hifive1-revb-i2c/freedom-metal/src/drivers/riscv_cpu.c:317

/* The metal_lc8_interrupt_vector_handler() function can be redefined. */
void __attribute__((weak, interrupt)) metal_lc8_interrupt_vector_handler (void) {
20012ea8:	711d                	addi	sp,sp,-96
20012eaa:	ce86                	sw	ra,92(sp)
20012eac:	cc96                	sw	t0,88(sp)
20012eae:	ca9a                	sw	t1,84(sp)
20012eb0:	c89e                	sw	t2,80(sp)
20012eb2:	c6a2                	sw	s0,76(sp)
20012eb4:	c4aa                	sw	a0,72(sp)
20012eb6:	c2ae                	sw	a1,68(sp)
20012eb8:	c0b2                	sw	a2,64(sp)
20012eba:	de36                	sw	a3,60(sp)
20012ebc:	dc3a                	sw	a4,56(sp)
20012ebe:	da3e                	sw	a5,52(sp)
20012ec0:	d842                	sw	a6,48(sp)
20012ec2:	d646                	sw	a7,44(sp)
20012ec4:	d472                	sw	t3,40(sp)
20012ec6:	d276                	sw	t4,36(sp)
20012ec8:	d07a                	sw	t5,32(sp)
20012eca:	ce7e                	sw	t6,28(sp)
20012ecc:	1080                	addi	s0,sp,96
E:/8.AWS-FreeRTOS-HiFive1/Workspace/sifive-hifive1-revb-i2c/freedom-metal/src/drivers/riscv_cpu.c:320
    void *priv;
    struct __metal_driver_riscv_cpu_intc *intc;
    struct __metal_driver_cpu *cpu = __metal_cpu_table[__metal_myhart_id()];
20012ece:	dcaff0ef          	jal	ra,20012498 <__metal_myhart_id>
20012ed2:	872a                	mv	a4,a0
20012ed4:	800017b7          	lui	a5,0x80001
20012ed8:	070a                	slli	a4,a4,0x2
20012eda:	a8878793          	addi	a5,a5,-1400 # 80000a88 <metal_segment_heap_target_end+0xfffff318>
20012ede:	97ba                	add	a5,a5,a4
20012ee0:	439c                	lw	a5,0(a5)
20012ee2:	faf42623          	sw	a5,-84(s0)
E:/8.AWS-FreeRTOS-HiFive1/Workspace/sifive-hifive1-revb-i2c/freedom-metal/src/drivers/riscv_cpu.c:322

    if ( cpu ) {
20012ee6:	fac42783          	lw	a5,-84(s0)
20012eea:	c78d                	beqz	a5,20012f14 <metal_lc8_interrupt_vector_handler+0x6c>
E:/8.AWS-FreeRTOS-HiFive1/Workspace/sifive-hifive1-revb-i2c/freedom-metal/src/drivers/riscv_cpu.c:324
        intc = (struct __metal_driver_riscv_cpu_intc *)
          __metal_driver_cpu_interrupt_controller((struct metal_cpu *)cpu);
20012eec:	fac42503          	lw	a0,-84(s0)
20012ef0:	d4eff0ef          	jal	ra,2001243e <__metal_driver_cpu_interrupt_controller>
20012ef4:	faa42423          	sw	a0,-88(s0)
E:/8.AWS-FreeRTOS-HiFive1/Workspace/sifive-hifive1-revb-i2c/freedom-metal/src/drivers/riscv_cpu.c:325
        priv = intc->metal_int_table[METAL_INTERRUPT_ID_LC8].exint_data;
20012ef8:	fa842783          	lw	a5,-88(s0)
20012efc:	2d87a783          	lw	a5,728(a5)
20012f00:	faf42223          	sw	a5,-92(s0)
E:/8.AWS-FreeRTOS-HiFive1/Workspace/sifive-hifive1-revb-i2c/freedom-metal/src/drivers/riscv_cpu.c:326
        intc->metal_int_table[METAL_INTERRUPT_ID_LC8].handler(METAL_INTERRUPT_ID_LC8, priv);
20012f04:	fa842783          	lw	a5,-88(s0)
20012f08:	2d07a783          	lw	a5,720(a5)
20012f0c:	fa442583          	lw	a1,-92(s0)
20012f10:	4561                	li	a0,24
20012f12:	9782                	jalr	a5
E:/8.AWS-FreeRTOS-HiFive1/Workspace/sifive-hifive1-revb-i2c/freedom-metal/src/drivers/riscv_cpu.c:328
    }
}
20012f14:	0001                	nop
20012f16:	40f6                	lw	ra,92(sp)
20012f18:	42e6                	lw	t0,88(sp)
20012f1a:	4356                	lw	t1,84(sp)
20012f1c:	43c6                	lw	t2,80(sp)
20012f1e:	4436                	lw	s0,76(sp)
20012f20:	4526                	lw	a0,72(sp)
20012f22:	4596                	lw	a1,68(sp)
20012f24:	4606                	lw	a2,64(sp)
20012f26:	56f2                	lw	a3,60(sp)
20012f28:	5762                	lw	a4,56(sp)
20012f2a:	57d2                	lw	a5,52(sp)
20012f2c:	5842                	lw	a6,48(sp)
20012f2e:	58b2                	lw	a7,44(sp)
20012f30:	5e22                	lw	t3,40(sp)
20012f32:	5e92                	lw	t4,36(sp)
20012f34:	5f02                	lw	t5,32(sp)
20012f36:	4ff2                	lw	t6,28(sp)
20012f38:	6125                	addi	sp,sp,96
20012f3a:	30200073          	mret

20012f3e <metal_lc9_interrupt_vector_handler>:
metal_lc9_interrupt_vector_handler():
E:/8.AWS-FreeRTOS-HiFive1/Workspace/sifive-hifive1-revb-i2c/freedom-metal/src/drivers/riscv_cpu.c:331

/* The metal_lc9_interrupt_vector_handler() function can be redefined. */
void __attribute__((weak, interrupt)) metal_lc9_interrupt_vector_handler (void) {
20012f3e:	711d                	addi	sp,sp,-96
20012f40:	ce86                	sw	ra,92(sp)
20012f42:	cc96                	sw	t0,88(sp)
20012f44:	ca9a                	sw	t1,84(sp)
20012f46:	c89e                	sw	t2,80(sp)
20012f48:	c6a2                	sw	s0,76(sp)
20012f4a:	c4aa                	sw	a0,72(sp)
20012f4c:	c2ae                	sw	a1,68(sp)
20012f4e:	c0b2                	sw	a2,64(sp)
20012f50:	de36                	sw	a3,60(sp)
20012f52:	dc3a                	sw	a4,56(sp)
20012f54:	da3e                	sw	a5,52(sp)
20012f56:	d842                	sw	a6,48(sp)
20012f58:	d646                	sw	a7,44(sp)
20012f5a:	d472                	sw	t3,40(sp)
20012f5c:	d276                	sw	t4,36(sp)
20012f5e:	d07a                	sw	t5,32(sp)
20012f60:	ce7e                	sw	t6,28(sp)
20012f62:	1080                	addi	s0,sp,96
E:/8.AWS-FreeRTOS-HiFive1/Workspace/sifive-hifive1-revb-i2c/freedom-metal/src/drivers/riscv_cpu.c:334
    void *priv;
    struct __metal_driver_riscv_cpu_intc *intc;
    struct __metal_driver_cpu *cpu = __metal_cpu_table[__metal_myhart_id()];
20012f64:	d34ff0ef          	jal	ra,20012498 <__metal_myhart_id>
20012f68:	872a                	mv	a4,a0
20012f6a:	800017b7          	lui	a5,0x80001
20012f6e:	070a                	slli	a4,a4,0x2
20012f70:	a8878793          	addi	a5,a5,-1400 # 80000a88 <metal_segment_heap_target_end+0xfffff318>
20012f74:	97ba                	add	a5,a5,a4
20012f76:	439c                	lw	a5,0(a5)
20012f78:	faf42623          	sw	a5,-84(s0)
E:/8.AWS-FreeRTOS-HiFive1/Workspace/sifive-hifive1-revb-i2c/freedom-metal/src/drivers/riscv_cpu.c:336

    if ( cpu ) {
20012f7c:	fac42783          	lw	a5,-84(s0)
20012f80:	c78d                	beqz	a5,20012faa <metal_lc9_interrupt_vector_handler+0x6c>
E:/8.AWS-FreeRTOS-HiFive1/Workspace/sifive-hifive1-revb-i2c/freedom-metal/src/drivers/riscv_cpu.c:338
        intc = (struct __metal_driver_riscv_cpu_intc *)
          __metal_driver_cpu_interrupt_controller((struct metal_cpu *)cpu);
20012f82:	fac42503          	lw	a0,-84(s0)
20012f86:	cb8ff0ef          	jal	ra,2001243e <__metal_driver_cpu_interrupt_controller>
20012f8a:	faa42423          	sw	a0,-88(s0)
E:/8.AWS-FreeRTOS-HiFive1/Workspace/sifive-hifive1-revb-i2c/freedom-metal/src/drivers/riscv_cpu.c:339
        priv = intc->metal_int_table[METAL_INTERRUPT_ID_LC9].exint_data;
20012f8e:	fa842783          	lw	a5,-88(s0)
20012f92:	2f07a783          	lw	a5,752(a5)
20012f96:	faf42223          	sw	a5,-92(s0)
E:/8.AWS-FreeRTOS-HiFive1/Workspace/sifive-hifive1-revb-i2c/freedom-metal/src/drivers/riscv_cpu.c:340
        intc->metal_int_table[METAL_INTERRUPT_ID_LC9].handler(METAL_INTERRUPT_ID_LC9, priv);
20012f9a:	fa842783          	lw	a5,-88(s0)
20012f9e:	2e87a783          	lw	a5,744(a5)
20012fa2:	fa442583          	lw	a1,-92(s0)
20012fa6:	4565                	li	a0,25
20012fa8:	9782                	jalr	a5
E:/8.AWS-FreeRTOS-HiFive1/Workspace/sifive-hifive1-revb-i2c/freedom-metal/src/drivers/riscv_cpu.c:342
    }
}
20012faa:	0001                	nop
20012fac:	40f6                	lw	ra,92(sp)
20012fae:	42e6                	lw	t0,88(sp)
20012fb0:	4356                	lw	t1,84(sp)
20012fb2:	43c6                	lw	t2,80(sp)
20012fb4:	4436                	lw	s0,76(sp)
20012fb6:	4526                	lw	a0,72(sp)
20012fb8:	4596                	lw	a1,68(sp)
20012fba:	4606                	lw	a2,64(sp)
20012fbc:	56f2                	lw	a3,60(sp)
20012fbe:	5762                	lw	a4,56(sp)
20012fc0:	57d2                	lw	a5,52(sp)
20012fc2:	5842                	lw	a6,48(sp)
20012fc4:	58b2                	lw	a7,44(sp)
20012fc6:	5e22                	lw	t3,40(sp)
20012fc8:	5e92                	lw	t4,36(sp)
20012fca:	5f02                	lw	t5,32(sp)
20012fcc:	4ff2                	lw	t6,28(sp)
20012fce:	6125                	addi	sp,sp,96
20012fd0:	30200073          	mret

20012fd4 <metal_lc10_interrupt_vector_handler>:
metal_lc10_interrupt_vector_handler():
E:/8.AWS-FreeRTOS-HiFive1/Workspace/sifive-hifive1-revb-i2c/freedom-metal/src/drivers/riscv_cpu.c:345

/* The metal_lc10_interrupt_vector_handler() function can be redefined. */
void __attribute__((weak, interrupt)) metal_lc10_interrupt_vector_handler (void) {
20012fd4:	711d                	addi	sp,sp,-96
20012fd6:	ce86                	sw	ra,92(sp)
20012fd8:	cc96                	sw	t0,88(sp)
20012fda:	ca9a                	sw	t1,84(sp)
20012fdc:	c89e                	sw	t2,80(sp)
20012fde:	c6a2                	sw	s0,76(sp)
20012fe0:	c4aa                	sw	a0,72(sp)
20012fe2:	c2ae                	sw	a1,68(sp)
20012fe4:	c0b2                	sw	a2,64(sp)
20012fe6:	de36                	sw	a3,60(sp)
20012fe8:	dc3a                	sw	a4,56(sp)
20012fea:	da3e                	sw	a5,52(sp)
20012fec:	d842                	sw	a6,48(sp)
20012fee:	d646                	sw	a7,44(sp)
20012ff0:	d472                	sw	t3,40(sp)
20012ff2:	d276                	sw	t4,36(sp)
20012ff4:	d07a                	sw	t5,32(sp)
20012ff6:	ce7e                	sw	t6,28(sp)
20012ff8:	1080                	addi	s0,sp,96
E:/8.AWS-FreeRTOS-HiFive1/Workspace/sifive-hifive1-revb-i2c/freedom-metal/src/drivers/riscv_cpu.c:348
    void *priv;
    struct __metal_driver_riscv_cpu_intc *intc;
    struct __metal_driver_cpu *cpu = __metal_cpu_table[__metal_myhart_id()];
20012ffa:	c9eff0ef          	jal	ra,20012498 <__metal_myhart_id>
20012ffe:	872a                	mv	a4,a0
20013000:	800017b7          	lui	a5,0x80001
20013004:	070a                	slli	a4,a4,0x2
20013006:	a8878793          	addi	a5,a5,-1400 # 80000a88 <metal_segment_heap_target_end+0xfffff318>
2001300a:	97ba                	add	a5,a5,a4
2001300c:	439c                	lw	a5,0(a5)
2001300e:	faf42623          	sw	a5,-84(s0)
E:/8.AWS-FreeRTOS-HiFive1/Workspace/sifive-hifive1-revb-i2c/freedom-metal/src/drivers/riscv_cpu.c:350

    if ( cpu ) {
20013012:	fac42783          	lw	a5,-84(s0)
20013016:	c78d                	beqz	a5,20013040 <metal_lc10_interrupt_vector_handler+0x6c>
E:/8.AWS-FreeRTOS-HiFive1/Workspace/sifive-hifive1-revb-i2c/freedom-metal/src/drivers/riscv_cpu.c:352
        intc = (struct __metal_driver_riscv_cpu_intc *)
          __metal_driver_cpu_interrupt_controller((struct metal_cpu *)cpu);
20013018:	fac42503          	lw	a0,-84(s0)
2001301c:	c22ff0ef          	jal	ra,2001243e <__metal_driver_cpu_interrupt_controller>
20013020:	faa42423          	sw	a0,-88(s0)
E:/8.AWS-FreeRTOS-HiFive1/Workspace/sifive-hifive1-revb-i2c/freedom-metal/src/drivers/riscv_cpu.c:353
        priv = intc->metal_int_table[METAL_INTERRUPT_ID_LC10].exint_data;
20013024:	fa842783          	lw	a5,-88(s0)
20013028:	3087a783          	lw	a5,776(a5)
2001302c:	faf42223          	sw	a5,-92(s0)
E:/8.AWS-FreeRTOS-HiFive1/Workspace/sifive-hifive1-revb-i2c/freedom-metal/src/drivers/riscv_cpu.c:354
        intc->metal_int_table[METAL_INTERRUPT_ID_LC10].handler(METAL_INTERRUPT_ID_LC10, priv);
20013030:	fa842783          	lw	a5,-88(s0)
20013034:	3007a783          	lw	a5,768(a5)
20013038:	fa442583          	lw	a1,-92(s0)
2001303c:	4569                	li	a0,26
2001303e:	9782                	jalr	a5
E:/8.AWS-FreeRTOS-HiFive1/Workspace/sifive-hifive1-revb-i2c/freedom-metal/src/drivers/riscv_cpu.c:356
    }
}
20013040:	0001                	nop
20013042:	40f6                	lw	ra,92(sp)
20013044:	42e6                	lw	t0,88(sp)
20013046:	4356                	lw	t1,84(sp)
20013048:	43c6                	lw	t2,80(sp)
2001304a:	4436                	lw	s0,76(sp)
2001304c:	4526                	lw	a0,72(sp)
2001304e:	4596                	lw	a1,68(sp)
20013050:	4606                	lw	a2,64(sp)
20013052:	56f2                	lw	a3,60(sp)
20013054:	5762                	lw	a4,56(sp)
20013056:	57d2                	lw	a5,52(sp)
20013058:	5842                	lw	a6,48(sp)
2001305a:	58b2                	lw	a7,44(sp)
2001305c:	5e22                	lw	t3,40(sp)
2001305e:	5e92                	lw	t4,36(sp)
20013060:	5f02                	lw	t5,32(sp)
20013062:	4ff2                	lw	t6,28(sp)
20013064:	6125                	addi	sp,sp,96
20013066:	30200073          	mret

2001306a <metal_lc11_interrupt_vector_handler>:
metal_lc11_interrupt_vector_handler():
E:/8.AWS-FreeRTOS-HiFive1/Workspace/sifive-hifive1-revb-i2c/freedom-metal/src/drivers/riscv_cpu.c:359

/* The metal_lc11_interrupt_vector_handler() function can be redefined. */
void __attribute__((weak, interrupt)) metal_lc11_interrupt_vector_handler (void) {
2001306a:	711d                	addi	sp,sp,-96
2001306c:	ce86                	sw	ra,92(sp)
2001306e:	cc96                	sw	t0,88(sp)
20013070:	ca9a                	sw	t1,84(sp)
20013072:	c89e                	sw	t2,80(sp)
20013074:	c6a2                	sw	s0,76(sp)
20013076:	c4aa                	sw	a0,72(sp)
20013078:	c2ae                	sw	a1,68(sp)
2001307a:	c0b2                	sw	a2,64(sp)
2001307c:	de36                	sw	a3,60(sp)
2001307e:	dc3a                	sw	a4,56(sp)
20013080:	da3e                	sw	a5,52(sp)
20013082:	d842                	sw	a6,48(sp)
20013084:	d646                	sw	a7,44(sp)
20013086:	d472                	sw	t3,40(sp)
20013088:	d276                	sw	t4,36(sp)
2001308a:	d07a                	sw	t5,32(sp)
2001308c:	ce7e                	sw	t6,28(sp)
2001308e:	1080                	addi	s0,sp,96
E:/8.AWS-FreeRTOS-HiFive1/Workspace/sifive-hifive1-revb-i2c/freedom-metal/src/drivers/riscv_cpu.c:362
    void *priv;
    struct __metal_driver_riscv_cpu_intc *intc;
    struct __metal_driver_cpu *cpu = __metal_cpu_table[__metal_myhart_id()];
20013090:	c08ff0ef          	jal	ra,20012498 <__metal_myhart_id>
20013094:	872a                	mv	a4,a0
20013096:	800017b7          	lui	a5,0x80001
2001309a:	070a                	slli	a4,a4,0x2
2001309c:	a8878793          	addi	a5,a5,-1400 # 80000a88 <metal_segment_heap_target_end+0xfffff318>
200130a0:	97ba                	add	a5,a5,a4
200130a2:	439c                	lw	a5,0(a5)
200130a4:	faf42623          	sw	a5,-84(s0)
E:/8.AWS-FreeRTOS-HiFive1/Workspace/sifive-hifive1-revb-i2c/freedom-metal/src/drivers/riscv_cpu.c:364

    if ( cpu ) {
200130a8:	fac42783          	lw	a5,-84(s0)
200130ac:	c78d                	beqz	a5,200130d6 <metal_lc11_interrupt_vector_handler+0x6c>
E:/8.AWS-FreeRTOS-HiFive1/Workspace/sifive-hifive1-revb-i2c/freedom-metal/src/drivers/riscv_cpu.c:366
        intc = (struct __metal_driver_riscv_cpu_intc *)
          __metal_driver_cpu_interrupt_controller((struct metal_cpu *)cpu);
200130ae:	fac42503          	lw	a0,-84(s0)
200130b2:	b8cff0ef          	jal	ra,2001243e <__metal_driver_cpu_interrupt_controller>
200130b6:	faa42423          	sw	a0,-88(s0)
E:/8.AWS-FreeRTOS-HiFive1/Workspace/sifive-hifive1-revb-i2c/freedom-metal/src/drivers/riscv_cpu.c:367
        priv = intc->metal_int_table[METAL_INTERRUPT_ID_LC11].exint_data;
200130ba:	fa842783          	lw	a5,-88(s0)
200130be:	3207a783          	lw	a5,800(a5)
200130c2:	faf42223          	sw	a5,-92(s0)
E:/8.AWS-FreeRTOS-HiFive1/Workspace/sifive-hifive1-revb-i2c/freedom-metal/src/drivers/riscv_cpu.c:368
        intc->metal_int_table[METAL_INTERRUPT_ID_LC11].handler(METAL_INTERRUPT_ID_LC11, priv);
200130c6:	fa842783          	lw	a5,-88(s0)
200130ca:	3187a783          	lw	a5,792(a5)
200130ce:	fa442583          	lw	a1,-92(s0)
200130d2:	456d                	li	a0,27
200130d4:	9782                	jalr	a5
E:/8.AWS-FreeRTOS-HiFive1/Workspace/sifive-hifive1-revb-i2c/freedom-metal/src/drivers/riscv_cpu.c:370
    }
}
200130d6:	0001                	nop
200130d8:	40f6                	lw	ra,92(sp)
200130da:	42e6                	lw	t0,88(sp)
200130dc:	4356                	lw	t1,84(sp)
200130de:	43c6                	lw	t2,80(sp)
200130e0:	4436                	lw	s0,76(sp)
200130e2:	4526                	lw	a0,72(sp)
200130e4:	4596                	lw	a1,68(sp)
200130e6:	4606                	lw	a2,64(sp)
200130e8:	56f2                	lw	a3,60(sp)
200130ea:	5762                	lw	a4,56(sp)
200130ec:	57d2                	lw	a5,52(sp)
200130ee:	5842                	lw	a6,48(sp)
200130f0:	58b2                	lw	a7,44(sp)
200130f2:	5e22                	lw	t3,40(sp)
200130f4:	5e92                	lw	t4,36(sp)
200130f6:	5f02                	lw	t5,32(sp)
200130f8:	4ff2                	lw	t6,28(sp)
200130fa:	6125                	addi	sp,sp,96
200130fc:	30200073          	mret

20013100 <metal_lc12_interrupt_vector_handler>:
metal_lc12_interrupt_vector_handler():
E:/8.AWS-FreeRTOS-HiFive1/Workspace/sifive-hifive1-revb-i2c/freedom-metal/src/drivers/riscv_cpu.c:373

/* The metal_lc12_interrupt_vector_handler() function can be redefined. */
void __attribute__((weak, interrupt)) metal_lc12_interrupt_vector_handler (void) {
20013100:	711d                	addi	sp,sp,-96
20013102:	ce86                	sw	ra,92(sp)
20013104:	cc96                	sw	t0,88(sp)
20013106:	ca9a                	sw	t1,84(sp)
20013108:	c89e                	sw	t2,80(sp)
2001310a:	c6a2                	sw	s0,76(sp)
2001310c:	c4aa                	sw	a0,72(sp)
2001310e:	c2ae                	sw	a1,68(sp)
20013110:	c0b2                	sw	a2,64(sp)
20013112:	de36                	sw	a3,60(sp)
20013114:	dc3a                	sw	a4,56(sp)
20013116:	da3e                	sw	a5,52(sp)
20013118:	d842                	sw	a6,48(sp)
2001311a:	d646                	sw	a7,44(sp)
2001311c:	d472                	sw	t3,40(sp)
2001311e:	d276                	sw	t4,36(sp)
20013120:	d07a                	sw	t5,32(sp)
20013122:	ce7e                	sw	t6,28(sp)
20013124:	1080                	addi	s0,sp,96
E:/8.AWS-FreeRTOS-HiFive1/Workspace/sifive-hifive1-revb-i2c/freedom-metal/src/drivers/riscv_cpu.c:376
    void *priv;
    struct __metal_driver_riscv_cpu_intc *intc;
    struct __metal_driver_cpu *cpu = __metal_cpu_table[__metal_myhart_id()];
20013126:	b72ff0ef          	jal	ra,20012498 <__metal_myhart_id>
2001312a:	872a                	mv	a4,a0
2001312c:	800017b7          	lui	a5,0x80001
20013130:	070a                	slli	a4,a4,0x2
20013132:	a8878793          	addi	a5,a5,-1400 # 80000a88 <metal_segment_heap_target_end+0xfffff318>
20013136:	97ba                	add	a5,a5,a4
20013138:	439c                	lw	a5,0(a5)
2001313a:	faf42623          	sw	a5,-84(s0)
E:/8.AWS-FreeRTOS-HiFive1/Workspace/sifive-hifive1-revb-i2c/freedom-metal/src/drivers/riscv_cpu.c:378

    if ( cpu ) {
2001313e:	fac42783          	lw	a5,-84(s0)
20013142:	c78d                	beqz	a5,2001316c <metal_lc12_interrupt_vector_handler+0x6c>
E:/8.AWS-FreeRTOS-HiFive1/Workspace/sifive-hifive1-revb-i2c/freedom-metal/src/drivers/riscv_cpu.c:380
        intc = (struct __metal_driver_riscv_cpu_intc *)
          __metal_driver_cpu_interrupt_controller((struct metal_cpu *)cpu);
20013144:	fac42503          	lw	a0,-84(s0)
20013148:	af6ff0ef          	jal	ra,2001243e <__metal_driver_cpu_interrupt_controller>
2001314c:	faa42423          	sw	a0,-88(s0)
E:/8.AWS-FreeRTOS-HiFive1/Workspace/sifive-hifive1-revb-i2c/freedom-metal/src/drivers/riscv_cpu.c:381
        priv = intc->metal_int_table[METAL_INTERRUPT_ID_LC12].exint_data;
20013150:	fa842783          	lw	a5,-88(s0)
20013154:	3387a783          	lw	a5,824(a5)
20013158:	faf42223          	sw	a5,-92(s0)
E:/8.AWS-FreeRTOS-HiFive1/Workspace/sifive-hifive1-revb-i2c/freedom-metal/src/drivers/riscv_cpu.c:382
        intc->metal_int_table[METAL_INTERRUPT_ID_LC12].handler(METAL_INTERRUPT_ID_LC12, priv);
2001315c:	fa842783          	lw	a5,-88(s0)
20013160:	3307a783          	lw	a5,816(a5)
20013164:	fa442583          	lw	a1,-92(s0)
20013168:	4571                	li	a0,28
2001316a:	9782                	jalr	a5
E:/8.AWS-FreeRTOS-HiFive1/Workspace/sifive-hifive1-revb-i2c/freedom-metal/src/drivers/riscv_cpu.c:384
    }
}
2001316c:	0001                	nop
2001316e:	40f6                	lw	ra,92(sp)
20013170:	42e6                	lw	t0,88(sp)
20013172:	4356                	lw	t1,84(sp)
20013174:	43c6                	lw	t2,80(sp)
20013176:	4436                	lw	s0,76(sp)
20013178:	4526                	lw	a0,72(sp)
2001317a:	4596                	lw	a1,68(sp)
2001317c:	4606                	lw	a2,64(sp)
2001317e:	56f2                	lw	a3,60(sp)
20013180:	5762                	lw	a4,56(sp)
20013182:	57d2                	lw	a5,52(sp)
20013184:	5842                	lw	a6,48(sp)
20013186:	58b2                	lw	a7,44(sp)
20013188:	5e22                	lw	t3,40(sp)
2001318a:	5e92                	lw	t4,36(sp)
2001318c:	5f02                	lw	t5,32(sp)
2001318e:	4ff2                	lw	t6,28(sp)
20013190:	6125                	addi	sp,sp,96
20013192:	30200073          	mret

20013196 <metal_lc13_interrupt_vector_handler>:
metal_lc13_interrupt_vector_handler():
E:/8.AWS-FreeRTOS-HiFive1/Workspace/sifive-hifive1-revb-i2c/freedom-metal/src/drivers/riscv_cpu.c:387

/* The metal_lc13_interrupt_vector_handler() function can be redefined. */
void __attribute__((weak, interrupt)) metal_lc13_interrupt_vector_handler (void) {
20013196:	711d                	addi	sp,sp,-96
20013198:	ce86                	sw	ra,92(sp)
2001319a:	cc96                	sw	t0,88(sp)
2001319c:	ca9a                	sw	t1,84(sp)
2001319e:	c89e                	sw	t2,80(sp)
200131a0:	c6a2                	sw	s0,76(sp)
200131a2:	c4aa                	sw	a0,72(sp)
200131a4:	c2ae                	sw	a1,68(sp)
200131a6:	c0b2                	sw	a2,64(sp)
200131a8:	de36                	sw	a3,60(sp)
200131aa:	dc3a                	sw	a4,56(sp)
200131ac:	da3e                	sw	a5,52(sp)
200131ae:	d842                	sw	a6,48(sp)
200131b0:	d646                	sw	a7,44(sp)
200131b2:	d472                	sw	t3,40(sp)
200131b4:	d276                	sw	t4,36(sp)
200131b6:	d07a                	sw	t5,32(sp)
200131b8:	ce7e                	sw	t6,28(sp)
200131ba:	1080                	addi	s0,sp,96
E:/8.AWS-FreeRTOS-HiFive1/Workspace/sifive-hifive1-revb-i2c/freedom-metal/src/drivers/riscv_cpu.c:390
    void *priv;
    struct __metal_driver_riscv_cpu_intc *intc;
    struct __metal_driver_cpu *cpu = __metal_cpu_table[__metal_myhart_id()];
200131bc:	adcff0ef          	jal	ra,20012498 <__metal_myhart_id>
200131c0:	872a                	mv	a4,a0
200131c2:	800017b7          	lui	a5,0x80001
200131c6:	070a                	slli	a4,a4,0x2
200131c8:	a8878793          	addi	a5,a5,-1400 # 80000a88 <metal_segment_heap_target_end+0xfffff318>
200131cc:	97ba                	add	a5,a5,a4
200131ce:	439c                	lw	a5,0(a5)
200131d0:	faf42623          	sw	a5,-84(s0)
E:/8.AWS-FreeRTOS-HiFive1/Workspace/sifive-hifive1-revb-i2c/freedom-metal/src/drivers/riscv_cpu.c:392

    if ( cpu ) {
200131d4:	fac42783          	lw	a5,-84(s0)
200131d8:	c78d                	beqz	a5,20013202 <metal_lc13_interrupt_vector_handler+0x6c>
E:/8.AWS-FreeRTOS-HiFive1/Workspace/sifive-hifive1-revb-i2c/freedom-metal/src/drivers/riscv_cpu.c:394
        intc = (struct __metal_driver_riscv_cpu_intc *)
          __metal_driver_cpu_interrupt_controller((struct metal_cpu *)cpu);
200131da:	fac42503          	lw	a0,-84(s0)
200131de:	a60ff0ef          	jal	ra,2001243e <__metal_driver_cpu_interrupt_controller>
200131e2:	faa42423          	sw	a0,-88(s0)
E:/8.AWS-FreeRTOS-HiFive1/Workspace/sifive-hifive1-revb-i2c/freedom-metal/src/drivers/riscv_cpu.c:395
        priv = intc->metal_int_table[METAL_INTERRUPT_ID_LC13].exint_data;
200131e6:	fa842783          	lw	a5,-88(s0)
200131ea:	3507a783          	lw	a5,848(a5)
200131ee:	faf42223          	sw	a5,-92(s0)
E:/8.AWS-FreeRTOS-HiFive1/Workspace/sifive-hifive1-revb-i2c/freedom-metal/src/drivers/riscv_cpu.c:396
        intc->metal_int_table[METAL_INTERRUPT_ID_LC13].handler(METAL_INTERRUPT_ID_LC13, priv);
200131f2:	fa842783          	lw	a5,-88(s0)
200131f6:	3487a783          	lw	a5,840(a5)
200131fa:	fa442583          	lw	a1,-92(s0)
200131fe:	4575                	li	a0,29
20013200:	9782                	jalr	a5
E:/8.AWS-FreeRTOS-HiFive1/Workspace/sifive-hifive1-revb-i2c/freedom-metal/src/drivers/riscv_cpu.c:398
    }
}
20013202:	0001                	nop
20013204:	40f6                	lw	ra,92(sp)
20013206:	42e6                	lw	t0,88(sp)
20013208:	4356                	lw	t1,84(sp)
2001320a:	43c6                	lw	t2,80(sp)
2001320c:	4436                	lw	s0,76(sp)
2001320e:	4526                	lw	a0,72(sp)
20013210:	4596                	lw	a1,68(sp)
20013212:	4606                	lw	a2,64(sp)
20013214:	56f2                	lw	a3,60(sp)
20013216:	5762                	lw	a4,56(sp)
20013218:	57d2                	lw	a5,52(sp)
2001321a:	5842                	lw	a6,48(sp)
2001321c:	58b2                	lw	a7,44(sp)
2001321e:	5e22                	lw	t3,40(sp)
20013220:	5e92                	lw	t4,36(sp)
20013222:	5f02                	lw	t5,32(sp)
20013224:	4ff2                	lw	t6,28(sp)
20013226:	6125                	addi	sp,sp,96
20013228:	30200073          	mret

2001322c <metal_lc14_interrupt_vector_handler>:
metal_lc14_interrupt_vector_handler():
E:/8.AWS-FreeRTOS-HiFive1/Workspace/sifive-hifive1-revb-i2c/freedom-metal/src/drivers/riscv_cpu.c:401

/* The metal_lc14_interrupt_vector_handler() function can be redefined. */
void __attribute__((weak, interrupt)) metal_lc14_interrupt_vector_handler (void) {
2001322c:	711d                	addi	sp,sp,-96
2001322e:	ce86                	sw	ra,92(sp)
20013230:	cc96                	sw	t0,88(sp)
20013232:	ca9a                	sw	t1,84(sp)
20013234:	c89e                	sw	t2,80(sp)
20013236:	c6a2                	sw	s0,76(sp)
20013238:	c4aa                	sw	a0,72(sp)
2001323a:	c2ae                	sw	a1,68(sp)
2001323c:	c0b2                	sw	a2,64(sp)
2001323e:	de36                	sw	a3,60(sp)
20013240:	dc3a                	sw	a4,56(sp)
20013242:	da3e                	sw	a5,52(sp)
20013244:	d842                	sw	a6,48(sp)
20013246:	d646                	sw	a7,44(sp)
20013248:	d472                	sw	t3,40(sp)
2001324a:	d276                	sw	t4,36(sp)
2001324c:	d07a                	sw	t5,32(sp)
2001324e:	ce7e                	sw	t6,28(sp)
20013250:	1080                	addi	s0,sp,96
E:/8.AWS-FreeRTOS-HiFive1/Workspace/sifive-hifive1-revb-i2c/freedom-metal/src/drivers/riscv_cpu.c:404
    void *priv;
    struct __metal_driver_riscv_cpu_intc *intc;
    struct __metal_driver_cpu *cpu = __metal_cpu_table[__metal_myhart_id()];
20013252:	a46ff0ef          	jal	ra,20012498 <__metal_myhart_id>
20013256:	872a                	mv	a4,a0
20013258:	800017b7          	lui	a5,0x80001
2001325c:	070a                	slli	a4,a4,0x2
2001325e:	a8878793          	addi	a5,a5,-1400 # 80000a88 <metal_segment_heap_target_end+0xfffff318>
20013262:	97ba                	add	a5,a5,a4
20013264:	439c                	lw	a5,0(a5)
20013266:	faf42623          	sw	a5,-84(s0)
E:/8.AWS-FreeRTOS-HiFive1/Workspace/sifive-hifive1-revb-i2c/freedom-metal/src/drivers/riscv_cpu.c:406

    if ( cpu ) {
2001326a:	fac42783          	lw	a5,-84(s0)
2001326e:	c78d                	beqz	a5,20013298 <metal_lc14_interrupt_vector_handler+0x6c>
E:/8.AWS-FreeRTOS-HiFive1/Workspace/sifive-hifive1-revb-i2c/freedom-metal/src/drivers/riscv_cpu.c:408
        intc = (struct __metal_driver_riscv_cpu_intc *)
          __metal_driver_cpu_interrupt_controller((struct metal_cpu *)cpu);
20013270:	fac42503          	lw	a0,-84(s0)
20013274:	9caff0ef          	jal	ra,2001243e <__metal_driver_cpu_interrupt_controller>
20013278:	faa42423          	sw	a0,-88(s0)
E:/8.AWS-FreeRTOS-HiFive1/Workspace/sifive-hifive1-revb-i2c/freedom-metal/src/drivers/riscv_cpu.c:409
        priv = intc->metal_int_table[METAL_INTERRUPT_ID_LC14].exint_data;
2001327c:	fa842783          	lw	a5,-88(s0)
20013280:	3687a783          	lw	a5,872(a5)
20013284:	faf42223          	sw	a5,-92(s0)
E:/8.AWS-FreeRTOS-HiFive1/Workspace/sifive-hifive1-revb-i2c/freedom-metal/src/drivers/riscv_cpu.c:410
        intc->metal_int_table[METAL_INTERRUPT_ID_LC14].handler(METAL_INTERRUPT_ID_LC14, priv);
20013288:	fa842783          	lw	a5,-88(s0)
2001328c:	3607a783          	lw	a5,864(a5)
20013290:	fa442583          	lw	a1,-92(s0)
20013294:	4579                	li	a0,30
20013296:	9782                	jalr	a5
E:/8.AWS-FreeRTOS-HiFive1/Workspace/sifive-hifive1-revb-i2c/freedom-metal/src/drivers/riscv_cpu.c:412
    }
}
20013298:	0001                	nop
2001329a:	40f6                	lw	ra,92(sp)
2001329c:	42e6                	lw	t0,88(sp)
2001329e:	4356                	lw	t1,84(sp)
200132a0:	43c6                	lw	t2,80(sp)
200132a2:	4436                	lw	s0,76(sp)
200132a4:	4526                	lw	a0,72(sp)
200132a6:	4596                	lw	a1,68(sp)
200132a8:	4606                	lw	a2,64(sp)
200132aa:	56f2                	lw	a3,60(sp)
200132ac:	5762                	lw	a4,56(sp)
200132ae:	57d2                	lw	a5,52(sp)
200132b0:	5842                	lw	a6,48(sp)
200132b2:	58b2                	lw	a7,44(sp)
200132b4:	5e22                	lw	t3,40(sp)
200132b6:	5e92                	lw	t4,36(sp)
200132b8:	5f02                	lw	t5,32(sp)
200132ba:	4ff2                	lw	t6,28(sp)
200132bc:	6125                	addi	sp,sp,96
200132be:	30200073          	mret

200132c2 <metal_lc15_interrupt_vector_handler>:
metal_lc15_interrupt_vector_handler():
E:/8.AWS-FreeRTOS-HiFive1/Workspace/sifive-hifive1-revb-i2c/freedom-metal/src/drivers/riscv_cpu.c:415

/* The metal_lc15_interrupt_vector_handler() function can be redefined. */
void __attribute__((weak, interrupt)) metal_lc15_interrupt_vector_handler (void) {
200132c2:	711d                	addi	sp,sp,-96
200132c4:	ce86                	sw	ra,92(sp)
200132c6:	cc96                	sw	t0,88(sp)
200132c8:	ca9a                	sw	t1,84(sp)
200132ca:	c89e                	sw	t2,80(sp)
200132cc:	c6a2                	sw	s0,76(sp)
200132ce:	c4aa                	sw	a0,72(sp)
200132d0:	c2ae                	sw	a1,68(sp)
200132d2:	c0b2                	sw	a2,64(sp)
200132d4:	de36                	sw	a3,60(sp)
200132d6:	dc3a                	sw	a4,56(sp)
200132d8:	da3e                	sw	a5,52(sp)
200132da:	d842                	sw	a6,48(sp)
200132dc:	d646                	sw	a7,44(sp)
200132de:	d472                	sw	t3,40(sp)
200132e0:	d276                	sw	t4,36(sp)
200132e2:	d07a                	sw	t5,32(sp)
200132e4:	ce7e                	sw	t6,28(sp)
200132e6:	1080                	addi	s0,sp,96
E:/8.AWS-FreeRTOS-HiFive1/Workspace/sifive-hifive1-revb-i2c/freedom-metal/src/drivers/riscv_cpu.c:418
    void *priv;
    struct __metal_driver_riscv_cpu_intc *intc;
    struct __metal_driver_cpu *cpu = __metal_cpu_table[__metal_myhart_id()];
200132e8:	9b0ff0ef          	jal	ra,20012498 <__metal_myhart_id>
200132ec:	872a                	mv	a4,a0
200132ee:	800017b7          	lui	a5,0x80001
200132f2:	070a                	slli	a4,a4,0x2
200132f4:	a8878793          	addi	a5,a5,-1400 # 80000a88 <metal_segment_heap_target_end+0xfffff318>
200132f8:	97ba                	add	a5,a5,a4
200132fa:	439c                	lw	a5,0(a5)
200132fc:	faf42623          	sw	a5,-84(s0)
E:/8.AWS-FreeRTOS-HiFive1/Workspace/sifive-hifive1-revb-i2c/freedom-metal/src/drivers/riscv_cpu.c:420

    if ( cpu ) {
20013300:	fac42783          	lw	a5,-84(s0)
20013304:	c78d                	beqz	a5,2001332e <metal_lc15_interrupt_vector_handler+0x6c>
E:/8.AWS-FreeRTOS-HiFive1/Workspace/sifive-hifive1-revb-i2c/freedom-metal/src/drivers/riscv_cpu.c:422
        intc = (struct __metal_driver_riscv_cpu_intc *)
          __metal_driver_cpu_interrupt_controller((struct metal_cpu *)cpu);
20013306:	fac42503          	lw	a0,-84(s0)
2001330a:	934ff0ef          	jal	ra,2001243e <__metal_driver_cpu_interrupt_controller>
2001330e:	faa42423          	sw	a0,-88(s0)
E:/8.AWS-FreeRTOS-HiFive1/Workspace/sifive-hifive1-revb-i2c/freedom-metal/src/drivers/riscv_cpu.c:423
        priv = intc->metal_int_table[METAL_INTERRUPT_ID_LC15].exint_data;
20013312:	fa842783          	lw	a5,-88(s0)
20013316:	3807a783          	lw	a5,896(a5)
2001331a:	faf42223          	sw	a5,-92(s0)
E:/8.AWS-FreeRTOS-HiFive1/Workspace/sifive-hifive1-revb-i2c/freedom-metal/src/drivers/riscv_cpu.c:424
        intc->metal_int_table[METAL_INTERRUPT_ID_LC15].handler(METAL_INTERRUPT_ID_LC15, priv);
2001331e:	fa842783          	lw	a5,-88(s0)
20013322:	3787a783          	lw	a5,888(a5)
20013326:	fa442583          	lw	a1,-92(s0)
2001332a:	457d                	li	a0,31
2001332c:	9782                	jalr	a5
E:/8.AWS-FreeRTOS-HiFive1/Workspace/sifive-hifive1-revb-i2c/freedom-metal/src/drivers/riscv_cpu.c:426
    }
}
2001332e:	0001                	nop
20013330:	40f6                	lw	ra,92(sp)
20013332:	42e6                	lw	t0,88(sp)
20013334:	4356                	lw	t1,84(sp)
20013336:	43c6                	lw	t2,80(sp)
20013338:	4436                	lw	s0,76(sp)
2001333a:	4526                	lw	a0,72(sp)
2001333c:	4596                	lw	a1,68(sp)
2001333e:	4606                	lw	a2,64(sp)
20013340:	56f2                	lw	a3,60(sp)
20013342:	5762                	lw	a4,56(sp)
20013344:	57d2                	lw	a5,52(sp)
20013346:	5842                	lw	a6,48(sp)
20013348:	58b2                	lw	a7,44(sp)
2001334a:	5e22                	lw	t3,40(sp)
2001334c:	5e92                	lw	t4,36(sp)
2001334e:	5f02                	lw	t5,32(sp)
20013350:	4ff2                	lw	t6,28(sp)
20013352:	6125                	addi	sp,sp,96
20013354:	30200073          	mret

20013358 <__metal_controller_interrupt_vector_mode>:
__metal_controller_interrupt_vector_mode():
E:/8.AWS-FreeRTOS-HiFive1/Workspace/sifive-hifive1-revb-i2c/freedom-metal/src/drivers/riscv_cpu.c:429

metal_vector_mode __metal_controller_interrupt_vector_mode (void)
{
20013358:	1101                	addi	sp,sp,-32
2001335a:	ce22                	sw	s0,28(sp)
2001335c:	1000                	addi	s0,sp,32
E:/8.AWS-FreeRTOS-HiFive1/Workspace/sifive-hifive1-revb-i2c/freedom-metal/src/drivers/riscv_cpu.c:432
    uintptr_t val;

    asm volatile ("csrr %0, mtvec" : "=r"(val));
2001335e:	305027f3          	csrr	a5,mtvec
20013362:	fef42623          	sw	a5,-20(s0)
E:/8.AWS-FreeRTOS-HiFive1/Workspace/sifive-hifive1-revb-i2c/freedom-metal/src/drivers/riscv_cpu.c:433
    val &= METAL_MTVEC_MASK;
20013366:	fec42783          	lw	a5,-20(s0)
2001336a:	03f7f793          	andi	a5,a5,63
2001336e:	fef42623          	sw	a5,-20(s0)
E:/8.AWS-FreeRTOS-HiFive1/Workspace/sifive-hifive1-revb-i2c/freedom-metal/src/drivers/riscv_cpu.c:435

    switch (val) {
20013372:	fec42703          	lw	a4,-20(s0)
20013376:	4789                	li	a5,2
20013378:	00f70d63          	beq	a4,a5,20013392 <__metal_controller_interrupt_vector_mode+0x3a>
2001337c:	fec42703          	lw	a4,-20(s0)
20013380:	478d                	li	a5,3
20013382:	00f70a63          	beq	a4,a5,20013396 <__metal_controller_interrupt_vector_mode+0x3e>
20013386:	fec42703          	lw	a4,-20(s0)
2001338a:	4785                	li	a5,1
2001338c:	00f70763          	beq	a4,a5,2001339a <__metal_controller_interrupt_vector_mode+0x42>
20013390:	a039                	j	2001339e <__metal_controller_interrupt_vector_mode+0x46>
E:/8.AWS-FreeRTOS-HiFive1/Workspace/sifive-hifive1-revb-i2c/freedom-metal/src/drivers/riscv_cpu.c:437
    case METAL_MTVEC_CLIC:
        return METAL_SELECTIVE_VECTOR_MODE;
20013392:	478d                	li	a5,3
20013394:	a031                	j	200133a0 <__metal_controller_interrupt_vector_mode+0x48>
E:/8.AWS-FreeRTOS-HiFive1/Workspace/sifive-hifive1-revb-i2c/freedom-metal/src/drivers/riscv_cpu.c:439
    case METAL_MTVEC_CLIC_VECTORED:
        return METAL_HARDWARE_VECTOR_MODE;
20013396:	4791                	li	a5,4
20013398:	a021                	j	200133a0 <__metal_controller_interrupt_vector_mode+0x48>
E:/8.AWS-FreeRTOS-HiFive1/Workspace/sifive-hifive1-revb-i2c/freedom-metal/src/drivers/riscv_cpu.c:441
    case METAL_MTVEC_VECTORED:
        return METAL_VECTOR_MODE;
2001339a:	4785                	li	a5,1
2001339c:	a011                	j	200133a0 <__metal_controller_interrupt_vector_mode+0x48>
E:/8.AWS-FreeRTOS-HiFive1/Workspace/sifive-hifive1-revb-i2c/freedom-metal/src/drivers/riscv_cpu.c:443
    }
    return METAL_DIRECT_MODE;
2001339e:	4781                	li	a5,0
E:/8.AWS-FreeRTOS-HiFive1/Workspace/sifive-hifive1-revb-i2c/freedom-metal/src/drivers/riscv_cpu.c:444
}
200133a0:	853e                	mv	a0,a5
200133a2:	4472                	lw	s0,28(sp)
200133a4:	6105                	addi	sp,sp,32
200133a6:	8082                	ret

200133a8 <__metal_controller_interrupt_vector>:
__metal_controller_interrupt_vector():
E:/8.AWS-FreeRTOS-HiFive1/Workspace/sifive-hifive1-revb-i2c/freedom-metal/src/drivers/riscv_cpu.c:447

void __metal_controller_interrupt_vector (metal_vector_mode mode, void *vec_table)
{  
200133a8:	7179                	addi	sp,sp,-48
200133aa:	d622                	sw	s0,44(sp)
200133ac:	1800                	addi	s0,sp,48
200133ae:	fca42e23          	sw	a0,-36(s0)
200133b2:	fcb42c23          	sw	a1,-40(s0)
E:/8.AWS-FreeRTOS-HiFive1/Workspace/sifive-hifive1-revb-i2c/freedom-metal/src/drivers/riscv_cpu.c:450
    uintptr_t trap_entry, val;

    __asm__ volatile ("csrr %0, mtvec" : "=r"(val));
200133b6:	305027f3          	csrr	a5,mtvec
200133ba:	fef42623          	sw	a5,-20(s0)
E:/8.AWS-FreeRTOS-HiFive1/Workspace/sifive-hifive1-revb-i2c/freedom-metal/src/drivers/riscv_cpu.c:451
    val &= ~(METAL_MTVEC_CLIC_VECTORED | METAL_MTVEC_CLIC_RESERVED);
200133be:	fec42783          	lw	a5,-20(s0)
200133c2:	fc07f793          	andi	a5,a5,-64
200133c6:	fef42623          	sw	a5,-20(s0)
E:/8.AWS-FreeRTOS-HiFive1/Workspace/sifive-hifive1-revb-i2c/freedom-metal/src/drivers/riscv_cpu.c:452
    trap_entry = (uintptr_t)vec_table;
200133ca:	fd842783          	lw	a5,-40(s0)
200133ce:	fef42423          	sw	a5,-24(s0)
E:/8.AWS-FreeRTOS-HiFive1/Workspace/sifive-hifive1-revb-i2c/freedom-metal/src/drivers/riscv_cpu.c:454

    switch (mode) {
200133d2:	fdc42703          	lw	a4,-36(s0)
200133d6:	4791                	li	a5,4
200133d8:	06e7e063          	bltu	a5,a4,20013438 <__metal_controller_interrupt_vector+0x90>
200133dc:	fdc42783          	lw	a5,-36(s0)
200133e0:	00279713          	slli	a4,a5,0x2
200133e4:	200177b7          	lui	a5,0x20017
200133e8:	02878793          	addi	a5,a5,40 # 20017028 <__metal_driver_vtable_riscv_clint0+0x4c>
200133ec:	97ba                	add	a5,a5,a4
200133ee:	439c                	lw	a5,0(a5)
200133f0:	8782                	jr	a5
E:/8.AWS-FreeRTOS-HiFive1/Workspace/sifive-hifive1-revb-i2c/freedom-metal/src/drivers/riscv_cpu.c:457
    case METAL_SELECTIVE_NONVECTOR_MODE:
    case METAL_SELECTIVE_VECTOR_MODE:
        __asm__ volatile ("csrw 0x307, %0" :: "r"(trap_entry));
200133f2:	fe842783          	lw	a5,-24(s0)
200133f6:	30779073          	csrw	mtvt,a5
E:/8.AWS-FreeRTOS-HiFive1/Workspace/sifive-hifive1-revb-i2c/freedom-metal/src/drivers/riscv_cpu.c:458
        __asm__ volatile ("csrw mtvec, %0" :: "r"(val | METAL_MTVEC_CLIC));
200133fa:	fec42783          	lw	a5,-20(s0)
200133fe:	0027e793          	ori	a5,a5,2
20013402:	30579073          	csrw	mtvec,a5
E:/8.AWS-FreeRTOS-HiFive1/Workspace/sifive-hifive1-revb-i2c/freedom-metal/src/drivers/riscv_cpu.c:459
        break;
20013406:	a80d                	j	20013438 <__metal_controller_interrupt_vector+0x90>
E:/8.AWS-FreeRTOS-HiFive1/Workspace/sifive-hifive1-revb-i2c/freedom-metal/src/drivers/riscv_cpu.c:461
    case METAL_HARDWARE_VECTOR_MODE:
        __asm__ volatile ("csrw 0x307, %0" :: "r"(trap_entry));
20013408:	fe842783          	lw	a5,-24(s0)
2001340c:	30779073          	csrw	mtvt,a5
E:/8.AWS-FreeRTOS-HiFive1/Workspace/sifive-hifive1-revb-i2c/freedom-metal/src/drivers/riscv_cpu.c:462
        __asm__ volatile ("csrw mtvec, %0" :: "r"(val | METAL_MTVEC_CLIC_VECTORED));
20013410:	fec42783          	lw	a5,-20(s0)
20013414:	0037e793          	ori	a5,a5,3
20013418:	30579073          	csrw	mtvec,a5
E:/8.AWS-FreeRTOS-HiFive1/Workspace/sifive-hifive1-revb-i2c/freedom-metal/src/drivers/riscv_cpu.c:463
        break;
2001341c:	a831                	j	20013438 <__metal_controller_interrupt_vector+0x90>
E:/8.AWS-FreeRTOS-HiFive1/Workspace/sifive-hifive1-revb-i2c/freedom-metal/src/drivers/riscv_cpu.c:465
    case METAL_VECTOR_MODE:
        __asm__ volatile ("csrw mtvec, %0" :: "r"(trap_entry | METAL_MTVEC_VECTORED));
2001341e:	fe842783          	lw	a5,-24(s0)
20013422:	0017e793          	ori	a5,a5,1
20013426:	30579073          	csrw	mtvec,a5
E:/8.AWS-FreeRTOS-HiFive1/Workspace/sifive-hifive1-revb-i2c/freedom-metal/src/drivers/riscv_cpu.c:466
        break;
2001342a:	a039                	j	20013438 <__metal_controller_interrupt_vector+0x90>
E:/8.AWS-FreeRTOS-HiFive1/Workspace/sifive-hifive1-revb-i2c/freedom-metal/src/drivers/riscv_cpu.c:468
    case METAL_DIRECT_MODE:
        __asm__ volatile ("csrw mtvec, %0" :: "r"(trap_entry & ~METAL_MTVEC_CLIC_VECTORED));
2001342c:	fe842783          	lw	a5,-24(s0)
20013430:	9bf1                	andi	a5,a5,-4
20013432:	30579073          	csrw	mtvec,a5
E:/8.AWS-FreeRTOS-HiFive1/Workspace/sifive-hifive1-revb-i2c/freedom-metal/src/drivers/riscv_cpu.c:469
        break;
20013436:	0001                	nop
E:/8.AWS-FreeRTOS-HiFive1/Workspace/sifive-hifive1-revb-i2c/freedom-metal/src/drivers/riscv_cpu.c:471
    }
}
20013438:	0001                	nop
2001343a:	5432                	lw	s0,44(sp)
2001343c:	6145                	addi	sp,sp,48
2001343e:	8082                	ret

20013440 <__metal_valid_interrupt_id>:
__metal_valid_interrupt_id():
E:/8.AWS-FreeRTOS-HiFive1/Workspace/sifive-hifive1-revb-i2c/freedom-metal/src/drivers/riscv_cpu.c:474

int __metal_valid_interrupt_id (int id)
{
20013440:	1101                	addi	sp,sp,-32
20013442:	ce22                	sw	s0,28(sp)
20013444:	1000                	addi	s0,sp,32
20013446:	fea42623          	sw	a0,-20(s0)
E:/8.AWS-FreeRTOS-HiFive1/Workspace/sifive-hifive1-revb-i2c/freedom-metal/src/drivers/riscv_cpu.c:475
    switch (id) {
2001344a:	fec42783          	lw	a5,-20(s0)
2001344e:	17f5                	addi	a5,a5,-3
20013450:	4771                	li	a4,28
20013452:	00f76d63          	bltu	a4,a5,2001346c <__metal_valid_interrupt_id+0x2c>
20013456:	00279713          	slli	a4,a5,0x2
2001345a:	200177b7          	lui	a5,0x20017
2001345e:	03c78793          	addi	a5,a5,60 # 2001703c <__metal_driver_vtable_riscv_clint0+0x60>
20013462:	97ba                	add	a5,a5,a4
20013464:	439c                	lw	a5,0(a5)
20013466:	8782                	jr	a5
E:/8.AWS-FreeRTOS-HiFive1/Workspace/sifive-hifive1-revb-i2c/freedom-metal/src/drivers/riscv_cpu.c:495
    case METAL_INTERRUPT_ID_LC11:
    case METAL_INTERRUPT_ID_LC12:
    case METAL_INTERRUPT_ID_LC13:
    case METAL_INTERRUPT_ID_LC14:
    case METAL_INTERRUPT_ID_LC15:
        return 1;
20013468:	4785                	li	a5,1
2001346a:	a019                	j	20013470 <__metal_valid_interrupt_id+0x30>
E:/8.AWS-FreeRTOS-HiFive1/Workspace/sifive-hifive1-revb-i2c/freedom-metal/src/drivers/riscv_cpu.c:497
    default:
        break;
2001346c:	0001                	nop
E:/8.AWS-FreeRTOS-HiFive1/Workspace/sifive-hifive1-revb-i2c/freedom-metal/src/drivers/riscv_cpu.c:500
    }

    return 0;
2001346e:	4781                	li	a5,0
E:/8.AWS-FreeRTOS-HiFive1/Workspace/sifive-hifive1-revb-i2c/freedom-metal/src/drivers/riscv_cpu.c:501
}
20013470:	853e                	mv	a0,a5
20013472:	4472                	lw	s0,28(sp)
20013474:	6105                	addi	sp,sp,32
20013476:	8082                	ret

20013478 <__metal_local_interrupt_enable>:
__metal_local_interrupt_enable():
E:/8.AWS-FreeRTOS-HiFive1/Workspace/sifive-hifive1-revb-i2c/freedom-metal/src/drivers/riscv_cpu.c:506

 
int __metal_local_interrupt_enable (struct metal_interrupt *controller,
				  metal_interrupt_id_e id, int enable)
{
20013478:	7179                	addi	sp,sp,-48
2001347a:	d606                	sw	ra,44(sp)
2001347c:	d422                	sw	s0,40(sp)
2001347e:	1800                	addi	s0,sp,48
20013480:	fca42e23          	sw	a0,-36(s0)
20013484:	fcb42c23          	sw	a1,-40(s0)
20013488:	fcc42a23          	sw	a2,-44(s0)
E:/8.AWS-FreeRTOS-HiFive1/Workspace/sifive-hifive1-revb-i2c/freedom-metal/src/drivers/riscv_cpu.c:507
    int rc = 0;
2001348c:	fe042623          	sw	zero,-20(s0)
E:/8.AWS-FreeRTOS-HiFive1/Workspace/sifive-hifive1-revb-i2c/freedom-metal/src/drivers/riscv_cpu.c:509
  
    if ( !controller) {
20013490:	fdc42783          	lw	a5,-36(s0)
20013494:	e399                	bnez	a5,2001349a <__metal_local_interrupt_enable+0x22>
E:/8.AWS-FreeRTOS-HiFive1/Workspace/sifive-hifive1-revb-i2c/freedom-metal/src/drivers/riscv_cpu.c:510
        return -1;
20013496:	57fd                	li	a5,-1
20013498:	a849                	j	2001352a <__metal_local_interrupt_enable+0xb2>
E:/8.AWS-FreeRTOS-HiFive1/Workspace/sifive-hifive1-revb-i2c/freedom-metal/src/drivers/riscv_cpu.c:513
    }

    switch (id) {
2001349a:	fd842703          	lw	a4,-40(s0)
2001349e:	47fd                	li	a5,31
200134a0:	08e7e063          	bltu	a5,a4,20013520 <__metal_local_interrupt_enable+0xa8>
200134a4:	fd842783          	lw	a5,-40(s0)
200134a8:	00279713          	slli	a4,a5,0x2
200134ac:	200177b7          	lui	a5,0x20017
200134b0:	0b078793          	addi	a5,a5,176 # 200170b0 <__metal_driver_vtable_riscv_clint0+0xd4>
200134b4:	97ba                	add	a5,a5,a4
200134b6:	439c                	lw	a5,0(a5)
200134b8:	8782                	jr	a5
E:/8.AWS-FreeRTOS-HiFive1/Workspace/sifive-hifive1-revb-i2c/freedom-metal/src/drivers/riscv_cpu.c:515
    case METAL_INTERRUPT_ID_BASE:
        if (enable) {
200134ba:	fd442783          	lw	a5,-44(s0)
200134be:	c781                	beqz	a5,200134c6 <__metal_local_interrupt_enable+0x4e>
E:/8.AWS-FreeRTOS-HiFive1/Workspace/sifive-hifive1-revb-i2c/freedom-metal/src/drivers/riscv_cpu.c:516
            __metal_interrupt_global_enable();
200134c0:	ff3fe0ef          	jal	ra,200124b2 <__metal_interrupt_global_enable>
E:/8.AWS-FreeRTOS-HiFive1/Workspace/sifive-hifive1-revb-i2c/freedom-metal/src/drivers/riscv_cpu.c:520
        } else {
            __metal_interrupt_global_disable();
        }
        break;
200134c4:	a08d                	j	20013526 <__metal_local_interrupt_enable+0xae>
E:/8.AWS-FreeRTOS-HiFive1/Workspace/sifive-hifive1-revb-i2c/freedom-metal/src/drivers/riscv_cpu.c:518
            __metal_interrupt_global_disable();
200134c6:	804ff0ef          	jal	ra,200124ca <__metal_interrupt_global_disable>
E:/8.AWS-FreeRTOS-HiFive1/Workspace/sifive-hifive1-revb-i2c/freedom-metal/src/drivers/riscv_cpu.c:520
        break;
200134ca:	a8b1                	j	20013526 <__metal_local_interrupt_enable+0xae>
E:/8.AWS-FreeRTOS-HiFive1/Workspace/sifive-hifive1-revb-i2c/freedom-metal/src/drivers/riscv_cpu.c:522
    case METAL_INTERRUPT_ID_SW:
        if (enable) {
200134cc:	fd442783          	lw	a5,-44(s0)
200134d0:	c781                	beqz	a5,200134d8 <__metal_local_interrupt_enable+0x60>
E:/8.AWS-FreeRTOS-HiFive1/Workspace/sifive-hifive1-revb-i2c/freedom-metal/src/drivers/riscv_cpu.c:523
            __metal_interrupt_software_enable();
200134d2:	810ff0ef          	jal	ra,200124e2 <__metal_interrupt_software_enable>
E:/8.AWS-FreeRTOS-HiFive1/Workspace/sifive-hifive1-revb-i2c/freedom-metal/src/drivers/riscv_cpu.c:527
        } else {
            __metal_interrupt_software_disable();
        }
        break;
200134d6:	a881                	j	20013526 <__metal_local_interrupt_enable+0xae>
E:/8.AWS-FreeRTOS-HiFive1/Workspace/sifive-hifive1-revb-i2c/freedom-metal/src/drivers/riscv_cpu.c:525
            __metal_interrupt_software_disable();
200134d8:	822ff0ef          	jal	ra,200124fa <__metal_interrupt_software_disable>
E:/8.AWS-FreeRTOS-HiFive1/Workspace/sifive-hifive1-revb-i2c/freedom-metal/src/drivers/riscv_cpu.c:527
        break;
200134dc:	a0a9                	j	20013526 <__metal_local_interrupt_enable+0xae>
E:/8.AWS-FreeRTOS-HiFive1/Workspace/sifive-hifive1-revb-i2c/freedom-metal/src/drivers/riscv_cpu.c:529
    case METAL_INTERRUPT_ID_TMR:
        if (enable) {
200134de:	fd442783          	lw	a5,-44(s0)
200134e2:	c781                	beqz	a5,200134ea <__metal_local_interrupt_enable+0x72>
E:/8.AWS-FreeRTOS-HiFive1/Workspace/sifive-hifive1-revb-i2c/freedom-metal/src/drivers/riscv_cpu.c:530
	    __metal_interrupt_timer_enable();
200134e4:	82eff0ef          	jal	ra,20012512 <__metal_interrupt_timer_enable>
E:/8.AWS-FreeRTOS-HiFive1/Workspace/sifive-hifive1-revb-i2c/freedom-metal/src/drivers/riscv_cpu.c:534
	} else {
	    __metal_interrupt_timer_disable();
	}
	break;
200134e8:	a83d                	j	20013526 <__metal_local_interrupt_enable+0xae>
E:/8.AWS-FreeRTOS-HiFive1/Workspace/sifive-hifive1-revb-i2c/freedom-metal/src/drivers/riscv_cpu.c:532
	    __metal_interrupt_timer_disable();
200134ea:	842ff0ef          	jal	ra,2001252c <__metal_interrupt_timer_disable>
E:/8.AWS-FreeRTOS-HiFive1/Workspace/sifive-hifive1-revb-i2c/freedom-metal/src/drivers/riscv_cpu.c:534
	break;
200134ee:	a825                	j	20013526 <__metal_local_interrupt_enable+0xae>
E:/8.AWS-FreeRTOS-HiFive1/Workspace/sifive-hifive1-revb-i2c/freedom-metal/src/drivers/riscv_cpu.c:536
    case METAL_INTERRUPT_ID_EXT:
        if (enable) {
200134f0:	fd442783          	lw	a5,-44(s0)
200134f4:	c781                	beqz	a5,200134fc <__metal_local_interrupt_enable+0x84>
E:/8.AWS-FreeRTOS-HiFive1/Workspace/sifive-hifive1-revb-i2c/freedom-metal/src/drivers/riscv_cpu.c:537
            __metal_interrupt_external_enable();
200134f6:	850ff0ef          	jal	ra,20012546 <__metal_interrupt_external_enable>
E:/8.AWS-FreeRTOS-HiFive1/Workspace/sifive-hifive1-revb-i2c/freedom-metal/src/drivers/riscv_cpu.c:541
        } else {
            __metal_interrupt_external_disable();
        }
        break;
200134fa:	a035                	j	20013526 <__metal_local_interrupt_enable+0xae>
E:/8.AWS-FreeRTOS-HiFive1/Workspace/sifive-hifive1-revb-i2c/freedom-metal/src/drivers/riscv_cpu.c:539
            __metal_interrupt_external_disable();
200134fc:	866ff0ef          	jal	ra,20012562 <__metal_interrupt_external_disable>
E:/8.AWS-FreeRTOS-HiFive1/Workspace/sifive-hifive1-revb-i2c/freedom-metal/src/drivers/riscv_cpu.c:541
        break;
20013500:	a01d                	j	20013526 <__metal_local_interrupt_enable+0xae>
E:/8.AWS-FreeRTOS-HiFive1/Workspace/sifive-hifive1-revb-i2c/freedom-metal/src/drivers/riscv_cpu.c:558
    case METAL_INTERRUPT_ID_LC11:
    case METAL_INTERRUPT_ID_LC12:
    case METAL_INTERRUPT_ID_LC13:
    case METAL_INTERRUPT_ID_LC14:
    case METAL_INTERRUPT_ID_LC15:
        if (enable) {
20013502:	fd442783          	lw	a5,-44(s0)
20013506:	c799                	beqz	a5,20013514 <__metal_local_interrupt_enable+0x9c>
E:/8.AWS-FreeRTOS-HiFive1/Workspace/sifive-hifive1-revb-i2c/freedom-metal/src/drivers/riscv_cpu.c:559
            __metal_interrupt_local_enable(id);
20013508:	fd842783          	lw	a5,-40(s0)
2001350c:	853e                	mv	a0,a5
2001350e:	870ff0ef          	jal	ra,2001257e <__metal_interrupt_local_enable>
E:/8.AWS-FreeRTOS-HiFive1/Workspace/sifive-hifive1-revb-i2c/freedom-metal/src/drivers/riscv_cpu.c:563
        } else {
            __metal_interrupt_local_disable(id);
        }
        break;
20013512:	a811                	j	20013526 <__metal_local_interrupt_enable+0xae>
E:/8.AWS-FreeRTOS-HiFive1/Workspace/sifive-hifive1-revb-i2c/freedom-metal/src/drivers/riscv_cpu.c:561
            __metal_interrupt_local_disable(id);
20013514:	fd842783          	lw	a5,-40(s0)
20013518:	853e                	mv	a0,a5
2001351a:	890ff0ef          	jal	ra,200125aa <__metal_interrupt_local_disable>
E:/8.AWS-FreeRTOS-HiFive1/Workspace/sifive-hifive1-revb-i2c/freedom-metal/src/drivers/riscv_cpu.c:563
        break;
2001351e:	a021                	j	20013526 <__metal_local_interrupt_enable+0xae>
E:/8.AWS-FreeRTOS-HiFive1/Workspace/sifive-hifive1-revb-i2c/freedom-metal/src/drivers/riscv_cpu.c:565
    default:
        rc = -1;
20013520:	57fd                	li	a5,-1
20013522:	fef42623          	sw	a5,-20(s0)
E:/8.AWS-FreeRTOS-HiFive1/Workspace/sifive-hifive1-revb-i2c/freedom-metal/src/drivers/riscv_cpu.c:567
    }
    return rc;
20013526:	fec42783          	lw	a5,-20(s0)
E:/8.AWS-FreeRTOS-HiFive1/Workspace/sifive-hifive1-revb-i2c/freedom-metal/src/drivers/riscv_cpu.c:568
}
2001352a:	853e                	mv	a0,a5
2001352c:	50b2                	lw	ra,44(sp)
2001352e:	5422                	lw	s0,40(sp)
20013530:	6145                	addi	sp,sp,48
20013532:	8082                	ret

20013534 <__metal_exception_register>:
__metal_exception_register():
E:/8.AWS-FreeRTOS-HiFive1/Workspace/sifive-hifive1-revb-i2c/freedom-metal/src/drivers/riscv_cpu.c:572

int __metal_exception_register (struct metal_interrupt *controller,
                              int ecode, metal_exception_handler_t isr)
{
20013534:	7179                	addi	sp,sp,-48
20013536:	d622                	sw	s0,44(sp)
20013538:	1800                	addi	s0,sp,48
2001353a:	fca42e23          	sw	a0,-36(s0)
2001353e:	fcb42c23          	sw	a1,-40(s0)
20013542:	fcc42a23          	sw	a2,-44(s0)
E:/8.AWS-FreeRTOS-HiFive1/Workspace/sifive-hifive1-revb-i2c/freedom-metal/src/drivers/riscv_cpu.c:573
    struct __metal_driver_riscv_cpu_intc *intc = (void *)(controller);
20013546:	fdc42783          	lw	a5,-36(s0)
2001354a:	fef42623          	sw	a5,-20(s0)
E:/8.AWS-FreeRTOS-HiFive1/Workspace/sifive-hifive1-revb-i2c/freedom-metal/src/drivers/riscv_cpu.c:575

    if ((ecode < METAL_MAX_EXCEPTION_CODE) && isr) {
2001354e:	fd842703          	lw	a4,-40(s0)
20013552:	47ad                	li	a5,11
20013554:	02e7c263          	blt	a5,a4,20013578 <__metal_exception_register+0x44>
E:/8.AWS-FreeRTOS-HiFive1/Workspace/sifive-hifive1-revb-i2c/freedom-metal/src/drivers/riscv_cpu.c:575 (discriminator 1)
20013558:	fd442783          	lw	a5,-44(s0)
2001355c:	cf91                	beqz	a5,20013578 <__metal_exception_register+0x44>
E:/8.AWS-FreeRTOS-HiFive1/Workspace/sifive-hifive1-revb-i2c/freedom-metal/src/drivers/riscv_cpu.c:576
        intc->metal_exception_table[ecode] = isr;
2001355e:	fec42703          	lw	a4,-20(s0)
20013562:	fd842783          	lw	a5,-40(s0)
20013566:	0e078793          	addi	a5,a5,224
2001356a:	078a                	slli	a5,a5,0x2
2001356c:	97ba                	add	a5,a5,a4
2001356e:	fd442703          	lw	a4,-44(s0)
20013572:	c798                	sw	a4,8(a5)
E:/8.AWS-FreeRTOS-HiFive1/Workspace/sifive-hifive1-revb-i2c/freedom-metal/src/drivers/riscv_cpu.c:577
        return 0;
20013574:	4781                	li	a5,0
20013576:	a011                	j	2001357a <__metal_exception_register+0x46>
E:/8.AWS-FreeRTOS-HiFive1/Workspace/sifive-hifive1-revb-i2c/freedom-metal/src/drivers/riscv_cpu.c:579
    }
    return -1;
20013578:	57fd                	li	a5,-1
E:/8.AWS-FreeRTOS-HiFive1/Workspace/sifive-hifive1-revb-i2c/freedom-metal/src/drivers/riscv_cpu.c:580
}
2001357a:	853e                	mv	a0,a5
2001357c:	5432                	lw	s0,44(sp)
2001357e:	6145                	addi	sp,sp,48
20013580:	8082                	ret

20013582 <__metal_driver_riscv_cpu_controller_interrupt_init>:
__metal_driver_riscv_cpu_controller_interrupt_init():
E:/8.AWS-FreeRTOS-HiFive1/Workspace/sifive-hifive1-revb-i2c/freedom-metal/src/drivers/riscv_cpu.c:583

void __metal_driver_riscv_cpu_controller_interrupt_init (struct metal_interrupt *controller)
{
20013582:	7139                	addi	sp,sp,-64
20013584:	de06                	sw	ra,60(sp)
20013586:	dc22                	sw	s0,56(sp)
20013588:	0080                	addi	s0,sp,64
2001358a:	fca42623          	sw	a0,-52(s0)
E:/8.AWS-FreeRTOS-HiFive1/Workspace/sifive-hifive1-revb-i2c/freedom-metal/src/drivers/riscv_cpu.c:584
    struct __metal_driver_riscv_cpu_intc *intc = (void *)(controller);
2001358e:	fcc42783          	lw	a5,-52(s0)
20013592:	fef42223          	sw	a5,-28(s0)
E:/8.AWS-FreeRTOS-HiFive1/Workspace/sifive-hifive1-revb-i2c/freedom-metal/src/drivers/riscv_cpu.c:587
    uintptr_t val;

    if ( !intc->init_done ) {
20013596:	fe442783          	lw	a5,-28(s0)
2001359a:	43dc                	lw	a5,4(a5)
2001359c:	10079d63          	bnez	a5,200136b6 <__metal_driver_riscv_cpu_controller_interrupt_init+0x134>
E:/8.AWS-FreeRTOS-HiFive1/Workspace/sifive-hifive1-revb-i2c/freedom-metal/src/drivers/riscv_cpu.c:589
        /* Disable and clear all interrupt sources */
        __asm__ volatile ("csrc mie, %0" :: "r"(-1));
200135a0:	57fd                	li	a5,-1
200135a2:	3047b073          	csrc	mie,a5
E:/8.AWS-FreeRTOS-HiFive1/Workspace/sifive-hifive1-revb-i2c/freedom-metal/src/drivers/riscv_cpu.c:590
        __asm__ volatile ("csrc mip, %0" :: "r"(-1));
200135a6:	57fd                	li	a5,-1
200135a8:	3447b073          	csrc	mip,a5
E:/8.AWS-FreeRTOS-HiFive1/Workspace/sifive-hifive1-revb-i2c/freedom-metal/src/drivers/riscv_cpu.c:594

        /* Read the misa CSR to determine if the delegation registers exist */
        uintptr_t misa;
        __asm__ volatile ("csrr %0, misa" : "=r" (misa));
200135ac:	301027f3          	csrr	a5,misa
200135b0:	fef42023          	sw	a5,-32(s0)
E:/8.AWS-FreeRTOS-HiFive1/Workspace/sifive-hifive1-revb-i2c/freedom-metal/src/drivers/riscv_cpu.c:598

        /* The delegation CSRs exist if user mode interrupts (N extension) or
         * supervisor mode (S extension) are supported */
        if((misa & METAL_ISA_N_EXTENSIONS) || (misa & METAL_ISA_S_EXTENSIONS)) {
200135b4:	fe042703          	lw	a4,-32(s0)
200135b8:	6789                	lui	a5,0x2
200135ba:	8ff9                	and	a5,a5,a4
200135bc:	e799                	bnez	a5,200135ca <__metal_driver_riscv_cpu_controller_interrupt_init+0x48>
E:/8.AWS-FreeRTOS-HiFive1/Workspace/sifive-hifive1-revb-i2c/freedom-metal/src/drivers/riscv_cpu.c:598 (discriminator 1)
200135be:	fe042703          	lw	a4,-32(s0)
200135c2:	000407b7          	lui	a5,0x40
200135c6:	8ff9                	and	a5,a5,a4
200135c8:	c799                	beqz	a5,200135d6 <__metal_driver_riscv_cpu_controller_interrupt_init+0x54>
E:/8.AWS-FreeRTOS-HiFive1/Workspace/sifive-hifive1-revb-i2c/freedom-metal/src/drivers/riscv_cpu.c:600
            /* Disable interrupt and exception delegation */
            __asm__ volatile ("csrc mideleg, %0" :: "r"(-1));
200135ca:	57fd                	li	a5,-1
200135cc:	3037b073          	csrc	mideleg,a5
E:/8.AWS-FreeRTOS-HiFive1/Workspace/sifive-hifive1-revb-i2c/freedom-metal/src/drivers/riscv_cpu.c:601
            __asm__ volatile ("csrc medeleg, %0" :: "r"(-1));
200135d0:	57fd                	li	a5,-1
200135d2:	3027b073          	csrc	medeleg,a5
E:/8.AWS-FreeRTOS-HiFive1/Workspace/sifive-hifive1-revb-i2c/freedom-metal/src/drivers/riscv_cpu.c:605
        }

        /* The satp CSR exists if supervisor mode (S extension) is supported */
        if(misa & METAL_ISA_S_EXTENSIONS) {
200135d6:	fe042703          	lw	a4,-32(s0)
200135da:	000407b7          	lui	a5,0x40
200135de:	8ff9                	and	a5,a5,a4
200135e0:	c781                	beqz	a5,200135e8 <__metal_driver_riscv_cpu_controller_interrupt_init+0x66>
E:/8.AWS-FreeRTOS-HiFive1/Workspace/sifive-hifive1-revb-i2c/freedom-metal/src/drivers/riscv_cpu.c:607
            /* Clear the entire CSR to make sure that satp.MODE = 0 */
            __asm__ volatile ("csrc satp, %0" :: "r"(-1));
200135e2:	57fd                	li	a5,-1
200135e4:	1807b073          	csrc	satp,a5
E:/8.AWS-FreeRTOS-HiFive1/Workspace/sifive-hifive1-revb-i2c/freedom-metal/src/drivers/riscv_cpu.c:611
        }

        /* Default to use direct interrupt, setup sw cb table*/
        for (int i = 0; i < METAL_MAX_MI; i++) {
200135e8:	fe042623          	sw	zero,-20(s0)
200135ec:	a0b9                	j	2001363a <__metal_driver_riscv_cpu_controller_interrupt_init+0xb8>
E:/8.AWS-FreeRTOS-HiFive1/Workspace/sifive-hifive1-revb-i2c/freedom-metal/src/drivers/riscv_cpu.c:612 (discriminator 3)
            intc->metal_int_table[i].handler = NULL;
200135ee:	fe442683          	lw	a3,-28(s0)
200135f2:	fec42703          	lw	a4,-20(s0)
200135f6:	87ba                	mv	a5,a4
200135f8:	0786                	slli	a5,a5,0x1
200135fa:	97ba                	add	a5,a5,a4
200135fc:	078e                	slli	a5,a5,0x3
200135fe:	97b6                	add	a5,a5,a3
20013600:	0807a823          	sw	zero,144(a5) # 40090 <__heap_size+0x3f890>
E:/8.AWS-FreeRTOS-HiFive1/Workspace/sifive-hifive1-revb-i2c/freedom-metal/src/drivers/riscv_cpu.c:613 (discriminator 3)
            intc->metal_int_table[i].sub_int = NULL;
20013604:	fe442683          	lw	a3,-28(s0)
20013608:	fec42703          	lw	a4,-20(s0)
2001360c:	87ba                	mv	a5,a4
2001360e:	0786                	slli	a5,a5,0x1
20013610:	97ba                	add	a5,a5,a4
20013612:	078e                	slli	a5,a5,0x3
20013614:	97b6                	add	a5,a5,a3
20013616:	0807aa23          	sw	zero,148(a5)
E:/8.AWS-FreeRTOS-HiFive1/Workspace/sifive-hifive1-revb-i2c/freedom-metal/src/drivers/riscv_cpu.c:614 (discriminator 3)
            intc->metal_int_table[i].exint_data = NULL;
2001361a:	fe442683          	lw	a3,-28(s0)
2001361e:	fec42703          	lw	a4,-20(s0)
20013622:	87ba                	mv	a5,a4
20013624:	0786                	slli	a5,a5,0x1
20013626:	97ba                	add	a5,a5,a4
20013628:	078e                	slli	a5,a5,0x3
2001362a:	97b6                	add	a5,a5,a3
2001362c:	0807ac23          	sw	zero,152(a5)
E:/8.AWS-FreeRTOS-HiFive1/Workspace/sifive-hifive1-revb-i2c/freedom-metal/src/drivers/riscv_cpu.c:611 (discriminator 3)
        for (int i = 0; i < METAL_MAX_MI; i++) {
20013630:	fec42783          	lw	a5,-20(s0)
20013634:	0785                	addi	a5,a5,1
20013636:	fef42623          	sw	a5,-20(s0)
E:/8.AWS-FreeRTOS-HiFive1/Workspace/sifive-hifive1-revb-i2c/freedom-metal/src/drivers/riscv_cpu.c:611 (discriminator 1)
2001363a:	fec42703          	lw	a4,-20(s0)
2001363e:	47fd                	li	a5,31
20013640:	fae7d7e3          	bge	a5,a4,200135ee <__metal_driver_riscv_cpu_controller_interrupt_init+0x6c>
E:/8.AWS-FreeRTOS-HiFive1/Workspace/sifive-hifive1-revb-i2c/freedom-metal/src/drivers/riscv_cpu.c:616
	}
	for (int i = 0; i < METAL_MAX_ME; i++) {
20013644:	fe042423          	sw	zero,-24(s0)
20013648:	a01d                	j	2001366e <__metal_driver_riscv_cpu_controller_interrupt_init+0xec>
E:/8.AWS-FreeRTOS-HiFive1/Workspace/sifive-hifive1-revb-i2c/freedom-metal/src/drivers/riscv_cpu.c:617 (discriminator 3)
	    intc->metal_exception_table[i] = __metal_default_exception_handler;
2001364a:	fe442703          	lw	a4,-28(s0)
2001364e:	fe842783          	lw	a5,-24(s0)
20013652:	0e078793          	addi	a5,a5,224
20013656:	078a                	slli	a5,a5,0x2
20013658:	97ba                	add	a5,a5,a4
2001365a:	20012737          	lui	a4,0x20012
2001365e:	5d670713          	addi	a4,a4,1494 # 200125d6 <__metal_default_exception_handler>
20013662:	c798                	sw	a4,8(a5)
E:/8.AWS-FreeRTOS-HiFive1/Workspace/sifive-hifive1-revb-i2c/freedom-metal/src/drivers/riscv_cpu.c:616 (discriminator 3)
	for (int i = 0; i < METAL_MAX_ME; i++) {
20013664:	fe842783          	lw	a5,-24(s0)
20013668:	0785                	addi	a5,a5,1
2001366a:	fef42423          	sw	a5,-24(s0)
E:/8.AWS-FreeRTOS-HiFive1/Workspace/sifive-hifive1-revb-i2c/freedom-metal/src/drivers/riscv_cpu.c:616 (discriminator 1)
2001366e:	fe842703          	lw	a4,-24(s0)
20013672:	47ad                	li	a5,11
20013674:	fce7dbe3          	bge	a5,a4,2001364a <__metal_driver_riscv_cpu_controller_interrupt_init+0xc8>
E:/8.AWS-FreeRTOS-HiFive1/Workspace/sifive-hifive1-revb-i2c/freedom-metal/src/drivers/riscv_cpu.c:619
	}
        __metal_controller_interrupt_vector(METAL_DIRECT_MODE, (void *)(uintptr_t)&__metal_exception_handler);
20013678:	200137b7          	lui	a5,0x20013
2001367c:	88078593          	addi	a1,a5,-1920 # 20012880 <__metal_exception_handler>
20013680:	4501                	li	a0,0
20013682:	331d                	jal	200133a8 <__metal_controller_interrupt_vector>
E:/8.AWS-FreeRTOS-HiFive1/Workspace/sifive-hifive1-revb-i2c/freedom-metal/src/drivers/riscv_cpu.c:620
	__asm__ volatile ("csrr %0, misa" : "=r"(val));
20013684:	301027f3          	csrr	a5,misa
20013688:	fcf42e23          	sw	a5,-36(s0)
E:/8.AWS-FreeRTOS-HiFive1/Workspace/sifive-hifive1-revb-i2c/freedom-metal/src/drivers/riscv_cpu.c:621
	if (val & (METAL_ISA_D_EXTENSIONS | METAL_ISA_F_EXTENSIONS | METAL_ISA_Q_EXTENSIONS)) {
2001368c:	fdc42703          	lw	a4,-36(s0)
20013690:	67c1                	lui	a5,0x10
20013692:	02878793          	addi	a5,a5,40 # 10028 <__heap_size+0xf828>
20013696:	8ff9                	and	a5,a5,a4
20013698:	cb99                	beqz	a5,200136ae <__metal_driver_riscv_cpu_controller_interrupt_init+0x12c>
E:/8.AWS-FreeRTOS-HiFive1/Workspace/sifive-hifive1-revb-i2c/freedom-metal/src/drivers/riscv_cpu.c:623
	    /* Floating point architecture, so turn on FP register saving*/
	    __asm__ volatile ("csrr %0, mstatus" : "=r"(val));
2001369a:	300027f3          	csrr	a5,mstatus
2001369e:	fcf42e23          	sw	a5,-36(s0)
E:/8.AWS-FreeRTOS-HiFive1/Workspace/sifive-hifive1-revb-i2c/freedom-metal/src/drivers/riscv_cpu.c:624
	    __asm__ volatile ("csrw mstatus, %0" :: "r"(val | METAL_MSTATUS_FS_INIT));
200136a2:	fdc42703          	lw	a4,-36(s0)
200136a6:	6789                	lui	a5,0x2
200136a8:	8fd9                	or	a5,a5,a4
200136aa:	30079073          	csrw	mstatus,a5
E:/8.AWS-FreeRTOS-HiFive1/Workspace/sifive-hifive1-revb-i2c/freedom-metal/src/drivers/riscv_cpu.c:626
	}
	intc->init_done = 1;
200136ae:	fe442783          	lw	a5,-28(s0)
200136b2:	4705                	li	a4,1
200136b4:	c3d8                	sw	a4,4(a5)
E:/8.AWS-FreeRTOS-HiFive1/Workspace/sifive-hifive1-revb-i2c/freedom-metal/src/drivers/riscv_cpu.c:628
    }
}
200136b6:	0001                	nop
200136b8:	50f2                	lw	ra,60(sp)
200136ba:	5462                	lw	s0,56(sp)
200136bc:	6121                	addi	sp,sp,64
200136be:	8082                	ret

200136c0 <__metal_driver_riscv_cpu_controller_interrupt_register>:
__metal_driver_riscv_cpu_controller_interrupt_register():
E:/8.AWS-FreeRTOS-HiFive1/Workspace/sifive-hifive1-revb-i2c/freedom-metal/src/drivers/riscv_cpu.c:633

int __metal_driver_riscv_cpu_controller_interrupt_register(struct metal_interrupt *controller,
							 int id, metal_interrupt_handler_t isr,
							 void *priv)
{
200136c0:	7179                	addi	sp,sp,-48
200136c2:	d606                	sw	ra,44(sp)
200136c4:	d422                	sw	s0,40(sp)
200136c6:	1800                	addi	s0,sp,48
200136c8:	fca42e23          	sw	a0,-36(s0)
200136cc:	fcb42c23          	sw	a1,-40(s0)
200136d0:	fcc42a23          	sw	a2,-44(s0)
200136d4:	fcd42823          	sw	a3,-48(s0)
E:/8.AWS-FreeRTOS-HiFive1/Workspace/sifive-hifive1-revb-i2c/freedom-metal/src/drivers/riscv_cpu.c:634
    int rc = 0;
200136d8:	fe042623          	sw	zero,-20(s0)
E:/8.AWS-FreeRTOS-HiFive1/Workspace/sifive-hifive1-revb-i2c/freedom-metal/src/drivers/riscv_cpu.c:635
    struct __metal_driver_riscv_cpu_intc *intc = (void *)(controller);
200136dc:	fdc42783          	lw	a5,-36(s0)
200136e0:	fef42423          	sw	a5,-24(s0)
E:/8.AWS-FreeRTOS-HiFive1/Workspace/sifive-hifive1-revb-i2c/freedom-metal/src/drivers/riscv_cpu.c:637
 
    if ( !__metal_valid_interrupt_id(id) ) {
200136e4:	fd842503          	lw	a0,-40(s0)
200136e8:	3ba1                	jal	20013440 <__metal_valid_interrupt_id>
200136ea:	87aa                	mv	a5,a0
200136ec:	e399                	bnez	a5,200136f2 <__metal_driver_riscv_cpu_controller_interrupt_register+0x32>
E:/8.AWS-FreeRTOS-HiFive1/Workspace/sifive-hifive1-revb-i2c/freedom-metal/src/drivers/riscv_cpu.c:638
        return -11;
200136ee:	57d5                	li	a5,-11
200136f0:	aa11                	j	20013804 <__metal_driver_riscv_cpu_controller_interrupt_register+0x144>
E:/8.AWS-FreeRTOS-HiFive1/Workspace/sifive-hifive1-revb-i2c/freedom-metal/src/drivers/riscv_cpu.c:641
    }

    if (isr) {
200136f2:	fd442783          	lw	a5,-44(s0)
200136f6:	cf85                	beqz	a5,2001372e <__metal_driver_riscv_cpu_controller_interrupt_register+0x6e>
E:/8.AWS-FreeRTOS-HiFive1/Workspace/sifive-hifive1-revb-i2c/freedom-metal/src/drivers/riscv_cpu.c:642
        intc->metal_int_table[id].handler = isr;
200136f8:	fe842683          	lw	a3,-24(s0)
200136fc:	fd842703          	lw	a4,-40(s0)
20013700:	87ba                	mv	a5,a4
20013702:	0786                	slli	a5,a5,0x1
20013704:	97ba                	add	a5,a5,a4
20013706:	078e                	slli	a5,a5,0x3
20013708:	97b6                	add	a5,a5,a3
2001370a:	fd442703          	lw	a4,-44(s0)
2001370e:	08e7a823          	sw	a4,144(a5) # 2090 <__heap_size+0x1890>
E:/8.AWS-FreeRTOS-HiFive1/Workspace/sifive-hifive1-revb-i2c/freedom-metal/src/drivers/riscv_cpu.c:643
        intc->metal_int_table[id].exint_data = priv;
20013712:	fe842683          	lw	a3,-24(s0)
20013716:	fd842703          	lw	a4,-40(s0)
2001371a:	87ba                	mv	a5,a4
2001371c:	0786                	slli	a5,a5,0x1
2001371e:	97ba                	add	a5,a5,a4
20013720:	078e                	slli	a5,a5,0x3
20013722:	97b6                	add	a5,a5,a3
20013724:	fd042703          	lw	a4,-48(s0)
20013728:	08e7ac23          	sw	a4,152(a5)
2001372c:	a8d1                	j	20013800 <__metal_driver_riscv_cpu_controller_interrupt_register+0x140>
E:/8.AWS-FreeRTOS-HiFive1/Workspace/sifive-hifive1-revb-i2c/freedom-metal/src/drivers/riscv_cpu.c:645
    } else {
	switch (id) {
2001372e:	fd842783          	lw	a5,-40(s0)
20013732:	17f5                	addi	a5,a5,-3
20013734:	4771                	li	a4,28
20013736:	0cf76263          	bltu	a4,a5,200137fa <__metal_driver_riscv_cpu_controller_interrupt_register+0x13a>
2001373a:	00279713          	slli	a4,a5,0x2
2001373e:	200177b7          	lui	a5,0x20017
20013742:	13078793          	addi	a5,a5,304 # 20017130 <__metal_driver_vtable_riscv_clint0+0x154>
20013746:	97ba                	add	a5,a5,a4
20013748:	439c                	lw	a5,0(a5)
2001374a:	8782                	jr	a5
E:/8.AWS-FreeRTOS-HiFive1/Workspace/sifive-hifive1-revb-i2c/freedom-metal/src/drivers/riscv_cpu.c:647
	case METAL_INTERRUPT_ID_SW:
            intc->metal_int_table[id].handler = __metal_default_sw_handler;
2001374c:	fe842683          	lw	a3,-24(s0)
20013750:	fd842703          	lw	a4,-40(s0)
20013754:	87ba                	mv	a5,a4
20013756:	0786                	slli	a5,a5,0x1
20013758:	97ba                	add	a5,a5,a4
2001375a:	078e                	slli	a5,a5,0x3
2001375c:	97b6                	add	a5,a5,a3
2001375e:	20012737          	lui	a4,0x20012
20013762:	6c670713          	addi	a4,a4,1734 # 200126c6 <__metal_default_sw_handler>
20013766:	08e7a823          	sw	a4,144(a5)
E:/8.AWS-FreeRTOS-HiFive1/Workspace/sifive-hifive1-revb-i2c/freedom-metal/src/drivers/riscv_cpu.c:648
            intc->metal_int_table[id].sub_int = priv;
2001376a:	fe842683          	lw	a3,-24(s0)
2001376e:	fd842703          	lw	a4,-40(s0)
20013772:	87ba                	mv	a5,a4
20013774:	0786                	slli	a5,a5,0x1
20013776:	97ba                	add	a5,a5,a4
20013778:	078e                	slli	a5,a5,0x3
2001377a:	97b6                	add	a5,a5,a3
2001377c:	fd042703          	lw	a4,-48(s0)
20013780:	08e7aa23          	sw	a4,148(a5)
E:/8.AWS-FreeRTOS-HiFive1/Workspace/sifive-hifive1-revb-i2c/freedom-metal/src/drivers/riscv_cpu.c:649
	  break;
20013784:	a8b5                	j	20013800 <__metal_driver_riscv_cpu_controller_interrupt_register+0x140>
E:/8.AWS-FreeRTOS-HiFive1/Workspace/sifive-hifive1-revb-i2c/freedom-metal/src/drivers/riscv_cpu.c:651
	case METAL_INTERRUPT_ID_TMR:
            intc->metal_int_table[id].handler = __metal_default_timer_handler;
20013786:	fe842683          	lw	a3,-24(s0)
2001378a:	fd842703          	lw	a4,-40(s0)
2001378e:	87ba                	mv	a5,a4
20013790:	0786                	slli	a5,a5,0x1
20013792:	97ba                	add	a5,a5,a4
20013794:	078e                	slli	a5,a5,0x3
20013796:	97b6                	add	a5,a5,a3
20013798:	20012737          	lui	a4,0x20012
2001379c:	7c070713          	addi	a4,a4,1984 # 200127c0 <__metal_default_timer_handler>
200137a0:	08e7a823          	sw	a4,144(a5)
E:/8.AWS-FreeRTOS-HiFive1/Workspace/sifive-hifive1-revb-i2c/freedom-metal/src/drivers/riscv_cpu.c:652
            intc->metal_int_table[id].sub_int = priv;
200137a4:	fe842683          	lw	a3,-24(s0)
200137a8:	fd842703          	lw	a4,-40(s0)
200137ac:	87ba                	mv	a5,a4
200137ae:	0786                	slli	a5,a5,0x1
200137b0:	97ba                	add	a5,a5,a4
200137b2:	078e                	slli	a5,a5,0x3
200137b4:	97b6                	add	a5,a5,a3
200137b6:	fd042703          	lw	a4,-48(s0)
200137ba:	08e7aa23          	sw	a4,148(a5)
E:/8.AWS-FreeRTOS-HiFive1/Workspace/sifive-hifive1-revb-i2c/freedom-metal/src/drivers/riscv_cpu.c:653
	  break;
200137be:	a089                	j	20013800 <__metal_driver_riscv_cpu_controller_interrupt_register+0x140>
E:/8.AWS-FreeRTOS-HiFive1/Workspace/sifive-hifive1-revb-i2c/freedom-metal/src/drivers/riscv_cpu.c:671
	case METAL_INTERRUPT_ID_LC11:
	case METAL_INTERRUPT_ID_LC12:
	case METAL_INTERRUPT_ID_LC13:
	case METAL_INTERRUPT_ID_LC14:
	case METAL_INTERRUPT_ID_LC15:
            intc->metal_int_table[id].handler = __metal_default_interrupt_handler;
200137c0:	fe842683          	lw	a3,-24(s0)
200137c4:	fd842703          	lw	a4,-40(s0)
200137c8:	87ba                	mv	a5,a4
200137ca:	0786                	slli	a5,a5,0x1
200137cc:	97ba                	add	a5,a5,a4
200137ce:	078e                	slli	a5,a5,0x3
200137d0:	97b6                	add	a5,a5,a3
200137d2:	20012737          	lui	a4,0x20012
200137d6:	5ee70713          	addi	a4,a4,1518 # 200125ee <__metal_default_interrupt_handler>
200137da:	08e7a823          	sw	a4,144(a5)
E:/8.AWS-FreeRTOS-HiFive1/Workspace/sifive-hifive1-revb-i2c/freedom-metal/src/drivers/riscv_cpu.c:672
            intc->metal_int_table[id].sub_int = priv;
200137de:	fe842683          	lw	a3,-24(s0)
200137e2:	fd842703          	lw	a4,-40(s0)
200137e6:	87ba                	mv	a5,a4
200137e8:	0786                	slli	a5,a5,0x1
200137ea:	97ba                	add	a5,a5,a4
200137ec:	078e                	slli	a5,a5,0x3
200137ee:	97b6                	add	a5,a5,a3
200137f0:	fd042703          	lw	a4,-48(s0)
200137f4:	08e7aa23          	sw	a4,148(a5)
E:/8.AWS-FreeRTOS-HiFive1/Workspace/sifive-hifive1-revb-i2c/freedom-metal/src/drivers/riscv_cpu.c:673
	  break;
200137f8:	a021                	j	20013800 <__metal_driver_riscv_cpu_controller_interrupt_register+0x140>
E:/8.AWS-FreeRTOS-HiFive1/Workspace/sifive-hifive1-revb-i2c/freedom-metal/src/drivers/riscv_cpu.c:675
	default:
	  rc = -12;
200137fa:	57d1                	li	a5,-12
200137fc:	fef42623          	sw	a5,-20(s0)
E:/8.AWS-FreeRTOS-HiFive1/Workspace/sifive-hifive1-revb-i2c/freedom-metal/src/drivers/riscv_cpu.c:678
	}
    }
    return rc;
20013800:	fec42783          	lw	a5,-20(s0)
E:/8.AWS-FreeRTOS-HiFive1/Workspace/sifive-hifive1-revb-i2c/freedom-metal/src/drivers/riscv_cpu.c:679
}
20013804:	853e                	mv	a0,a5
20013806:	50b2                	lw	ra,44(sp)
20013808:	5422                	lw	s0,40(sp)
2001380a:	6145                	addi	sp,sp,48
2001380c:	8082                	ret

2001380e <__metal_driver_riscv_cpu_controller_interrupt_enable>:
__metal_driver_riscv_cpu_controller_interrupt_enable():
E:/8.AWS-FreeRTOS-HiFive1/Workspace/sifive-hifive1-revb-i2c/freedom-metal/src/drivers/riscv_cpu.c:683

int __metal_driver_riscv_cpu_controller_interrupt_enable (struct metal_interrupt *controller,
                                                        int id)
{
2001380e:	1101                	addi	sp,sp,-32
20013810:	ce06                	sw	ra,28(sp)
20013812:	cc22                	sw	s0,24(sp)
20013814:	1000                	addi	s0,sp,32
20013816:	fea42623          	sw	a0,-20(s0)
2001381a:	feb42423          	sw	a1,-24(s0)
E:/8.AWS-FreeRTOS-HiFive1/Workspace/sifive-hifive1-revb-i2c/freedom-metal/src/drivers/riscv_cpu.c:684
    return __metal_local_interrupt_enable(controller, id, METAL_ENABLE);
2001381e:	fe842783          	lw	a5,-24(s0)
20013822:	4605                	li	a2,1
20013824:	85be                	mv	a1,a5
20013826:	fec42503          	lw	a0,-20(s0)
2001382a:	31b9                	jal	20013478 <__metal_local_interrupt_enable>
2001382c:	87aa                	mv	a5,a0
E:/8.AWS-FreeRTOS-HiFive1/Workspace/sifive-hifive1-revb-i2c/freedom-metal/src/drivers/riscv_cpu.c:685
}
2001382e:	853e                	mv	a0,a5
20013830:	40f2                	lw	ra,28(sp)
20013832:	4462                	lw	s0,24(sp)
20013834:	6105                	addi	sp,sp,32
20013836:	8082                	ret

20013838 <__metal_driver_riscv_cpu_controller_interrupt_disable>:
__metal_driver_riscv_cpu_controller_interrupt_disable():
E:/8.AWS-FreeRTOS-HiFive1/Workspace/sifive-hifive1-revb-i2c/freedom-metal/src/drivers/riscv_cpu.c:689

int __metal_driver_riscv_cpu_controller_interrupt_disable (struct metal_interrupt *controller,
                                                         int id)
{   
20013838:	1101                	addi	sp,sp,-32
2001383a:	ce06                	sw	ra,28(sp)
2001383c:	cc22                	sw	s0,24(sp)
2001383e:	1000                	addi	s0,sp,32
20013840:	fea42623          	sw	a0,-20(s0)
20013844:	feb42423          	sw	a1,-24(s0)
E:/8.AWS-FreeRTOS-HiFive1/Workspace/sifive-hifive1-revb-i2c/freedom-metal/src/drivers/riscv_cpu.c:690
    return __metal_local_interrupt_enable(controller, id, METAL_DISABLE);
20013848:	fe842783          	lw	a5,-24(s0)
2001384c:	4601                	li	a2,0
2001384e:	85be                	mv	a1,a5
20013850:	fec42503          	lw	a0,-20(s0)
20013854:	c25ff0ef          	jal	ra,20013478 <__metal_local_interrupt_enable>
20013858:	87aa                	mv	a5,a0
E:/8.AWS-FreeRTOS-HiFive1/Workspace/sifive-hifive1-revb-i2c/freedom-metal/src/drivers/riscv_cpu.c:691
}
2001385a:	853e                	mv	a0,a5
2001385c:	40f2                	lw	ra,28(sp)
2001385e:	4462                	lw	s0,24(sp)
20013860:	6105                	addi	sp,sp,32
20013862:	8082                	ret

20013864 <__metal_driver_riscv_cpu_controller_get_vector_mode>:
__metal_driver_riscv_cpu_controller_get_vector_mode():
E:/8.AWS-FreeRTOS-HiFive1/Workspace/sifive-hifive1-revb-i2c/freedom-metal/src/drivers/riscv_cpu.c:722
    }
    return -1;
}

metal_vector_mode __metal_driver_riscv_cpu_controller_get_vector_mode (struct metal_interrupt *controller)
{   
20013864:	1101                	addi	sp,sp,-32
20013866:	ce06                	sw	ra,28(sp)
20013868:	cc22                	sw	s0,24(sp)
2001386a:	1000                	addi	s0,sp,32
2001386c:	fea42623          	sw	a0,-20(s0)
E:/8.AWS-FreeRTOS-HiFive1/Workspace/sifive-hifive1-revb-i2c/freedom-metal/src/drivers/riscv_cpu.c:723
    return __metal_controller_interrupt_vector_mode();
20013870:	ae9ff0ef          	jal	ra,20013358 <__metal_controller_interrupt_vector_mode>
20013874:	87aa                	mv	a5,a0
E:/8.AWS-FreeRTOS-HiFive1/Workspace/sifive-hifive1-revb-i2c/freedom-metal/src/drivers/riscv_cpu.c:724
}
20013876:	853e                	mv	a0,a5
20013878:	40f2                	lw	ra,28(sp)
2001387a:	4462                	lw	s0,24(sp)
2001387c:	6105                	addi	sp,sp,32
2001387e:	8082                	ret

20013880 <__metal_driver_riscv_cpu_controller_set_vector_mode>:
__metal_driver_riscv_cpu_controller_set_vector_mode():
E:/8.AWS-FreeRTOS-HiFive1/Workspace/sifive-hifive1-revb-i2c/freedom-metal/src/drivers/riscv_cpu.c:728

int __metal_driver_riscv_cpu_controller_set_vector_mode (struct metal_interrupt *controller,
                                                         metal_vector_mode mode)
{   
20013880:	7179                	addi	sp,sp,-48
20013882:	d606                	sw	ra,44(sp)
20013884:	d422                	sw	s0,40(sp)
20013886:	1800                	addi	s0,sp,48
20013888:	fca42e23          	sw	a0,-36(s0)
2001388c:	fcb42c23          	sw	a1,-40(s0)
E:/8.AWS-FreeRTOS-HiFive1/Workspace/sifive-hifive1-revb-i2c/freedom-metal/src/drivers/riscv_cpu.c:729
    struct __metal_driver_riscv_cpu_intc *intc = (void *)(controller);
20013890:	fdc42783          	lw	a5,-36(s0)
20013894:	fef42623          	sw	a5,-20(s0)
E:/8.AWS-FreeRTOS-HiFive1/Workspace/sifive-hifive1-revb-i2c/freedom-metal/src/drivers/riscv_cpu.c:731

    if (mode == METAL_DIRECT_MODE) {
20013898:	fd842783          	lw	a5,-40(s0)
2001389c:	eb99                	bnez	a5,200138b2 <__metal_driver_riscv_cpu_controller_set_vector_mode+0x32>
E:/8.AWS-FreeRTOS-HiFive1/Workspace/sifive-hifive1-revb-i2c/freedom-metal/src/drivers/riscv_cpu.c:732
        __metal_controller_interrupt_vector(mode, (void *)(uintptr_t)&__metal_exception_handler);
2001389e:	200137b7          	lui	a5,0x20013
200138a2:	88078593          	addi	a1,a5,-1920 # 20012880 <__metal_exception_handler>
200138a6:	fd842503          	lw	a0,-40(s0)
200138aa:	affff0ef          	jal	ra,200133a8 <__metal_controller_interrupt_vector>
E:/8.AWS-FreeRTOS-HiFive1/Workspace/sifive-hifive1-revb-i2c/freedom-metal/src/drivers/riscv_cpu.c:733
            return 0;
200138ae:	4781                	li	a5,0
200138b0:	a00d                	j	200138d2 <__metal_driver_riscv_cpu_controller_set_vector_mode+0x52>
E:/8.AWS-FreeRTOS-HiFive1/Workspace/sifive-hifive1-revb-i2c/freedom-metal/src/drivers/riscv_cpu.c:735
    }
    if (mode == METAL_VECTOR_MODE) {
200138b2:	fd842703          	lw	a4,-40(s0)
200138b6:	4785                	li	a5,1
200138b8:	00f71c63          	bne	a4,a5,200138d0 <__metal_driver_riscv_cpu_controller_set_vector_mode+0x50>
E:/8.AWS-FreeRTOS-HiFive1/Workspace/sifive-hifive1-revb-i2c/freedom-metal/src/drivers/riscv_cpu.c:736
        __metal_controller_interrupt_vector(mode, (void *)__metal_vector_table);
200138bc:	200167b7          	lui	a5,0x20016
200138c0:	00078593          	mv	a1,a5
200138c4:	fd842503          	lw	a0,-40(s0)
200138c8:	ae1ff0ef          	jal	ra,200133a8 <__metal_controller_interrupt_vector>
E:/8.AWS-FreeRTOS-HiFive1/Workspace/sifive-hifive1-revb-i2c/freedom-metal/src/drivers/riscv_cpu.c:737
        return 0;
200138cc:	4781                	li	a5,0
200138ce:	a011                	j	200138d2 <__metal_driver_riscv_cpu_controller_set_vector_mode+0x52>
E:/8.AWS-FreeRTOS-HiFive1/Workspace/sifive-hifive1-revb-i2c/freedom-metal/src/drivers/riscv_cpu.c:739
    }
    return -1;
200138d0:	57fd                	li	a5,-1
E:/8.AWS-FreeRTOS-HiFive1/Workspace/sifive-hifive1-revb-i2c/freedom-metal/src/drivers/riscv_cpu.c:740
}
200138d2:	853e                	mv	a0,a5
200138d4:	50b2                	lw	ra,44(sp)
200138d6:	5422                	lw	s0,40(sp)
200138d8:	6145                	addi	sp,sp,48
200138da:	8082                	ret

200138dc <__metal_driver_riscv_cpu_controller_command_request>:
__metal_driver_riscv_cpu_controller_command_request():
E:/8.AWS-FreeRTOS-HiFive1/Workspace/sifive-hifive1-revb-i2c/freedom-metal/src/drivers/riscv_cpu.c:744

int __metal_driver_riscv_cpu_controller_command_request (struct metal_interrupt *controller,
						       int cmd, void *data)
{
200138dc:	1101                	addi	sp,sp,-32
200138de:	ce22                	sw	s0,28(sp)
200138e0:	1000                	addi	s0,sp,32
200138e2:	fea42623          	sw	a0,-20(s0)
200138e6:	feb42423          	sw	a1,-24(s0)
200138ea:	fec42223          	sw	a2,-28(s0)
E:/8.AWS-FreeRTOS-HiFive1/Workspace/sifive-hifive1-revb-i2c/freedom-metal/src/drivers/riscv_cpu.c:746
    /* NOP for now, unless local interrupt lines the like of clic, clint, plic */
    return 0;
200138ee:	4781                	li	a5,0
E:/8.AWS-FreeRTOS-HiFive1/Workspace/sifive-hifive1-revb-i2c/freedom-metal/src/drivers/riscv_cpu.c:747
}
200138f0:	853e                	mv	a0,a5
200138f2:	4472                	lw	s0,28(sp)
200138f4:	6105                	addi	sp,sp,32
200138f6:	8082                	ret

200138f8 <__metal_driver_cpu_mcycle_get>:
__metal_driver_cpu_mcycle_get():
E:/8.AWS-FreeRTOS-HiFive1/Workspace/sifive-hifive1-revb-i2c/freedom-metal/src/drivers/riscv_cpu.c:752

/* CPU driver !!! */

unsigned long long __metal_driver_cpu_mcycle_get(struct metal_cpu *cpu)
{
200138f8:	7139                	addi	sp,sp,-64
200138fa:	de22                	sw	s0,60(sp)
200138fc:	0080                	addi	s0,sp,64
200138fe:	fca42623          	sw	a0,-52(s0)
E:/8.AWS-FreeRTOS-HiFive1/Workspace/sifive-hifive1-revb-i2c/freedom-metal/src/drivers/riscv_cpu.c:753
    unsigned long long val = 0;
20013902:	4301                	li	t1,0
20013904:	4381                	li	t2,0
20013906:	fe642423          	sw	t1,-24(s0)
2001390a:	fe742623          	sw	t2,-20(s0)
E:/8.AWS-FreeRTOS-HiFive1/Workspace/sifive-hifive1-revb-i2c/freedom-metal/src/drivers/riscv_cpu.c:758

#if __riscv_xlen == 32
    unsigned long hi, hi1, lo;

    __asm__ volatile ("csrr %0, mcycleh" : "=r"(hi));
2001390e:	b8002573          	csrr	a0,mcycleh
20013912:	fea42223          	sw	a0,-28(s0)
E:/8.AWS-FreeRTOS-HiFive1/Workspace/sifive-hifive1-revb-i2c/freedom-metal/src/drivers/riscv_cpu.c:759
    __asm__ volatile ("csrr %0, mcycle" : "=r"(lo));
20013916:	b0002573          	csrr	a0,mcycle
2001391a:	fea42023          	sw	a0,-32(s0)
E:/8.AWS-FreeRTOS-HiFive1/Workspace/sifive-hifive1-revb-i2c/freedom-metal/src/drivers/riscv_cpu.c:760
    __asm__ volatile ("csrr %0, mcycleh" : "=r"(hi1));
2001391e:	b8002573          	csrr	a0,mcycleh
20013922:	fca42e23          	sw	a0,-36(s0)
E:/8.AWS-FreeRTOS-HiFive1/Workspace/sifive-hifive1-revb-i2c/freedom-metal/src/drivers/riscv_cpu.c:761
    if (hi == hi1) {
20013926:	fe442883          	lw	a7,-28(s0)
2001392a:	fdc42503          	lw	a0,-36(s0)
2001392e:	02a89563          	bne	a7,a0,20013958 <__metal_driver_cpu_mcycle_get+0x60>
E:/8.AWS-FreeRTOS-HiFive1/Workspace/sifive-hifive1-revb-i2c/freedom-metal/src/drivers/riscv_cpu.c:762
        val = ((unsigned long long)hi << 32) | lo;
20013932:	fe442503          	lw	a0,-28(s0)
20013936:	85aa                	mv	a1,a0
20013938:	4601                	li	a2,0
2001393a:	00059813          	slli	a6,a1,0x0
2001393e:	4781                	li	a5,0
20013940:	fe042603          	lw	a2,-32(s0)
20013944:	86b2                	mv	a3,a2
20013946:	4701                	li	a4,0
20013948:	00d7e633          	or	a2,a5,a3
2001394c:	fec42423          	sw	a2,-24(s0)
20013950:	00e867b3          	or	a5,a6,a4
20013954:	fef42623          	sw	a5,-20(s0)
E:/8.AWS-FreeRTOS-HiFive1/Workspace/sifive-hifive1-revb-i2c/freedom-metal/src/drivers/riscv_cpu.c:768
    }
#else
    __asm__ volatile ("csrr %0, mcycle" : "=r"(val));
#endif

    return val;
20013958:	fe842783          	lw	a5,-24(s0)
2001395c:	fec42803          	lw	a6,-20(s0)
E:/8.AWS-FreeRTOS-HiFive1/Workspace/sifive-hifive1-revb-i2c/freedom-metal/src/drivers/riscv_cpu.c:769
}
20013960:	853e                	mv	a0,a5
20013962:	85c2                	mv	a1,a6
20013964:	5472                	lw	s0,60(sp)
20013966:	6121                	addi	sp,sp,64
20013968:	8082                	ret

2001396a <__metal_driver_cpu_timebase_get>:
__metal_driver_cpu_timebase_get():
E:/8.AWS-FreeRTOS-HiFive1/Workspace/sifive-hifive1-revb-i2c/freedom-metal/src/drivers/riscv_cpu.c:772

unsigned long long __metal_driver_cpu_timebase_get(struct metal_cpu *cpu)
{
2001396a:	7179                	addi	sp,sp,-48
2001396c:	d606                	sw	ra,44(sp)
2001396e:	d422                	sw	s0,40(sp)
20013970:	d24a                	sw	s2,36(sp)
20013972:	d04e                	sw	s3,32(sp)
20013974:	1800                	addi	s0,sp,48
20013976:	fca42e23          	sw	a0,-36(s0)
E:/8.AWS-FreeRTOS-HiFive1/Workspace/sifive-hifive1-revb-i2c/freedom-metal/src/drivers/riscv_cpu.c:774
  int timebase;
    if (!cpu) {
2001397a:	fdc42783          	lw	a5,-36(s0)
2001397e:	e781                	bnez	a5,20013986 <__metal_driver_cpu_timebase_get+0x1c>
E:/8.AWS-FreeRTOS-HiFive1/Workspace/sifive-hifive1-revb-i2c/freedom-metal/src/drivers/riscv_cpu.c:775
        return 0;
20013980:	4901                	li	s2,0
20013982:	4981                	li	s3,0
20013984:	a821                	j	2001399c <__metal_driver_cpu_timebase_get+0x32>
E:/8.AWS-FreeRTOS-HiFive1/Workspace/sifive-hifive1-revb-i2c/freedom-metal/src/drivers/riscv_cpu.c:778
    }

    timebase = __metal_driver_cpu_timebase((struct metal_cpu *)cpu);
20013986:	fdc42503          	lw	a0,-36(s0)
2001398a:	a8bfe0ef          	jal	ra,20012414 <__metal_driver_cpu_timebase>
2001398e:	fea42623          	sw	a0,-20(s0)
E:/8.AWS-FreeRTOS-HiFive1/Workspace/sifive-hifive1-revb-i2c/freedom-metal/src/drivers/riscv_cpu.c:779
    return timebase;
20013992:	fec42783          	lw	a5,-20(s0)
20013996:	893e                	mv	s2,a5
20013998:	87fd                	srai	a5,a5,0x1f
2001399a:	89be                	mv	s3,a5
2001399c:	87ca                	mv	a5,s2
2001399e:	884e                	mv	a6,s3
E:/8.AWS-FreeRTOS-HiFive1/Workspace/sifive-hifive1-revb-i2c/freedom-metal/src/drivers/riscv_cpu.c:780
}
200139a0:	853e                	mv	a0,a5
200139a2:	85c2                	mv	a1,a6
200139a4:	50b2                	lw	ra,44(sp)
200139a6:	5422                	lw	s0,40(sp)
200139a8:	5912                	lw	s2,36(sp)
200139aa:	5982                	lw	s3,32(sp)
200139ac:	6145                	addi	sp,sp,48
200139ae:	8082                	ret

200139b0 <__metal_driver_cpu_mtime_get>:
__metal_driver_cpu_mtime_get():
E:/8.AWS-FreeRTOS-HiFive1/Workspace/sifive-hifive1-revb-i2c/freedom-metal/src/drivers/riscv_cpu.c:783

unsigned long long  __metal_driver_cpu_mtime_get (struct metal_cpu *cpu)
{
200139b0:	7179                	addi	sp,sp,-48
200139b2:	d606                	sw	ra,44(sp)
200139b4:	d422                	sw	s0,40(sp)
200139b6:	1800                	addi	s0,sp,48
200139b8:	fca42e23          	sw	a0,-36(s0)
E:/8.AWS-FreeRTOS-HiFive1/Workspace/sifive-hifive1-revb-i2c/freedom-metal/src/drivers/riscv_cpu.c:784
    unsigned long long time = 0;
200139bc:	4781                	li	a5,0
200139be:	4801                	li	a6,0
200139c0:	fef42023          	sw	a5,-32(s0)
200139c4:	ff042223          	sw	a6,-28(s0)
E:/8.AWS-FreeRTOS-HiFive1/Workspace/sifive-hifive1-revb-i2c/freedom-metal/src/drivers/riscv_cpu.c:787
    struct metal_interrupt *tmr_intc;
    struct __metal_driver_riscv_cpu_intc *intc =
        (struct __metal_driver_riscv_cpu_intc *)__metal_driver_cpu_interrupt_controller(cpu);
200139c8:	fdc42503          	lw	a0,-36(s0)
200139cc:	a73fe0ef          	jal	ra,2001243e <__metal_driver_cpu_interrupt_controller>
200139d0:	fea42623          	sw	a0,-20(s0)
E:/8.AWS-FreeRTOS-HiFive1/Workspace/sifive-hifive1-revb-i2c/freedom-metal/src/drivers/riscv_cpu.c:789

    if (intc) {
200139d4:	fec42783          	lw	a5,-20(s0)
200139d8:	c78d                	beqz	a5,20013a02 <__metal_driver_cpu_mtime_get+0x52>
E:/8.AWS-FreeRTOS-HiFive1/Workspace/sifive-hifive1-revb-i2c/freedom-metal/src/drivers/riscv_cpu.c:790
        tmr_intc = intc->metal_int_table[METAL_INTERRUPT_ID_TMR].sub_int;
200139da:	fec42783          	lw	a5,-20(s0)
200139de:	13c7a783          	lw	a5,316(a5) # 2001613c <metal_timer_get_cyclecount+0xc>
200139e2:	fef42423          	sw	a5,-24(s0)
E:/8.AWS-FreeRTOS-HiFive1/Workspace/sifive-hifive1-revb-i2c/freedom-metal/src/drivers/riscv_cpu.c:791
        if (tmr_intc) {
200139e6:	fe842783          	lw	a5,-24(s0)
200139ea:	cf81                	beqz	a5,20013a02 <__metal_driver_cpu_mtime_get+0x52>
E:/8.AWS-FreeRTOS-HiFive1/Workspace/sifive-hifive1-revb-i2c/freedom-metal/src/drivers/riscv_cpu.c:792
            tmr_intc->vtable->command_request(tmr_intc,
200139ec:	fe842783          	lw	a5,-24(s0)
200139f0:	439c                	lw	a5,0(a5)
200139f2:	43f8                	lw	a4,68(a5)
200139f4:	fe040793          	addi	a5,s0,-32
200139f8:	863e                	mv	a2,a5
200139fa:	4585                	li	a1,1
200139fc:	fe842503          	lw	a0,-24(s0)
20013a00:	9702                	jalr	a4
E:/8.AWS-FreeRTOS-HiFive1/Workspace/sifive-hifive1-revb-i2c/freedom-metal/src/drivers/riscv_cpu.c:796
                                              METAL_TIMER_MTIME_GET, &time);
        }
    }
    return time;
20013a02:	fe042783          	lw	a5,-32(s0)
20013a06:	fe442803          	lw	a6,-28(s0)
E:/8.AWS-FreeRTOS-HiFive1/Workspace/sifive-hifive1-revb-i2c/freedom-metal/src/drivers/riscv_cpu.c:797
}
20013a0a:	853e                	mv	a0,a5
20013a0c:	85c2                	mv	a1,a6
20013a0e:	50b2                	lw	ra,44(sp)
20013a10:	5422                	lw	s0,40(sp)
20013a12:	6145                	addi	sp,sp,48
20013a14:	8082                	ret

20013a16 <__metal_driver_cpu_mtimecmp_set>:
__metal_driver_cpu_mtimecmp_set():
E:/8.AWS-FreeRTOS-HiFive1/Workspace/sifive-hifive1-revb-i2c/freedom-metal/src/drivers/riscv_cpu.c:800

int __metal_driver_cpu_mtimecmp_set (struct metal_cpu *cpu, unsigned long long time)
{
20013a16:	7179                	addi	sp,sp,-48
20013a18:	d606                	sw	ra,44(sp)
20013a1a:	d422                	sw	s0,40(sp)
20013a1c:	d226                	sw	s1,36(sp)
20013a1e:	1800                	addi	s0,sp,48
20013a20:	fca42e23          	sw	a0,-36(s0)
20013a24:	fcb42823          	sw	a1,-48(s0)
20013a28:	fcc42a23          	sw	a2,-44(s0)
E:/8.AWS-FreeRTOS-HiFive1/Workspace/sifive-hifive1-revb-i2c/freedom-metal/src/drivers/riscv_cpu.c:801
    int rc = -1;
20013a2c:	57fd                	li	a5,-1
20013a2e:	fef42623          	sw	a5,-20(s0)
E:/8.AWS-FreeRTOS-HiFive1/Workspace/sifive-hifive1-revb-i2c/freedom-metal/src/drivers/riscv_cpu.c:804
    struct metal_interrupt *tmr_intc;
    struct __metal_driver_riscv_cpu_intc *intc =
        (struct __metal_driver_riscv_cpu_intc *)__metal_driver_cpu_interrupt_controller(cpu);
20013a32:	fdc42503          	lw	a0,-36(s0)
20013a36:	a09fe0ef          	jal	ra,2001243e <__metal_driver_cpu_interrupt_controller>
20013a3a:	fea42423          	sw	a0,-24(s0)
E:/8.AWS-FreeRTOS-HiFive1/Workspace/sifive-hifive1-revb-i2c/freedom-metal/src/drivers/riscv_cpu.c:806

    if (intc) {
20013a3e:	fe842783          	lw	a5,-24(s0)
20013a42:	cf8d                	beqz	a5,20013a7c <__metal_driver_cpu_mtimecmp_set+0x66>
E:/8.AWS-FreeRTOS-HiFive1/Workspace/sifive-hifive1-revb-i2c/freedom-metal/src/drivers/riscv_cpu.c:807
        tmr_intc = intc->metal_int_table[METAL_INTERRUPT_ID_TMR].sub_int;
20013a44:	fe842783          	lw	a5,-24(s0)
20013a48:	13c7a783          	lw	a5,316(a5)
20013a4c:	fef42223          	sw	a5,-28(s0)
E:/8.AWS-FreeRTOS-HiFive1/Workspace/sifive-hifive1-revb-i2c/freedom-metal/src/drivers/riscv_cpu.c:808
        if (tmr_intc) {
20013a50:	fe442783          	lw	a5,-28(s0)
20013a54:	c785                	beqz	a5,20013a7c <__metal_driver_cpu_mtimecmp_set+0x66>
E:/8.AWS-FreeRTOS-HiFive1/Workspace/sifive-hifive1-revb-i2c/freedom-metal/src/drivers/riscv_cpu.c:809
            rc = tmr_intc->vtable->mtimecmp_set(tmr_intc,
20013a56:	fe442783          	lw	a5,-28(s0)
20013a5a:	439c                	lw	a5,0(a5)
20013a5c:	47a4                	lw	s1,72(a5)
20013a5e:	fdc42503          	lw	a0,-36(s0)
20013a62:	98ffe0ef          	jal	ra,200123f0 <__metal_driver_cpu_hartid>
20013a66:	87aa                	mv	a5,a0
20013a68:	fd042603          	lw	a2,-48(s0)
20013a6c:	fd442683          	lw	a3,-44(s0)
20013a70:	85be                	mv	a1,a5
20013a72:	fe442503          	lw	a0,-28(s0)
20013a76:	9482                	jalr	s1
20013a78:	fea42623          	sw	a0,-20(s0)
E:/8.AWS-FreeRTOS-HiFive1/Workspace/sifive-hifive1-revb-i2c/freedom-metal/src/drivers/riscv_cpu.c:814
                                                __metal_driver_cpu_hartid(cpu),
                                                time);
        }
    }
    return rc;
20013a7c:	fec42783          	lw	a5,-20(s0)
E:/8.AWS-FreeRTOS-HiFive1/Workspace/sifive-hifive1-revb-i2c/freedom-metal/src/drivers/riscv_cpu.c:815
}
20013a80:	853e                	mv	a0,a5
20013a82:	50b2                	lw	ra,44(sp)
20013a84:	5422                	lw	s0,40(sp)
20013a86:	5492                	lw	s1,36(sp)
20013a88:	6145                	addi	sp,sp,48
20013a8a:	8082                	ret

20013a8c <__metal_driver_cpu_timer_controller_interrupt>:
__metal_driver_cpu_timer_controller_interrupt():
E:/8.AWS-FreeRTOS-HiFive1/Workspace/sifive-hifive1-revb-i2c/freedom-metal/src/drivers/riscv_cpu.c:819

struct metal_interrupt *
__metal_driver_cpu_timer_controller_interrupt(struct metal_cpu *cpu)
{
20013a8c:	1101                	addi	sp,sp,-32
20013a8e:	ce22                	sw	s0,28(sp)
20013a90:	1000                	addi	s0,sp,32
20013a92:	fea42623          	sw	a0,-20(s0)
E:/8.AWS-FreeRTOS-HiFive1/Workspace/sifive-hifive1-revb-i2c/freedom-metal/src/drivers/riscv_cpu.c:821
#ifdef __METAL_DT_RISCV_CLINT0_HANDLE
    return __METAL_DT_RISCV_CLINT0_HANDLE;
20013a96:	800017b7          	lui	a5,0x80001
20013a9a:	a9478793          	addi	a5,a5,-1388 # 80000a94 <metal_segment_heap_target_end+0xfffff324>
E:/8.AWS-FreeRTOS-HiFive1/Workspace/sifive-hifive1-revb-i2c/freedom-metal/src/drivers/riscv_cpu.c:830
#else
#pragma message("There is no interrupt controller for Timer interrupt")
    return NULL;
#endif
#endif
}
20013a9e:	853e                	mv	a0,a5
20013aa0:	4472                	lw	s0,28(sp)
20013aa2:	6105                	addi	sp,sp,32
20013aa4:	8082                	ret

20013aa6 <__metal_driver_cpu_get_timer_interrupt_id>:
__metal_driver_cpu_get_timer_interrupt_id():
E:/8.AWS-FreeRTOS-HiFive1/Workspace/sifive-hifive1-revb-i2c/freedom-metal/src/drivers/riscv_cpu.c:833

int __metal_driver_cpu_get_timer_interrupt_id(struct metal_cpu *cpu)
{
20013aa6:	1101                	addi	sp,sp,-32
20013aa8:	ce22                	sw	s0,28(sp)
20013aaa:	1000                	addi	s0,sp,32
20013aac:	fea42623          	sw	a0,-20(s0)
E:/8.AWS-FreeRTOS-HiFive1/Workspace/sifive-hifive1-revb-i2c/freedom-metal/src/drivers/riscv_cpu.c:834
    return METAL_INTERRUPT_ID_TMR;
20013ab0:	479d                	li	a5,7
E:/8.AWS-FreeRTOS-HiFive1/Workspace/sifive-hifive1-revb-i2c/freedom-metal/src/drivers/riscv_cpu.c:835
}
20013ab2:	853e                	mv	a0,a5
20013ab4:	4472                	lw	s0,28(sp)
20013ab6:	6105                	addi	sp,sp,32
20013ab8:	8082                	ret

20013aba <__metal_driver_cpu_sw_controller_interrupt>:
__metal_driver_cpu_sw_controller_interrupt():
E:/8.AWS-FreeRTOS-HiFive1/Workspace/sifive-hifive1-revb-i2c/freedom-metal/src/drivers/riscv_cpu.c:839

struct metal_interrupt *
__metal_driver_cpu_sw_controller_interrupt(struct metal_cpu *cpu)
{
20013aba:	1101                	addi	sp,sp,-32
20013abc:	ce22                	sw	s0,28(sp)
20013abe:	1000                	addi	s0,sp,32
20013ac0:	fea42623          	sw	a0,-20(s0)
E:/8.AWS-FreeRTOS-HiFive1/Workspace/sifive-hifive1-revb-i2c/freedom-metal/src/drivers/riscv_cpu.c:841
#ifdef __METAL_DT_RISCV_CLINT0_HANDLE
    return __METAL_DT_RISCV_CLINT0_HANDLE;
20013ac4:	800017b7          	lui	a5,0x80001
20013ac8:	a9478793          	addi	a5,a5,-1388 # 80000a94 <metal_segment_heap_target_end+0xfffff324>
E:/8.AWS-FreeRTOS-HiFive1/Workspace/sifive-hifive1-revb-i2c/freedom-metal/src/drivers/riscv_cpu.c:850
#else
#pragma message("There is no interrupt controller for Software interrupt")
    return NULL;
#endif
#endif
}
20013acc:	853e                	mv	a0,a5
20013ace:	4472                	lw	s0,28(sp)
20013ad0:	6105                	addi	sp,sp,32
20013ad2:	8082                	ret

20013ad4 <__metal_driver_cpu_get_sw_interrupt_id>:
__metal_driver_cpu_get_sw_interrupt_id():
E:/8.AWS-FreeRTOS-HiFive1/Workspace/sifive-hifive1-revb-i2c/freedom-metal/src/drivers/riscv_cpu.c:853

int __metal_driver_cpu_get_sw_interrupt_id(struct metal_cpu *cpu)
{
20013ad4:	1101                	addi	sp,sp,-32
20013ad6:	ce22                	sw	s0,28(sp)
20013ad8:	1000                	addi	s0,sp,32
20013ada:	fea42623          	sw	a0,-20(s0)
E:/8.AWS-FreeRTOS-HiFive1/Workspace/sifive-hifive1-revb-i2c/freedom-metal/src/drivers/riscv_cpu.c:854
    return METAL_INTERRUPT_ID_SW;
20013ade:	478d                	li	a5,3
E:/8.AWS-FreeRTOS-HiFive1/Workspace/sifive-hifive1-revb-i2c/freedom-metal/src/drivers/riscv_cpu.c:855
}
20013ae0:	853e                	mv	a0,a5
20013ae2:	4472                	lw	s0,28(sp)
20013ae4:	6105                	addi	sp,sp,32
20013ae6:	8082                	ret

20013ae8 <__metal_driver_cpu_set_sw_ipi>:
__metal_driver_cpu_set_sw_ipi():
E:/8.AWS-FreeRTOS-HiFive1/Workspace/sifive-hifive1-revb-i2c/freedom-metal/src/drivers/riscv_cpu.c:858

int __metal_driver_cpu_set_sw_ipi (struct metal_cpu *cpu, int hartid)
{
20013ae8:	7179                	addi	sp,sp,-48
20013aea:	d606                	sw	ra,44(sp)
20013aec:	d422                	sw	s0,40(sp)
20013aee:	1800                	addi	s0,sp,48
20013af0:	fca42e23          	sw	a0,-36(s0)
20013af4:	fcb42c23          	sw	a1,-40(s0)
E:/8.AWS-FreeRTOS-HiFive1/Workspace/sifive-hifive1-revb-i2c/freedom-metal/src/drivers/riscv_cpu.c:859
    int rc = -1;
20013af8:	57fd                	li	a5,-1
20013afa:	fef42623          	sw	a5,-20(s0)
E:/8.AWS-FreeRTOS-HiFive1/Workspace/sifive-hifive1-revb-i2c/freedom-metal/src/drivers/riscv_cpu.c:862
    struct metal_interrupt *sw_intc;
    struct __metal_driver_riscv_cpu_intc *intc = 
        (struct __metal_driver_riscv_cpu_intc *)__metal_driver_cpu_interrupt_controller(cpu);
20013afe:	fdc42503          	lw	a0,-36(s0)
20013b02:	93dfe0ef          	jal	ra,2001243e <__metal_driver_cpu_interrupt_controller>
20013b06:	fea42423          	sw	a0,-24(s0)
E:/8.AWS-FreeRTOS-HiFive1/Workspace/sifive-hifive1-revb-i2c/freedom-metal/src/drivers/riscv_cpu.c:864

    if (intc) {
20013b0a:	fe842783          	lw	a5,-24(s0)
20013b0e:	c79d                	beqz	a5,20013b3c <__metal_driver_cpu_set_sw_ipi+0x54>
E:/8.AWS-FreeRTOS-HiFive1/Workspace/sifive-hifive1-revb-i2c/freedom-metal/src/drivers/riscv_cpu.c:865
        sw_intc = intc->metal_int_table[METAL_INTERRUPT_ID_SW].sub_int;
20013b10:	fe842783          	lw	a5,-24(s0)
20013b14:	0dc7a783          	lw	a5,220(a5)
20013b18:	fef42223          	sw	a5,-28(s0)
E:/8.AWS-FreeRTOS-HiFive1/Workspace/sifive-hifive1-revb-i2c/freedom-metal/src/drivers/riscv_cpu.c:866
        if (sw_intc) {
20013b1c:	fe442783          	lw	a5,-28(s0)
20013b20:	cf91                	beqz	a5,20013b3c <__metal_driver_cpu_set_sw_ipi+0x54>
E:/8.AWS-FreeRTOS-HiFive1/Workspace/sifive-hifive1-revb-i2c/freedom-metal/src/drivers/riscv_cpu.c:867
            rc = sw_intc->vtable->command_request(sw_intc,
20013b22:	fe442783          	lw	a5,-28(s0)
20013b26:	439c                	lw	a5,0(a5)
20013b28:	43f8                	lw	a4,68(a5)
20013b2a:	fd840793          	addi	a5,s0,-40
20013b2e:	863e                	mv	a2,a5
20013b30:	458d                	li	a1,3
20013b32:	fe442503          	lw	a0,-28(s0)
20013b36:	9702                	jalr	a4
20013b38:	fea42623          	sw	a0,-20(s0)
E:/8.AWS-FreeRTOS-HiFive1/Workspace/sifive-hifive1-revb-i2c/freedom-metal/src/drivers/riscv_cpu.c:871
                                                  METAL_SOFTWARE_IPI_SET, &hartid);
        }
    }
    return rc;
20013b3c:	fec42783          	lw	a5,-20(s0)
E:/8.AWS-FreeRTOS-HiFive1/Workspace/sifive-hifive1-revb-i2c/freedom-metal/src/drivers/riscv_cpu.c:872
}
20013b40:	853e                	mv	a0,a5
20013b42:	50b2                	lw	ra,44(sp)
20013b44:	5422                	lw	s0,40(sp)
20013b46:	6145                	addi	sp,sp,48
20013b48:	8082                	ret

20013b4a <__metal_driver_cpu_clear_sw_ipi>:
__metal_driver_cpu_clear_sw_ipi():
E:/8.AWS-FreeRTOS-HiFive1/Workspace/sifive-hifive1-revb-i2c/freedom-metal/src/drivers/riscv_cpu.c:875

int __metal_driver_cpu_clear_sw_ipi (struct metal_cpu *cpu, int hartid)
{
20013b4a:	7179                	addi	sp,sp,-48
20013b4c:	d606                	sw	ra,44(sp)
20013b4e:	d422                	sw	s0,40(sp)
20013b50:	1800                	addi	s0,sp,48
20013b52:	fca42e23          	sw	a0,-36(s0)
20013b56:	fcb42c23          	sw	a1,-40(s0)
E:/8.AWS-FreeRTOS-HiFive1/Workspace/sifive-hifive1-revb-i2c/freedom-metal/src/drivers/riscv_cpu.c:876
    int rc = -1;
20013b5a:	57fd                	li	a5,-1
20013b5c:	fef42623          	sw	a5,-20(s0)
E:/8.AWS-FreeRTOS-HiFive1/Workspace/sifive-hifive1-revb-i2c/freedom-metal/src/drivers/riscv_cpu.c:879
    struct metal_interrupt *sw_intc;
    struct __metal_driver_riscv_cpu_intc *intc =
        (struct __metal_driver_riscv_cpu_intc *)__metal_driver_cpu_interrupt_controller(cpu);
20013b60:	fdc42503          	lw	a0,-36(s0)
20013b64:	8dbfe0ef          	jal	ra,2001243e <__metal_driver_cpu_interrupt_controller>
20013b68:	fea42423          	sw	a0,-24(s0)
E:/8.AWS-FreeRTOS-HiFive1/Workspace/sifive-hifive1-revb-i2c/freedom-metal/src/drivers/riscv_cpu.c:881

    if (intc) {
20013b6c:	fe842783          	lw	a5,-24(s0)
20013b70:	c79d                	beqz	a5,20013b9e <__metal_driver_cpu_clear_sw_ipi+0x54>
E:/8.AWS-FreeRTOS-HiFive1/Workspace/sifive-hifive1-revb-i2c/freedom-metal/src/drivers/riscv_cpu.c:882
        sw_intc = intc->metal_int_table[METAL_INTERRUPT_ID_SW].sub_int;
20013b72:	fe842783          	lw	a5,-24(s0)
20013b76:	0dc7a783          	lw	a5,220(a5)
20013b7a:	fef42223          	sw	a5,-28(s0)
E:/8.AWS-FreeRTOS-HiFive1/Workspace/sifive-hifive1-revb-i2c/freedom-metal/src/drivers/riscv_cpu.c:883
        if (sw_intc) {
20013b7e:	fe442783          	lw	a5,-28(s0)
20013b82:	cf91                	beqz	a5,20013b9e <__metal_driver_cpu_clear_sw_ipi+0x54>
E:/8.AWS-FreeRTOS-HiFive1/Workspace/sifive-hifive1-revb-i2c/freedom-metal/src/drivers/riscv_cpu.c:884
            rc = sw_intc->vtable->command_request(sw_intc,
20013b84:	fe442783          	lw	a5,-28(s0)
20013b88:	439c                	lw	a5,0(a5)
20013b8a:	43f8                	lw	a4,68(a5)
20013b8c:	fd840793          	addi	a5,s0,-40
20013b90:	863e                	mv	a2,a5
20013b92:	4589                	li	a1,2
20013b94:	fe442503          	lw	a0,-28(s0)
20013b98:	9702                	jalr	a4
20013b9a:	fea42623          	sw	a0,-20(s0)
E:/8.AWS-FreeRTOS-HiFive1/Workspace/sifive-hifive1-revb-i2c/freedom-metal/src/drivers/riscv_cpu.c:888
                                                  METAL_SOFTWARE_IPI_CLEAR, &hartid);
        }
    }
    return rc;
20013b9e:	fec42783          	lw	a5,-20(s0)
E:/8.AWS-FreeRTOS-HiFive1/Workspace/sifive-hifive1-revb-i2c/freedom-metal/src/drivers/riscv_cpu.c:889
}
20013ba2:	853e                	mv	a0,a5
20013ba4:	50b2                	lw	ra,44(sp)
20013ba6:	5422                	lw	s0,40(sp)
20013ba8:	6145                	addi	sp,sp,48
20013baa:	8082                	ret

20013bac <__metal_driver_cpu_get_msip>:
__metal_driver_cpu_get_msip():
E:/8.AWS-FreeRTOS-HiFive1/Workspace/sifive-hifive1-revb-i2c/freedom-metal/src/drivers/riscv_cpu.c:892

int __metal_driver_cpu_get_msip (struct metal_cpu *cpu, int hartid)
{
20013bac:	7179                	addi	sp,sp,-48
20013bae:	d606                	sw	ra,44(sp)
20013bb0:	d422                	sw	s0,40(sp)
20013bb2:	1800                	addi	s0,sp,48
20013bb4:	fca42e23          	sw	a0,-36(s0)
20013bb8:	fcb42c23          	sw	a1,-40(s0)
E:/8.AWS-FreeRTOS-HiFive1/Workspace/sifive-hifive1-revb-i2c/freedom-metal/src/drivers/riscv_cpu.c:893
    int rc = 0;
20013bbc:	fe042623          	sw	zero,-20(s0)
E:/8.AWS-FreeRTOS-HiFive1/Workspace/sifive-hifive1-revb-i2c/freedom-metal/src/drivers/riscv_cpu.c:896
    struct metal_interrupt *sw_intc;
    struct __metal_driver_riscv_cpu_intc *intc =
        (struct __metal_driver_riscv_cpu_intc *)__metal_driver_cpu_interrupt_controller(cpu);
20013bc0:	fdc42503          	lw	a0,-36(s0)
20013bc4:	87bfe0ef          	jal	ra,2001243e <__metal_driver_cpu_interrupt_controller>
20013bc8:	fea42423          	sw	a0,-24(s0)
E:/8.AWS-FreeRTOS-HiFive1/Workspace/sifive-hifive1-revb-i2c/freedom-metal/src/drivers/riscv_cpu.c:898

    if (intc) {
20013bcc:	fe842783          	lw	a5,-24(s0)
20013bd0:	c79d                	beqz	a5,20013bfe <__metal_driver_cpu_get_msip+0x52>
E:/8.AWS-FreeRTOS-HiFive1/Workspace/sifive-hifive1-revb-i2c/freedom-metal/src/drivers/riscv_cpu.c:899
        sw_intc = intc->metal_int_table[METAL_INTERRUPT_ID_SW].sub_int;
20013bd2:	fe842783          	lw	a5,-24(s0)
20013bd6:	0dc7a783          	lw	a5,220(a5)
20013bda:	fef42223          	sw	a5,-28(s0)
E:/8.AWS-FreeRTOS-HiFive1/Workspace/sifive-hifive1-revb-i2c/freedom-metal/src/drivers/riscv_cpu.c:900
        if (sw_intc) {
20013bde:	fe442783          	lw	a5,-28(s0)
20013be2:	cf91                	beqz	a5,20013bfe <__metal_driver_cpu_get_msip+0x52>
E:/8.AWS-FreeRTOS-HiFive1/Workspace/sifive-hifive1-revb-i2c/freedom-metal/src/drivers/riscv_cpu.c:901
            rc = sw_intc->vtable->command_request(sw_intc,
20013be4:	fe442783          	lw	a5,-28(s0)
20013be8:	439c                	lw	a5,0(a5)
20013bea:	43f8                	lw	a4,68(a5)
20013bec:	fd840793          	addi	a5,s0,-40
20013bf0:	863e                	mv	a2,a5
20013bf2:	4591                	li	a1,4
20013bf4:	fe442503          	lw	a0,-28(s0)
20013bf8:	9702                	jalr	a4
20013bfa:	fea42623          	sw	a0,-20(s0)
E:/8.AWS-FreeRTOS-HiFive1/Workspace/sifive-hifive1-revb-i2c/freedom-metal/src/drivers/riscv_cpu.c:905
                                                  METAL_SOFTWARE_MSIP_GET, &hartid);
        }
    }
    return rc;
20013bfe:	fec42783          	lw	a5,-20(s0)
E:/8.AWS-FreeRTOS-HiFive1/Workspace/sifive-hifive1-revb-i2c/freedom-metal/src/drivers/riscv_cpu.c:906
}
20013c02:	853e                	mv	a0,a5
20013c04:	50b2                	lw	ra,44(sp)
20013c06:	5422                	lw	s0,40(sp)
20013c08:	6145                	addi	sp,sp,48
20013c0a:	8082                	ret

20013c0c <__metal_driver_cpu_controller_interrupt>:
__metal_driver_cpu_controller_interrupt():
E:/8.AWS-FreeRTOS-HiFive1/Workspace/sifive-hifive1-revb-i2c/freedom-metal/src/drivers/riscv_cpu.c:910

struct metal_interrupt *
__metal_driver_cpu_controller_interrupt(struct metal_cpu *cpu)
{
20013c0c:	1101                	addi	sp,sp,-32
20013c0e:	ce06                	sw	ra,28(sp)
20013c10:	cc22                	sw	s0,24(sp)
20013c12:	1000                	addi	s0,sp,32
20013c14:	fea42623          	sw	a0,-20(s0)
E:/8.AWS-FreeRTOS-HiFive1/Workspace/sifive-hifive1-revb-i2c/freedom-metal/src/drivers/riscv_cpu.c:911
    return __metal_driver_cpu_interrupt_controller(cpu);
20013c18:	fec42503          	lw	a0,-20(s0)
20013c1c:	823fe0ef          	jal	ra,2001243e <__metal_driver_cpu_interrupt_controller>
20013c20:	87aa                	mv	a5,a0
E:/8.AWS-FreeRTOS-HiFive1/Workspace/sifive-hifive1-revb-i2c/freedom-metal/src/drivers/riscv_cpu.c:912
}
20013c22:	853e                	mv	a0,a5
20013c24:	40f2                	lw	ra,28(sp)
20013c26:	4462                	lw	s0,24(sp)
20013c28:	6105                	addi	sp,sp,32
20013c2a:	8082                	ret

20013c2c <__metal_driver_cpu_exception_register>:
__metal_driver_cpu_exception_register():
E:/8.AWS-FreeRTOS-HiFive1/Workspace/sifive-hifive1-revb-i2c/freedom-metal/src/drivers/riscv_cpu.c:936
    return -1;
}

int __metal_driver_cpu_exception_register(struct metal_cpu *cpu, int ecode,
				        metal_exception_handler_t isr)
{
20013c2c:	7179                	addi	sp,sp,-48
20013c2e:	d606                	sw	ra,44(sp)
20013c30:	d422                	sw	s0,40(sp)
20013c32:	1800                	addi	s0,sp,48
20013c34:	fca42e23          	sw	a0,-36(s0)
20013c38:	fcb42c23          	sw	a1,-40(s0)
20013c3c:	fcc42a23          	sw	a2,-44(s0)
E:/8.AWS-FreeRTOS-HiFive1/Workspace/sifive-hifive1-revb-i2c/freedom-metal/src/drivers/riscv_cpu.c:938
    struct __metal_driver_riscv_cpu_intc *intc =
        (struct __metal_driver_riscv_cpu_intc *)__metal_driver_cpu_interrupt_controller(cpu);
20013c40:	fdc42503          	lw	a0,-36(s0)
20013c44:	ffafe0ef          	jal	ra,2001243e <__metal_driver_cpu_interrupt_controller>
20013c48:	fea42623          	sw	a0,-20(s0)
E:/8.AWS-FreeRTOS-HiFive1/Workspace/sifive-hifive1-revb-i2c/freedom-metal/src/drivers/riscv_cpu.c:940

    if (intc) {
20013c4c:	fec42783          	lw	a5,-20(s0)
20013c50:	cb99                	beqz	a5,20013c66 <__metal_driver_cpu_exception_register+0x3a>
E:/8.AWS-FreeRTOS-HiFive1/Workspace/sifive-hifive1-revb-i2c/freedom-metal/src/drivers/riscv_cpu.c:941
        return __metal_exception_register((struct metal_interrupt *)intc, ecode, isr);
20013c52:	fd442603          	lw	a2,-44(s0)
20013c56:	fd842583          	lw	a1,-40(s0)
20013c5a:	fec42503          	lw	a0,-20(s0)
20013c5e:	8d7ff0ef          	jal	ra,20013534 <__metal_exception_register>
20013c62:	87aa                	mv	a5,a0
20013c64:	a011                	j	20013c68 <__metal_driver_cpu_exception_register+0x3c>
E:/8.AWS-FreeRTOS-HiFive1/Workspace/sifive-hifive1-revb-i2c/freedom-metal/src/drivers/riscv_cpu.c:943
    }
    return -1;
20013c66:	57fd                	li	a5,-1
E:/8.AWS-FreeRTOS-HiFive1/Workspace/sifive-hifive1-revb-i2c/freedom-metal/src/drivers/riscv_cpu.c:944
}
20013c68:	853e                	mv	a0,a5
20013c6a:	50b2                	lw	ra,44(sp)
20013c6c:	5422                	lw	s0,40(sp)
20013c6e:	6145                	addi	sp,sp,48
20013c70:	8082                	ret

20013c72 <__metal_driver_cpu_get_instruction_length>:
__metal_driver_cpu_get_instruction_length():
E:/8.AWS-FreeRTOS-HiFive1/Workspace/sifive-hifive1-revb-i2c/freedom-metal/src/drivers/riscv_cpu.c:947

int  __metal_driver_cpu_get_instruction_length(struct metal_cpu *cpu, uintptr_t epc)
{
20013c72:	1101                	addi	sp,sp,-32
20013c74:	ce22                	sw	s0,28(sp)
20013c76:	1000                	addi	s0,sp,32
20013c78:	fea42623          	sw	a0,-20(s0)
20013c7c:	feb42423          	sw	a1,-24(s0)
E:/8.AWS-FreeRTOS-HiFive1/Workspace/sifive-hifive1-revb-i2c/freedom-metal/src/drivers/riscv_cpu.c:953
    /**
     * Per ISA compressed instruction has last two bits of opcode set.
     * The encoding '00' '01' '10' are used for compressed instruction.
     * Only enconding '11' isn't regarded as compressed instruction (>16b).
     */
    return ((*(unsigned short*)epc & METAL_INSN_LENGTH_MASK)
20013c80:	fe842783          	lw	a5,-24(s0)
20013c84:	0007d783          	lhu	a5,0(a5)
20013c88:	0037f713          	andi	a4,a5,3
E:/8.AWS-FreeRTOS-HiFive1/Workspace/sifive-hifive1-revb-i2c/freedom-metal/src/drivers/riscv_cpu.c:954
            == METAL_INSN_NOT_COMPRESSED) ? 4 : 2;
20013c8c:	478d                	li	a5,3
20013c8e:	00f71463          	bne	a4,a5,20013c96 <__metal_driver_cpu_get_instruction_length+0x24>
E:/8.AWS-FreeRTOS-HiFive1/Workspace/sifive-hifive1-revb-i2c/freedom-metal/src/drivers/riscv_cpu.c:954 (discriminator 1)
20013c92:	4791                	li	a5,4
20013c94:	a011                	j	20013c98 <__metal_driver_cpu_get_instruction_length+0x26>
E:/8.AWS-FreeRTOS-HiFive1/Workspace/sifive-hifive1-revb-i2c/freedom-metal/src/drivers/riscv_cpu.c:954 (discriminator 2)
20013c96:	4789                	li	a5,2
E:/8.AWS-FreeRTOS-HiFive1/Workspace/sifive-hifive1-revb-i2c/freedom-metal/src/drivers/riscv_cpu.c:955 (discriminator 5)
}
20013c98:	853e                	mv	a0,a5
20013c9a:	4472                	lw	s0,28(sp)
20013c9c:	6105                	addi	sp,sp,32
20013c9e:	8082                	ret

20013ca0 <__metal_driver_cpu_get_exception_pc>:
__metal_driver_cpu_get_exception_pc():
E:/8.AWS-FreeRTOS-HiFive1/Workspace/sifive-hifive1-revb-i2c/freedom-metal/src/drivers/riscv_cpu.c:958

uintptr_t  __metal_driver_cpu_get_exception_pc(struct metal_cpu *cpu)
{
20013ca0:	7179                	addi	sp,sp,-48
20013ca2:	d622                	sw	s0,44(sp)
20013ca4:	1800                	addi	s0,sp,48
20013ca6:	fca42e23          	sw	a0,-36(s0)
E:/8.AWS-FreeRTOS-HiFive1/Workspace/sifive-hifive1-revb-i2c/freedom-metal/src/drivers/riscv_cpu.c:960
    uintptr_t mepc;
    __asm__ volatile ("csrr %0, mepc" : "=r"(mepc));
20013caa:	341027f3          	csrr	a5,mepc
20013cae:	fef42623          	sw	a5,-20(s0)
E:/8.AWS-FreeRTOS-HiFive1/Workspace/sifive-hifive1-revb-i2c/freedom-metal/src/drivers/riscv_cpu.c:961
    return mepc;
20013cb2:	fec42783          	lw	a5,-20(s0)
E:/8.AWS-FreeRTOS-HiFive1/Workspace/sifive-hifive1-revb-i2c/freedom-metal/src/drivers/riscv_cpu.c:962
}
20013cb6:	853e                	mv	a0,a5
20013cb8:	5432                	lw	s0,44(sp)
20013cba:	6145                	addi	sp,sp,48
20013cbc:	8082                	ret

20013cbe <__metal_driver_cpu_set_exception_pc>:
__metal_driver_cpu_set_exception_pc():
E:/8.AWS-FreeRTOS-HiFive1/Workspace/sifive-hifive1-revb-i2c/freedom-metal/src/drivers/riscv_cpu.c:965

int  __metal_driver_cpu_set_exception_pc(struct metal_cpu *cpu, uintptr_t mepc)
{
20013cbe:	1101                	addi	sp,sp,-32
20013cc0:	ce22                	sw	s0,28(sp)
20013cc2:	1000                	addi	s0,sp,32
20013cc4:	fea42623          	sw	a0,-20(s0)
20013cc8:	feb42423          	sw	a1,-24(s0)
E:/8.AWS-FreeRTOS-HiFive1/Workspace/sifive-hifive1-revb-i2c/freedom-metal/src/drivers/riscv_cpu.c:966
    __asm__ volatile ("csrw mepc, %0" :: "r"(mepc));
20013ccc:	fe842783          	lw	a5,-24(s0)
20013cd0:	34179073          	csrw	mepc,a5
E:/8.AWS-FreeRTOS-HiFive1/Workspace/sifive-hifive1-revb-i2c/freedom-metal/src/drivers/riscv_cpu.c:967
    return 0;
20013cd4:	4781                	li	a5,0
E:/8.AWS-FreeRTOS-HiFive1/Workspace/sifive-hifive1-revb-i2c/freedom-metal/src/drivers/riscv_cpu.c:968
}
20013cd6:	853e                	mv	a0,a5
20013cd8:	4472                	lw	s0,28(sp)
20013cda:	6105                	addi	sp,sp,32
20013cdc:	8082                	ret

20013cde <__metal_driver_sifive_plic0_control_base>:
__metal_driver_sifive_plic0_control_base():
E:\8.AWS-FreeRTOS-HiFive1\Workspace\sifive-hifive1-revb-i2c\bsp\build\debug/./metal/machine.h:305



/* --------------------- sifive_plic0 ------------ */
static __inline__ unsigned long __metal_driver_sifive_plic0_control_base(struct metal_interrupt *controller)
{
20013cde:	1101                	addi	sp,sp,-32
20013ce0:	ce22                	sw	s0,28(sp)
20013ce2:	1000                	addi	s0,sp,32
20013ce4:	fea42623          	sw	a0,-20(s0)
E:\8.AWS-FreeRTOS-HiFive1\Workspace\sifive-hifive1-revb-i2c\bsp\build\debug/./metal/machine.h:306
	if ((uintptr_t)controller == (uintptr_t)&__metal_dt_interrupt_controller_c000000) {
20013ce8:	fec42703          	lw	a4,-20(s0)
20013cec:	800007b7          	lui	a5,0x80000
20013cf0:	44878793          	addi	a5,a5,1096 # 80000448 <metal_segment_heap_target_end+0xffffecd8>
20013cf4:	00f71563          	bne	a4,a5,20013cfe <__metal_driver_sifive_plic0_control_base+0x20>
E:\8.AWS-FreeRTOS-HiFive1\Workspace\sifive-hifive1-revb-i2c\bsp\build\debug/./metal/machine.h:307
		return METAL_RISCV_PLIC0_C000000_BASE_ADDRESS;
20013cf8:	0c0007b7          	lui	a5,0xc000
20013cfc:	a011                	j	20013d00 <__metal_driver_sifive_plic0_control_base+0x22>
E:\8.AWS-FreeRTOS-HiFive1\Workspace\sifive-hifive1-revb-i2c\bsp\build\debug/./metal/machine.h:310
	}
	else {
		return 0;
20013cfe:	4781                	li	a5,0
E:\8.AWS-FreeRTOS-HiFive1\Workspace\sifive-hifive1-revb-i2c\bsp\build\debug/./metal/machine.h:312
	}
}
20013d00:	853e                	mv	a0,a5
20013d02:	4472                	lw	s0,28(sp)
20013d04:	6105                	addi	sp,sp,32
20013d06:	8082                	ret

20013d08 <__metal_driver_sifive_plic0_num_interrupts>:
__metal_driver_sifive_plic0_num_interrupts():
E:\8.AWS-FreeRTOS-HiFive1\Workspace\sifive-hifive1-revb-i2c\bsp\build\debug/./metal/machine.h:325
		return 0;
	}
}

static __inline__ int __metal_driver_sifive_plic0_num_interrupts(struct metal_interrupt *controller)
{
20013d08:	1101                	addi	sp,sp,-32
20013d0a:	ce22                	sw	s0,28(sp)
20013d0c:	1000                	addi	s0,sp,32
20013d0e:	fea42623          	sw	a0,-20(s0)
E:\8.AWS-FreeRTOS-HiFive1\Workspace\sifive-hifive1-revb-i2c\bsp\build\debug/./metal/machine.h:326
	if ((uintptr_t)controller == (uintptr_t)&__metal_dt_interrupt_controller_c000000) {
20013d12:	fec42703          	lw	a4,-20(s0)
20013d16:	800007b7          	lui	a5,0x80000
20013d1a:	44878793          	addi	a5,a5,1096 # 80000448 <metal_segment_heap_target_end+0xffffecd8>
20013d1e:	00f71563          	bne	a4,a5,20013d28 <__metal_driver_sifive_plic0_num_interrupts+0x20>
E:\8.AWS-FreeRTOS-HiFive1\Workspace\sifive-hifive1-revb-i2c\bsp\build\debug/./metal/machine.h:327
		return METAL_RISCV_PLIC0_C000000_RISCV_NDEV;
20013d22:	03500793          	li	a5,53
20013d26:	a011                	j	20013d2a <__metal_driver_sifive_plic0_num_interrupts+0x22>
E:\8.AWS-FreeRTOS-HiFive1\Workspace\sifive-hifive1-revb-i2c\bsp\build\debug/./metal/machine.h:330
	}
	else {
		return 0;
20013d28:	4781                	li	a5,0
E:\8.AWS-FreeRTOS-HiFive1\Workspace\sifive-hifive1-revb-i2c\bsp\build\debug/./metal/machine.h:332
	}
}
20013d2a:	853e                	mv	a0,a5
20013d2c:	4472                	lw	s0,28(sp)
20013d2e:	6105                	addi	sp,sp,32
20013d30:	8082                	ret

20013d32 <__metal_driver_sifive_plic0_max_priority>:
__metal_driver_sifive_plic0_max_priority():
E:\8.AWS-FreeRTOS-HiFive1\Workspace\sifive-hifive1-revb-i2c\bsp\build\debug/./metal/machine.h:335

static __inline__ int __metal_driver_sifive_plic0_max_priority(struct metal_interrupt *controller)
{
20013d32:	1101                	addi	sp,sp,-32
20013d34:	ce22                	sw	s0,28(sp)
20013d36:	1000                	addi	s0,sp,32
20013d38:	fea42623          	sw	a0,-20(s0)
E:\8.AWS-FreeRTOS-HiFive1\Workspace\sifive-hifive1-revb-i2c\bsp\build\debug/./metal/machine.h:336
	if ((uintptr_t)controller == (uintptr_t)&__metal_dt_interrupt_controller_c000000) {
20013d3c:	fec42703          	lw	a4,-20(s0)
20013d40:	800007b7          	lui	a5,0x80000
20013d44:	44878793          	addi	a5,a5,1096 # 80000448 <metal_segment_heap_target_end+0xffffecd8>
20013d48:	00f71463          	bne	a4,a5,20013d50 <__metal_driver_sifive_plic0_max_priority+0x1e>
E:\8.AWS-FreeRTOS-HiFive1\Workspace\sifive-hifive1-revb-i2c\bsp\build\debug/./metal/machine.h:337
		return METAL_RISCV_PLIC0_C000000_RISCV_MAX_PRIORITY;
20013d4c:	479d                	li	a5,7
20013d4e:	a011                	j	20013d52 <__metal_driver_sifive_plic0_max_priority+0x20>
E:\8.AWS-FreeRTOS-HiFive1\Workspace\sifive-hifive1-revb-i2c\bsp\build\debug/./metal/machine.h:340
	}
	else {
		return 0;
20013d50:	4781                	li	a5,0
E:\8.AWS-FreeRTOS-HiFive1\Workspace\sifive-hifive1-revb-i2c\bsp\build\debug/./metal/machine.h:342
	}
}
20013d52:	853e                	mv	a0,a5
20013d54:	4472                	lw	s0,28(sp)
20013d56:	6105                	addi	sp,sp,32
20013d58:	8082                	ret

20013d5a <__metal_driver_sifive_plic0_interrupt_parents>:
__metal_driver_sifive_plic0_interrupt_parents():
E:\8.AWS-FreeRTOS-HiFive1\Workspace\sifive-hifive1-revb-i2c\bsp\build\debug/./metal/machine.h:345

static __inline__ struct metal_interrupt * __metal_driver_sifive_plic0_interrupt_parents(struct metal_interrupt *controller, int idx)
{
20013d5a:	1101                	addi	sp,sp,-32
20013d5c:	ce22                	sw	s0,28(sp)
20013d5e:	1000                	addi	s0,sp,32
20013d60:	fea42623          	sw	a0,-20(s0)
20013d64:	feb42423          	sw	a1,-24(s0)
E:\8.AWS-FreeRTOS-HiFive1\Workspace\sifive-hifive1-revb-i2c\bsp\build\debug/./metal/machine.h:346
	if (idx == 0) {
20013d68:	fe842783          	lw	a5,-24(s0)
20013d6c:	e791                	bnez	a5,20013d78 <__metal_driver_sifive_plic0_interrupt_parents+0x1e>
E:\8.AWS-FreeRTOS-HiFive1\Workspace\sifive-hifive1-revb-i2c\bsp\build\debug/./metal/machine.h:347
		return (struct metal_interrupt *)&__metal_dt_cpu_0_interrupt_controller.controller;
20013d6e:	800007b7          	lui	a5,0x80000
20013d72:	09078793          	addi	a5,a5,144 # 80000090 <metal_segment_heap_target_end+0xffffe920>
20013d76:	a011                	j	20013d7a <__metal_driver_sifive_plic0_interrupt_parents+0x20>
E:\8.AWS-FreeRTOS-HiFive1\Workspace\sifive-hifive1-revb-i2c\bsp\build\debug/./metal/machine.h:350
	}
	else {
		return NULL;
20013d78:	4781                	li	a5,0
E:\8.AWS-FreeRTOS-HiFive1\Workspace\sifive-hifive1-revb-i2c\bsp\build\debug/./metal/machine.h:352
	}
}
20013d7a:	853e                	mv	a0,a5
20013d7c:	4472                	lw	s0,28(sp)
20013d7e:	6105                	addi	sp,sp,32
20013d80:	8082                	ret

20013d82 <__metal_driver_sifive_plic0_interrupt_lines>:
__metal_driver_sifive_plic0_interrupt_lines():
E:\8.AWS-FreeRTOS-HiFive1\Workspace\sifive-hifive1-revb-i2c\bsp\build\debug/./metal/machine.h:355

static __inline__ int __metal_driver_sifive_plic0_interrupt_lines(struct metal_interrupt *controller, int idx)
{
20013d82:	1101                	addi	sp,sp,-32
20013d84:	ce22                	sw	s0,28(sp)
20013d86:	1000                	addi	s0,sp,32
20013d88:	fea42623          	sw	a0,-20(s0)
20013d8c:	feb42423          	sw	a1,-24(s0)
E:\8.AWS-FreeRTOS-HiFive1\Workspace\sifive-hifive1-revb-i2c\bsp\build\debug/./metal/machine.h:356
	if (idx == 0) {
20013d90:	fe842783          	lw	a5,-24(s0)
20013d94:	e399                	bnez	a5,20013d9a <__metal_driver_sifive_plic0_interrupt_lines+0x18>
E:\8.AWS-FreeRTOS-HiFive1\Workspace\sifive-hifive1-revb-i2c\bsp\build\debug/./metal/machine.h:357
		return 11;
20013d96:	47ad                	li	a5,11
20013d98:	a011                	j	20013d9c <__metal_driver_sifive_plic0_interrupt_lines+0x1a>
E:\8.AWS-FreeRTOS-HiFive1\Workspace\sifive-hifive1-revb-i2c\bsp\build\debug/./metal/machine.h:360
	}
	else {
		return 0;
20013d9a:	4781                	li	a5,0
E:\8.AWS-FreeRTOS-HiFive1\Workspace\sifive-hifive1-revb-i2c\bsp\build\debug/./metal/machine.h:362
	}
}
20013d9c:	853e                	mv	a0,a5
20013d9e:	4472                	lw	s0,28(sp)
20013da0:	6105                	addi	sp,sp,32
20013da2:	8082                	ret

20013da4 <__metal_plic0_claim_interrupt>:
__metal_plic0_claim_interrupt():
E:/8.AWS-FreeRTOS-HiFive1/Workspace/sifive-hifive1-revb-i2c/freedom-metal/src/drivers/riscv_plic0.c:14
#include <metal/shutdown.h>
#include <metal/drivers/riscv_plic0.h>
#include <metal/machine.h>

unsigned int __metal_plic0_claim_interrupt (struct __metal_driver_riscv_plic0 *plic)
{
20013da4:	7179                	addi	sp,sp,-48
20013da6:	d606                	sw	ra,44(sp)
20013da8:	d422                	sw	s0,40(sp)
20013daa:	1800                	addi	s0,sp,48
20013dac:	fca42e23          	sw	a0,-36(s0)
E:/8.AWS-FreeRTOS-HiFive1/Workspace/sifive-hifive1-revb-i2c/freedom-metal/src/drivers/riscv_plic0.c:15
    unsigned long control_base = __metal_driver_sifive_plic0_control_base((struct metal_interrupt *)plic);
20013db0:	fdc42503          	lw	a0,-36(s0)
20013db4:	372d                	jal	20013cde <__metal_driver_sifive_plic0_control_base>
20013db6:	fea42623          	sw	a0,-20(s0)
E:/8.AWS-FreeRTOS-HiFive1/Workspace/sifive-hifive1-revb-i2c/freedom-metal/src/drivers/riscv_plic0.c:16
    return __METAL_ACCESS_ONCE((__metal_io_u32 *)(control_base +
20013dba:	fec42703          	lw	a4,-20(s0)
20013dbe:	002007b7          	lui	a5,0x200
20013dc2:	0791                	addi	a5,a5,4
20013dc4:	97ba                	add	a5,a5,a4
20013dc6:	439c                	lw	a5,0(a5)
E:/8.AWS-FreeRTOS-HiFive1/Workspace/sifive-hifive1-revb-i2c/freedom-metal/src/drivers/riscv_plic0.c:18
					      METAL_RISCV_PLIC0_CLAIM));
}
20013dc8:	853e                	mv	a0,a5
20013dca:	50b2                	lw	ra,44(sp)
20013dcc:	5422                	lw	s0,40(sp)
20013dce:	6145                	addi	sp,sp,48
20013dd0:	8082                	ret

20013dd2 <__metal_plic0_complete_interrupt>:
__metal_plic0_complete_interrupt():
E:/8.AWS-FreeRTOS-HiFive1/Workspace/sifive-hifive1-revb-i2c/freedom-metal/src/drivers/riscv_plic0.c:22

void __metal_plic0_complete_interrupt(struct __metal_driver_riscv_plic0 *plic,
				    unsigned int id)
{
20013dd2:	7179                	addi	sp,sp,-48
20013dd4:	d606                	sw	ra,44(sp)
20013dd6:	d422                	sw	s0,40(sp)
20013dd8:	1800                	addi	s0,sp,48
20013dda:	fca42e23          	sw	a0,-36(s0)
20013dde:	fcb42c23          	sw	a1,-40(s0)
E:/8.AWS-FreeRTOS-HiFive1/Workspace/sifive-hifive1-revb-i2c/freedom-metal/src/drivers/riscv_plic0.c:23
    unsigned long control_base = __metal_driver_sifive_plic0_control_base((struct metal_interrupt *)plic);
20013de2:	fdc42503          	lw	a0,-36(s0)
20013de6:	3de5                	jal	20013cde <__metal_driver_sifive_plic0_control_base>
20013de8:	fea42623          	sw	a0,-20(s0)
E:/8.AWS-FreeRTOS-HiFive1/Workspace/sifive-hifive1-revb-i2c/freedom-metal/src/drivers/riscv_plic0.c:24
    __METAL_ACCESS_ONCE((__metal_io_u32 *)(control_base +
20013dec:	fec42703          	lw	a4,-20(s0)
20013df0:	002007b7          	lui	a5,0x200
20013df4:	0791                	addi	a5,a5,4
20013df6:	97ba                	add	a5,a5,a4
20013df8:	873e                	mv	a4,a5
E:/8.AWS-FreeRTOS-HiFive1/Workspace/sifive-hifive1-revb-i2c/freedom-metal/src/drivers/riscv_plic0.c:25
				       METAL_RISCV_PLIC0_CLAIM)) = id;
20013dfa:	fd842783          	lw	a5,-40(s0)
20013dfe:	c31c                	sw	a5,0(a4)
E:/8.AWS-FreeRTOS-HiFive1/Workspace/sifive-hifive1-revb-i2c/freedom-metal/src/drivers/riscv_plic0.c:26
}
20013e00:	0001                	nop
20013e02:	50b2                	lw	ra,44(sp)
20013e04:	5422                	lw	s0,40(sp)
20013e06:	6145                	addi	sp,sp,48
20013e08:	8082                	ret

20013e0a <__metal_plic0_set_threshold>:
__metal_plic0_set_threshold():
E:/8.AWS-FreeRTOS-HiFive1/Workspace/sifive-hifive1-revb-i2c/freedom-metal/src/drivers/riscv_plic0.c:29

int __metal_plic0_set_threshold(struct metal_interrupt *controller, unsigned int threshold)
{
20013e0a:	7179                	addi	sp,sp,-48
20013e0c:	d606                	sw	ra,44(sp)
20013e0e:	d422                	sw	s0,40(sp)
20013e10:	1800                	addi	s0,sp,48
20013e12:	fca42e23          	sw	a0,-36(s0)
20013e16:	fcb42c23          	sw	a1,-40(s0)
E:/8.AWS-FreeRTOS-HiFive1/Workspace/sifive-hifive1-revb-i2c/freedom-metal/src/drivers/riscv_plic0.c:30
    unsigned long control_base = __metal_driver_sifive_plic0_control_base(controller);
20013e1a:	fdc42503          	lw	a0,-36(s0)
20013e1e:	35c1                	jal	20013cde <__metal_driver_sifive_plic0_control_base>
20013e20:	fea42623          	sw	a0,-20(s0)
E:/8.AWS-FreeRTOS-HiFive1/Workspace/sifive-hifive1-revb-i2c/freedom-metal/src/drivers/riscv_plic0.c:31
    __METAL_ACCESS_ONCE((__metal_io_u32 *)(control_base +
20013e24:	fec42703          	lw	a4,-20(s0)
20013e28:	002007b7          	lui	a5,0x200
20013e2c:	97ba                	add	a5,a5,a4
20013e2e:	873e                	mv	a4,a5
E:/8.AWS-FreeRTOS-HiFive1/Workspace/sifive-hifive1-revb-i2c/freedom-metal/src/drivers/riscv_plic0.c:32
				       METAL_RISCV_PLIC0_THRESHOLD)) = threshold;
20013e30:	fd842783          	lw	a5,-40(s0)
20013e34:	c31c                	sw	a5,0(a4)
E:/8.AWS-FreeRTOS-HiFive1/Workspace/sifive-hifive1-revb-i2c/freedom-metal/src/drivers/riscv_plic0.c:33
    return 0;
20013e36:	4781                	li	a5,0
E:/8.AWS-FreeRTOS-HiFive1/Workspace/sifive-hifive1-revb-i2c/freedom-metal/src/drivers/riscv_plic0.c:34
}
20013e38:	853e                	mv	a0,a5
20013e3a:	50b2                	lw	ra,44(sp)
20013e3c:	5422                	lw	s0,40(sp)
20013e3e:	6145                	addi	sp,sp,48
20013e40:	8082                	ret

20013e42 <__metal_plic0_get_threshold>:
__metal_plic0_get_threshold():
E:/8.AWS-FreeRTOS-HiFive1/Workspace/sifive-hifive1-revb-i2c/freedom-metal/src/drivers/riscv_plic0.c:37

unsigned int __metal_plic0_get_threshold(struct metal_interrupt *controller)
{
20013e42:	7179                	addi	sp,sp,-48
20013e44:	d606                	sw	ra,44(sp)
20013e46:	d422                	sw	s0,40(sp)
20013e48:	1800                	addi	s0,sp,48
20013e4a:	fca42e23          	sw	a0,-36(s0)
E:/8.AWS-FreeRTOS-HiFive1/Workspace/sifive-hifive1-revb-i2c/freedom-metal/src/drivers/riscv_plic0.c:38
    unsigned long control_base = __metal_driver_sifive_plic0_control_base(controller);
20013e4e:	fdc42503          	lw	a0,-36(s0)
20013e52:	3571                	jal	20013cde <__metal_driver_sifive_plic0_control_base>
20013e54:	fea42623          	sw	a0,-20(s0)
E:/8.AWS-FreeRTOS-HiFive1/Workspace/sifive-hifive1-revb-i2c/freedom-metal/src/drivers/riscv_plic0.c:40

    return __METAL_ACCESS_ONCE((__metal_io_u32 *)(control_base +
20013e58:	fec42703          	lw	a4,-20(s0)
20013e5c:	002007b7          	lui	a5,0x200
20013e60:	97ba                	add	a5,a5,a4
20013e62:	439c                	lw	a5,0(a5)
E:/8.AWS-FreeRTOS-HiFive1/Workspace/sifive-hifive1-revb-i2c/freedom-metal/src/drivers/riscv_plic0.c:42
				       METAL_RISCV_PLIC0_THRESHOLD));
}
20013e64:	853e                	mv	a0,a5
20013e66:	50b2                	lw	ra,44(sp)
20013e68:	5422                	lw	s0,40(sp)
20013e6a:	6145                	addi	sp,sp,48
20013e6c:	8082                	ret

20013e6e <__metal_plic0_set_priority>:
__metal_plic0_set_priority():
E:/8.AWS-FreeRTOS-HiFive1/Workspace/sifive-hifive1-revb-i2c/freedom-metal/src/drivers/riscv_plic0.c:45

int __metal_plic0_set_priority(struct metal_interrupt *controller, int id, unsigned int priority)
{
20013e6e:	7179                	addi	sp,sp,-48
20013e70:	d606                	sw	ra,44(sp)
20013e72:	d422                	sw	s0,40(sp)
20013e74:	1800                	addi	s0,sp,48
20013e76:	fca42e23          	sw	a0,-36(s0)
20013e7a:	fcb42c23          	sw	a1,-40(s0)
20013e7e:	fcc42a23          	sw	a2,-44(s0)
E:/8.AWS-FreeRTOS-HiFive1/Workspace/sifive-hifive1-revb-i2c/freedom-metal/src/drivers/riscv_plic0.c:46
    unsigned long control_base = __metal_driver_sifive_plic0_control_base((struct metal_interrupt *)controller);
20013e82:	fdc42503          	lw	a0,-36(s0)
20013e86:	3da1                	jal	20013cde <__metal_driver_sifive_plic0_control_base>
20013e88:	fea42623          	sw	a0,-20(s0)
E:/8.AWS-FreeRTOS-HiFive1/Workspace/sifive-hifive1-revb-i2c/freedom-metal/src/drivers/riscv_plic0.c:47
    unsigned int max_priority = __metal_driver_sifive_plic0_max_priority((struct metal_interrupt *)controller);
20013e8c:	fdc42503          	lw	a0,-36(s0)
20013e90:	354d                	jal	20013d32 <__metal_driver_sifive_plic0_max_priority>
20013e92:	87aa                	mv	a5,a0
20013e94:	fef42423          	sw	a5,-24(s0)
E:/8.AWS-FreeRTOS-HiFive1/Workspace/sifive-hifive1-revb-i2c/freedom-metal/src/drivers/riscv_plic0.c:48
    if ( (max_priority) && (priority < max_priority) ) {
20013e98:	fe842783          	lw	a5,-24(s0)
20013e9c:	c785                	beqz	a5,20013ec4 <__metal_plic0_set_priority+0x56>
E:/8.AWS-FreeRTOS-HiFive1/Workspace/sifive-hifive1-revb-i2c/freedom-metal/src/drivers/riscv_plic0.c:48 (discriminator 1)
20013e9e:	fd442703          	lw	a4,-44(s0)
20013ea2:	fe842783          	lw	a5,-24(s0)
20013ea6:	00f77f63          	bgeu	a4,a5,20013ec4 <__metal_plic0_set_priority+0x56>
E:/8.AWS-FreeRTOS-HiFive1/Workspace/sifive-hifive1-revb-i2c/freedom-metal/src/drivers/riscv_plic0.c:49
        __METAL_ACCESS_ONCE((__metal_io_u32 *)(control_base +
20013eaa:	fd842783          	lw	a5,-40(s0)
20013eae:	078a                	slli	a5,a5,0x2
20013eb0:	873e                	mv	a4,a5
20013eb2:	fec42783          	lw	a5,-20(s0)
20013eb6:	97ba                	add	a5,a5,a4
20013eb8:	873e                	mv	a4,a5
E:/8.AWS-FreeRTOS-HiFive1/Workspace/sifive-hifive1-revb-i2c/freedom-metal/src/drivers/riscv_plic0.c:51
					   METAL_RISCV_PLIC0_PRIORITY_BASE +
					   (id << METAL_PLIC_SOURCE_PRIORITY_SHIFT))) = priority;
20013eba:	fd442783          	lw	a5,-44(s0)
20013ebe:	c31c                	sw	a5,0(a4)
E:/8.AWS-FreeRTOS-HiFive1/Workspace/sifive-hifive1-revb-i2c/freedom-metal/src/drivers/riscv_plic0.c:52
        return 0;
20013ec0:	4781                	li	a5,0
20013ec2:	a011                	j	20013ec6 <__metal_plic0_set_priority+0x58>
E:/8.AWS-FreeRTOS-HiFive1/Workspace/sifive-hifive1-revb-i2c/freedom-metal/src/drivers/riscv_plic0.c:54
    }
    return -1;
20013ec4:	57fd                	li	a5,-1
E:/8.AWS-FreeRTOS-HiFive1/Workspace/sifive-hifive1-revb-i2c/freedom-metal/src/drivers/riscv_plic0.c:55
}
20013ec6:	853e                	mv	a0,a5
20013ec8:	50b2                	lw	ra,44(sp)
20013eca:	5422                	lw	s0,40(sp)
20013ecc:	6145                	addi	sp,sp,48
20013ece:	8082                	ret

20013ed0 <__metal_plic0_get_priority>:
__metal_plic0_get_priority():
E:/8.AWS-FreeRTOS-HiFive1/Workspace/sifive-hifive1-revb-i2c/freedom-metal/src/drivers/riscv_plic0.c:58

unsigned int __metal_plic0_get_priority(struct metal_interrupt *controller, int id)
{
20013ed0:	7179                	addi	sp,sp,-48
20013ed2:	d606                	sw	ra,44(sp)
20013ed4:	d422                	sw	s0,40(sp)
20013ed6:	1800                	addi	s0,sp,48
20013ed8:	fca42e23          	sw	a0,-36(s0)
20013edc:	fcb42c23          	sw	a1,-40(s0)
E:/8.AWS-FreeRTOS-HiFive1/Workspace/sifive-hifive1-revb-i2c/freedom-metal/src/drivers/riscv_plic0.c:59
    unsigned long control_base = __metal_driver_sifive_plic0_control_base(controller);
20013ee0:	fdc42503          	lw	a0,-36(s0)
20013ee4:	3bed                	jal	20013cde <__metal_driver_sifive_plic0_control_base>
20013ee6:	fea42623          	sw	a0,-20(s0)
E:/8.AWS-FreeRTOS-HiFive1/Workspace/sifive-hifive1-revb-i2c/freedom-metal/src/drivers/riscv_plic0.c:61

    return __METAL_ACCESS_ONCE((__metal_io_u32 *)(control_base +
20013eea:	fd842783          	lw	a5,-40(s0)
20013eee:	078a                	slli	a5,a5,0x2
20013ef0:	873e                	mv	a4,a5
20013ef2:	fec42783          	lw	a5,-20(s0)
20013ef6:	97ba                	add	a5,a5,a4
20013ef8:	439c                	lw	a5,0(a5)
E:/8.AWS-FreeRTOS-HiFive1/Workspace/sifive-hifive1-revb-i2c/freedom-metal/src/drivers/riscv_plic0.c:64
					   METAL_RISCV_PLIC0_PRIORITY_BASE +
					   (id << METAL_PLIC_SOURCE_PRIORITY_SHIFT)));
}
20013efa:	853e                	mv	a0,a5
20013efc:	50b2                	lw	ra,44(sp)
20013efe:	5422                	lw	s0,40(sp)
20013f00:	6145                	addi	sp,sp,48
20013f02:	8082                	ret

20013f04 <__metal_plic0_enable>:
__metal_plic0_enable():
E:/8.AWS-FreeRTOS-HiFive1/Workspace/sifive-hifive1-revb-i2c/freedom-metal/src/drivers/riscv_plic0.c:67

void __metal_plic0_enable(struct __metal_driver_riscv_plic0 *plic, int id, int enable)
{
20013f04:	7179                	addi	sp,sp,-48
20013f06:	d606                	sw	ra,44(sp)
20013f08:	d422                	sw	s0,40(sp)
20013f0a:	1800                	addi	s0,sp,48
20013f0c:	fca42e23          	sw	a0,-36(s0)
20013f10:	fcb42c23          	sw	a1,-40(s0)
20013f14:	fcc42a23          	sw	a2,-44(s0)
E:/8.AWS-FreeRTOS-HiFive1/Workspace/sifive-hifive1-revb-i2c/freedom-metal/src/drivers/riscv_plic0.c:69
    unsigned int current;
    unsigned long control_base = __metal_driver_sifive_plic0_control_base((struct metal_interrupt *)plic);
20013f18:	fdc42503          	lw	a0,-36(s0)
20013f1c:	33c9                	jal	20013cde <__metal_driver_sifive_plic0_control_base>
20013f1e:	fea42623          	sw	a0,-20(s0)
E:/8.AWS-FreeRTOS-HiFive1/Workspace/sifive-hifive1-revb-i2c/freedom-metal/src/drivers/riscv_plic0.c:71

    current = __METAL_ACCESS_ONCE((__metal_io_u32 *)(control_base +
20013f22:	fd842783          	lw	a5,-40(s0)
20013f26:	8795                	srai	a5,a5,0x5
20013f28:	078a                	slli	a5,a5,0x2
20013f2a:	873e                	mv	a4,a5
20013f2c:	fec42783          	lw	a5,-20(s0)
20013f30:	973e                	add	a4,a4,a5
20013f32:	6789                	lui	a5,0x2
20013f34:	97ba                	add	a5,a5,a4
20013f36:	439c                	lw	a5,0(a5)
20013f38:	fef42423          	sw	a5,-24(s0)
E:/8.AWS-FreeRTOS-HiFive1/Workspace/sifive-hifive1-revb-i2c/freedom-metal/src/drivers/riscv_plic0.c:78
						(id >> METAL_PLIC_SOURCE_SHIFT) * 4));
    __METAL_ACCESS_ONCE((__metal_io_u32 *)(control_base +
					METAL_RISCV_PLIC0_ENABLE_BASE +
					((id >> METAL_PLIC_SOURCE_SHIFT) * 4))) =
              enable ? (current | (1 << (id & METAL_PLIC_SOURCE_MASK)))
                     : (current & ~(1 << (id & METAL_PLIC_SOURCE_MASK)));
20013f3c:	fd442783          	lw	a5,-44(s0)
20013f40:	cf81                	beqz	a5,20013f58 <__metal_plic0_enable+0x54>
E:/8.AWS-FreeRTOS-HiFive1/Workspace/sifive-hifive1-revb-i2c/freedom-metal/src/drivers/riscv_plic0.c:77 (discriminator 1)
              enable ? (current | (1 << (id & METAL_PLIC_SOURCE_MASK)))
20013f42:	fd842783          	lw	a5,-40(s0)
20013f46:	8bfd                	andi	a5,a5,31
20013f48:	4705                	li	a4,1
20013f4a:	00f717b3          	sll	a5,a4,a5
20013f4e:	873e                	mv	a4,a5
E:/8.AWS-FreeRTOS-HiFive1/Workspace/sifive-hifive1-revb-i2c/freedom-metal/src/drivers/riscv_plic0.c:78 (discriminator 1)
                     : (current & ~(1 << (id & METAL_PLIC_SOURCE_MASK)));
20013f50:	fe842783          	lw	a5,-24(s0)
20013f54:	8fd9                	or	a5,a5,a4
20013f56:	a829                	j	20013f70 <__metal_plic0_enable+0x6c>
E:/8.AWS-FreeRTOS-HiFive1/Workspace/sifive-hifive1-revb-i2c/freedom-metal/src/drivers/riscv_plic0.c:78 (discriminator 2)
20013f58:	fd842783          	lw	a5,-40(s0)
20013f5c:	8bfd                	andi	a5,a5,31
20013f5e:	4705                	li	a4,1
20013f60:	00f717b3          	sll	a5,a4,a5
20013f64:	fff7c793          	not	a5,a5
20013f68:	873e                	mv	a4,a5
20013f6a:	fe842783          	lw	a5,-24(s0)
20013f6e:	8ff9                	and	a5,a5,a4
E:/8.AWS-FreeRTOS-HiFive1/Workspace/sifive-hifive1-revb-i2c/freedom-metal/src/drivers/riscv_plic0.c:74
    __METAL_ACCESS_ONCE((__metal_io_u32 *)(control_base +
20013f70:	fd842703          	lw	a4,-40(s0)
20013f74:	8715                	srai	a4,a4,0x5
20013f76:	070a                	slli	a4,a4,0x2
20013f78:	86ba                	mv	a3,a4
20013f7a:	fec42703          	lw	a4,-20(s0)
20013f7e:	96ba                	add	a3,a3,a4
20013f80:	6709                	lui	a4,0x2
20013f82:	9736                	add	a4,a4,a3
E:/8.AWS-FreeRTOS-HiFive1/Workspace/sifive-hifive1-revb-i2c/freedom-metal/src/drivers/riscv_plic0.c:76
					((id >> METAL_PLIC_SOURCE_SHIFT) * 4))) =
20013f84:	c31c                	sw	a5,0(a4)
E:/8.AWS-FreeRTOS-HiFive1/Workspace/sifive-hifive1-revb-i2c/freedom-metal/src/drivers/riscv_plic0.c:79
}
20013f86:	0001                	nop
20013f88:	50b2                	lw	ra,44(sp)
20013f8a:	5422                	lw	s0,40(sp)
20013f8c:	6145                	addi	sp,sp,48
20013f8e:	8082                	ret

20013f90 <__metal_plic0_default_handler>:
__metal_plic0_default_handler():
E:/8.AWS-FreeRTOS-HiFive1/Workspace/sifive-hifive1-revb-i2c/freedom-metal/src/drivers/riscv_plic0.c:81

void __metal_plic0_default_handler (int id, void *priv) {
20013f90:	1101                	addi	sp,sp,-32
20013f92:	ce06                	sw	ra,28(sp)
20013f94:	cc22                	sw	s0,24(sp)
20013f96:	1000                	addi	s0,sp,32
20013f98:	fea42623          	sw	a0,-20(s0)
20013f9c:	feb42423          	sw	a1,-24(s0)
E:/8.AWS-FreeRTOS-HiFive1/Workspace/sifive-hifive1-revb-i2c/freedom-metal/src/drivers/riscv_plic0.c:82
    metal_shutdown(300);
20013fa0:	12c00513          	li	a0,300
20013fa4:	62d010ef          	jal	ra,20015dd0 <metal_shutdown>

20013fa8 <__metal_plic0_handler>:
__metal_plic0_handler():
E:/8.AWS-FreeRTOS-HiFive1/Workspace/sifive-hifive1-revb-i2c/freedom-metal/src/drivers/riscv_plic0.c:86
}

void __metal_plic0_handler (int id, void *priv)
{
20013fa8:	7179                	addi	sp,sp,-48
20013faa:	d606                	sw	ra,44(sp)
20013fac:	d422                	sw	s0,40(sp)
20013fae:	1800                	addi	s0,sp,48
20013fb0:	fca42e23          	sw	a0,-36(s0)
20013fb4:	fcb42c23          	sw	a1,-40(s0)
E:/8.AWS-FreeRTOS-HiFive1/Workspace/sifive-hifive1-revb-i2c/freedom-metal/src/drivers/riscv_plic0.c:87
    struct __metal_driver_riscv_plic0 *plic = priv;
20013fb8:	fd842783          	lw	a5,-40(s0)
20013fbc:	fef42623          	sw	a5,-20(s0)
E:/8.AWS-FreeRTOS-HiFive1/Workspace/sifive-hifive1-revb-i2c/freedom-metal/src/drivers/riscv_plic0.c:88
    unsigned int idx = __metal_plic0_claim_interrupt(plic);
20013fc0:	fec42503          	lw	a0,-20(s0)
20013fc4:	33c5                	jal	20013da4 <__metal_plic0_claim_interrupt>
20013fc6:	fea42423          	sw	a0,-24(s0)
E:/8.AWS-FreeRTOS-HiFive1/Workspace/sifive-hifive1-revb-i2c/freedom-metal/src/drivers/riscv_plic0.c:89
    unsigned int num_interrupts = __metal_driver_sifive_plic0_num_interrupts((struct metal_interrupt *)plic);
20013fca:	fec42503          	lw	a0,-20(s0)
20013fce:	3b2d                	jal	20013d08 <__metal_driver_sifive_plic0_num_interrupts>
20013fd0:	87aa                	mv	a5,a0
20013fd2:	fef42223          	sw	a5,-28(s0)
E:/8.AWS-FreeRTOS-HiFive1/Workspace/sifive-hifive1-revb-i2c/freedom-metal/src/drivers/riscv_plic0.c:91

    if ( (idx < num_interrupts) && (plic->metal_exint_table[idx]) ) {
20013fd6:	fe842703          	lw	a4,-24(s0)
20013fda:	fe442783          	lw	a5,-28(s0)
20013fde:	04f77263          	bgeu	a4,a5,20014022 <__metal_plic0_handler+0x7a>
E:/8.AWS-FreeRTOS-HiFive1/Workspace/sifive-hifive1-revb-i2c/freedom-metal/src/drivers/riscv_plic0.c:91 (discriminator 1)
20013fe2:	fec42703          	lw	a4,-20(s0)
20013fe6:	fe842783          	lw	a5,-24(s0)
20013fea:	078a                	slli	a5,a5,0x2
20013fec:	97ba                	add	a5,a5,a4
20013fee:	479c                	lw	a5,8(a5)
20013ff0:	cb8d                	beqz	a5,20014022 <__metal_plic0_handler+0x7a>
E:/8.AWS-FreeRTOS-HiFive1/Workspace/sifive-hifive1-revb-i2c/freedom-metal/src/drivers/riscv_plic0.c:92
	plic->metal_exint_table[idx](idx,
20013ff2:	fec42703          	lw	a4,-20(s0)
20013ff6:	fe842783          	lw	a5,-24(s0)
20013ffa:	078a                	slli	a5,a5,0x2
20013ffc:	97ba                	add	a5,a5,a4
20013ffe:	0087a803          	lw	a6,8(a5) # 2008 <__heap_size+0x1808>
20014002:	fe842603          	lw	a2,-24(s0)
20014006:	fec42683          	lw	a3,-20(s0)
2001400a:	fe842703          	lw	a4,-24(s0)
2001400e:	87ba                	mv	a5,a4
20014010:	0786                	slli	a5,a5,0x1
20014012:	97ba                	add	a5,a5,a4
20014014:	078e                	slli	a5,a5,0x3
20014016:	97b6                	add	a5,a5,a3
20014018:	0f07a783          	lw	a5,240(a5)
2001401c:	85be                	mv	a1,a5
2001401e:	8532                	mv	a0,a2
20014020:	9802                	jalr	a6
E:/8.AWS-FreeRTOS-HiFive1/Workspace/sifive-hifive1-revb-i2c/freedom-metal/src/drivers/riscv_plic0.c:96
				  plic->metal_exdata_table[idx].exint_data);
    }

    __metal_plic0_complete_interrupt(plic, idx);
20014022:	fe842583          	lw	a1,-24(s0)
20014026:	fec42503          	lw	a0,-20(s0)
2001402a:	3365                	jal	20013dd2 <__metal_plic0_complete_interrupt>
E:/8.AWS-FreeRTOS-HiFive1/Workspace/sifive-hifive1-revb-i2c/freedom-metal/src/drivers/riscv_plic0.c:97
}
2001402c:	0001                	nop
2001402e:	50b2                	lw	ra,44(sp)
20014030:	5422                	lw	s0,40(sp)
20014032:	6145                	addi	sp,sp,48
20014034:	8082                	ret

20014036 <__metal_driver_riscv_plic0_init>:
__metal_driver_riscv_plic0_init():
E:/8.AWS-FreeRTOS-HiFive1/Workspace/sifive-hifive1-revb-i2c/freedom-metal/src/drivers/riscv_plic0.c:100

void __metal_driver_riscv_plic0_init (struct metal_interrupt *controller)
{
20014036:	7139                	addi	sp,sp,-64
20014038:	de06                	sw	ra,60(sp)
2001403a:	dc22                	sw	s0,56(sp)
2001403c:	0080                	addi	s0,sp,64
2001403e:	fca42623          	sw	a0,-52(s0)
E:/8.AWS-FreeRTOS-HiFive1/Workspace/sifive-hifive1-revb-i2c/freedom-metal/src/drivers/riscv_plic0.c:101
    struct __metal_driver_riscv_plic0 *plic = (void *)(controller);
20014042:	fcc42783          	lw	a5,-52(s0)
20014046:	fef42223          	sw	a5,-28(s0)
E:/8.AWS-FreeRTOS-HiFive1/Workspace/sifive-hifive1-revb-i2c/freedom-metal/src/drivers/riscv_plic0.c:103

    if ( !plic->init_done ) {
2001404a:	fe442783          	lw	a5,-28(s0)
2001404e:	43dc                	lw	a5,4(a5)
20014050:	10079d63          	bnez	a5,2001416a <__metal_driver_riscv_plic0_init+0x134>
E:/8.AWS-FreeRTOS-HiFive1/Workspace/sifive-hifive1-revb-i2c/freedom-metal/src/drivers/riscv_plic0.c:107
        int num_interrupts, line;
        struct metal_interrupt *intc;

	for(int parent = 0; parent < __METAL_PLIC_NUM_PARENTS; parent++) {
20014054:	fe042623          	sw	zero,-20(s0)
20014058:	a209                	j	2001415a <__metal_driver_riscv_plic0_init+0x124>
E:/8.AWS-FreeRTOS-HiFive1/Workspace/sifive-hifive1-revb-i2c/freedom-metal/src/drivers/riscv_plic0.c:108
	    num_interrupts = __metal_driver_sifive_plic0_num_interrupts(controller);
2001405a:	fcc42503          	lw	a0,-52(s0)
2001405e:	cabff0ef          	jal	ra,20013d08 <__metal_driver_sifive_plic0_num_interrupts>
20014062:	fea42023          	sw	a0,-32(s0)
E:/8.AWS-FreeRTOS-HiFive1/Workspace/sifive-hifive1-revb-i2c/freedom-metal/src/drivers/riscv_plic0.c:109
	    intc = __metal_driver_sifive_plic0_interrupt_parents(controller, parent);
20014066:	fec42583          	lw	a1,-20(s0)
2001406a:	fcc42503          	lw	a0,-52(s0)
2001406e:	31f5                	jal	20013d5a <__metal_driver_sifive_plic0_interrupt_parents>
20014070:	fca42e23          	sw	a0,-36(s0)
E:/8.AWS-FreeRTOS-HiFive1/Workspace/sifive-hifive1-revb-i2c/freedom-metal/src/drivers/riscv_plic0.c:110
	    line = __metal_driver_sifive_plic0_interrupt_lines(controller, parent);
20014074:	fec42583          	lw	a1,-20(s0)
20014078:	fcc42503          	lw	a0,-52(s0)
2001407c:	3319                	jal	20013d82 <__metal_driver_sifive_plic0_interrupt_lines>
2001407e:	fca42c23          	sw	a0,-40(s0)
E:/8.AWS-FreeRTOS-HiFive1/Workspace/sifive-hifive1-revb-i2c/freedom-metal/src/drivers/riscv_plic0.c:113

	    /* Initialize ist parent controller, aka cpu_intc. */
	    intc->vtable->interrupt_init(intc);
20014082:	fdc42783          	lw	a5,-36(s0)
20014086:	439c                	lw	a5,0(a5)
20014088:	439c                	lw	a5,0(a5)
2001408a:	fdc42503          	lw	a0,-36(s0)
2001408e:	9782                	jalr	a5
E:/8.AWS-FreeRTOS-HiFive1/Workspace/sifive-hifive1-revb-i2c/freedom-metal/src/drivers/riscv_plic0.c:115

	    for (int i = 0; i < num_interrupts; i++) {
20014090:	fe042423          	sw	zero,-24(s0)
20014094:	a085                	j	200140f4 <__metal_driver_riscv_plic0_init+0xbe>
E:/8.AWS-FreeRTOS-HiFive1/Workspace/sifive-hifive1-revb-i2c/freedom-metal/src/drivers/riscv_plic0.c:116 (discriminator 3)
		__metal_plic0_enable(plic, i, METAL_DISABLE);
20014096:	4601                	li	a2,0
20014098:	fe842583          	lw	a1,-24(s0)
2001409c:	fe442503          	lw	a0,-28(s0)
200140a0:	3595                	jal	20013f04 <__metal_plic0_enable>
E:/8.AWS-FreeRTOS-HiFive1/Workspace/sifive-hifive1-revb-i2c/freedom-metal/src/drivers/riscv_plic0.c:117 (discriminator 3)
		__metal_plic0_set_priority(controller, i, 0);
200140a2:	4601                	li	a2,0
200140a4:	fe842583          	lw	a1,-24(s0)
200140a8:	fcc42503          	lw	a0,-52(s0)
200140ac:	33c9                	jal	20013e6e <__metal_plic0_set_priority>
E:/8.AWS-FreeRTOS-HiFive1/Workspace/sifive-hifive1-revb-i2c/freedom-metal/src/drivers/riscv_plic0.c:118 (discriminator 3)
		plic->metal_exint_table[i] = NULL;
200140ae:	fe442703          	lw	a4,-28(s0)
200140b2:	fe842783          	lw	a5,-24(s0)
200140b6:	078a                	slli	a5,a5,0x2
200140b8:	97ba                	add	a5,a5,a4
200140ba:	0007a423          	sw	zero,8(a5)
E:/8.AWS-FreeRTOS-HiFive1/Workspace/sifive-hifive1-revb-i2c/freedom-metal/src/drivers/riscv_plic0.c:119 (discriminator 3)
		plic->metal_exdata_table[i].sub_int = NULL;
200140be:	fe442683          	lw	a3,-28(s0)
200140c2:	fe842703          	lw	a4,-24(s0)
200140c6:	87ba                	mv	a5,a4
200140c8:	0786                	slli	a5,a5,0x1
200140ca:	97ba                	add	a5,a5,a4
200140cc:	078e                	slli	a5,a5,0x3
200140ce:	97b6                	add	a5,a5,a3
200140d0:	0e07a623          	sw	zero,236(a5)
E:/8.AWS-FreeRTOS-HiFive1/Workspace/sifive-hifive1-revb-i2c/freedom-metal/src/drivers/riscv_plic0.c:120 (discriminator 3)
		plic->metal_exdata_table[i].exint_data = NULL;
200140d4:	fe442683          	lw	a3,-28(s0)
200140d8:	fe842703          	lw	a4,-24(s0)
200140dc:	87ba                	mv	a5,a4
200140de:	0786                	slli	a5,a5,0x1
200140e0:	97ba                	add	a5,a5,a4
200140e2:	078e                	slli	a5,a5,0x3
200140e4:	97b6                	add	a5,a5,a3
200140e6:	0e07a823          	sw	zero,240(a5)
E:/8.AWS-FreeRTOS-HiFive1/Workspace/sifive-hifive1-revb-i2c/freedom-metal/src/drivers/riscv_plic0.c:115 (discriminator 3)
	    for (int i = 0; i < num_interrupts; i++) {
200140ea:	fe842783          	lw	a5,-24(s0)
200140ee:	0785                	addi	a5,a5,1
200140f0:	fef42423          	sw	a5,-24(s0)
E:/8.AWS-FreeRTOS-HiFive1/Workspace/sifive-hifive1-revb-i2c/freedom-metal/src/drivers/riscv_plic0.c:115 (discriminator 1)
200140f4:	fe842703          	lw	a4,-24(s0)
200140f8:	fe042783          	lw	a5,-32(s0)
200140fc:	f8f74de3          	blt	a4,a5,20014096 <__metal_driver_riscv_plic0_init+0x60>
E:/8.AWS-FreeRTOS-HiFive1/Workspace/sifive-hifive1-revb-i2c/freedom-metal/src/drivers/riscv_plic0.c:123 (discriminator 2)
	    }

	    __metal_plic0_set_threshold(controller, 0);
20014100:	4581                	li	a1,0
20014102:	fcc42503          	lw	a0,-52(s0)
20014106:	3311                	jal	20013e0a <__metal_plic0_set_threshold>
E:/8.AWS-FreeRTOS-HiFive1/Workspace/sifive-hifive1-revb-i2c/freedom-metal/src/drivers/riscv_plic0.c:126 (discriminator 2)

	    /* Register plic (ext) interrupt with with parent controller */
	    intc->vtable->interrupt_register(intc, line, NULL, plic);
20014108:	fdc42783          	lw	a5,-36(s0)
2001410c:	439c                	lw	a5,0(a5)
2001410e:	4fdc                	lw	a5,28(a5)
20014110:	fe442683          	lw	a3,-28(s0)
20014114:	4601                	li	a2,0
20014116:	fd842583          	lw	a1,-40(s0)
2001411a:	fdc42503          	lw	a0,-36(s0)
2001411e:	9782                	jalr	a5
E:/8.AWS-FreeRTOS-HiFive1/Workspace/sifive-hifive1-revb-i2c/freedom-metal/src/drivers/riscv_plic0.c:128 (discriminator 2)
	    /* Register plic handler for dispatching its device interrupts */
	    intc->vtable->interrupt_register(intc, line, __metal_plic0_handler, plic);
20014120:	fdc42783          	lw	a5,-36(s0)
20014124:	439c                	lw	a5,0(a5)
20014126:	4fd8                	lw	a4,28(a5)
20014128:	fe442683          	lw	a3,-28(s0)
2001412c:	200147b7          	lui	a5,0x20014
20014130:	fa878613          	addi	a2,a5,-88 # 20013fa8 <__metal_plic0_handler>
20014134:	fd842583          	lw	a1,-40(s0)
20014138:	fdc42503          	lw	a0,-36(s0)
2001413c:	9702                	jalr	a4
E:/8.AWS-FreeRTOS-HiFive1/Workspace/sifive-hifive1-revb-i2c/freedom-metal/src/drivers/riscv_plic0.c:130 (discriminator 2)
	    /* Enable plic (ext) interrupt with with parent controller */
	    intc->vtable->interrupt_enable(intc, line);
2001413e:	fdc42783          	lw	a5,-36(s0)
20014142:	439c                	lw	a5,0(a5)
20014144:	53dc                	lw	a5,36(a5)
20014146:	fd842583          	lw	a1,-40(s0)
2001414a:	fdc42503          	lw	a0,-36(s0)
2001414e:	9782                	jalr	a5
E:/8.AWS-FreeRTOS-HiFive1/Workspace/sifive-hifive1-revb-i2c/freedom-metal/src/drivers/riscv_plic0.c:107 (discriminator 2)
	for(int parent = 0; parent < __METAL_PLIC_NUM_PARENTS; parent++) {
20014150:	fec42783          	lw	a5,-20(s0)
20014154:	0785                	addi	a5,a5,1
20014156:	fef42623          	sw	a5,-20(s0)
E:/8.AWS-FreeRTOS-HiFive1/Workspace/sifive-hifive1-revb-i2c/freedom-metal/src/drivers/riscv_plic0.c:107 (discriminator 1)
2001415a:	fec42783          	lw	a5,-20(s0)
2001415e:	eef05ee3          	blez	a5,2001405a <__metal_driver_riscv_plic0_init+0x24>
E:/8.AWS-FreeRTOS-HiFive1/Workspace/sifive-hifive1-revb-i2c/freedom-metal/src/drivers/riscv_plic0.c:132
	}
        plic->init_done = 1;
20014162:	fe442783          	lw	a5,-28(s0)
20014166:	4705                	li	a4,1
20014168:	c3d8                	sw	a4,4(a5)
E:/8.AWS-FreeRTOS-HiFive1/Workspace/sifive-hifive1-revb-i2c/freedom-metal/src/drivers/riscv_plic0.c:134
    }
}
2001416a:	0001                	nop
2001416c:	50f2                	lw	ra,60(sp)
2001416e:	5462                	lw	s0,56(sp)
20014170:	6121                	addi	sp,sp,64
20014172:	8082                	ret

20014174 <__metal_driver_riscv_plic0_register>:
__metal_driver_riscv_plic0_register():
E:/8.AWS-FreeRTOS-HiFive1/Workspace/sifive-hifive1-revb-i2c/freedom-metal/src/drivers/riscv_plic0.c:139

int __metal_driver_riscv_plic0_register (struct metal_interrupt *controller,
			               int id, metal_interrupt_handler_t isr,
			               void *priv)
{
20014174:	7179                	addi	sp,sp,-48
20014176:	d606                	sw	ra,44(sp)
20014178:	d422                	sw	s0,40(sp)
2001417a:	1800                	addi	s0,sp,48
2001417c:	fca42e23          	sw	a0,-36(s0)
20014180:	fcb42c23          	sw	a1,-40(s0)
20014184:	fcc42a23          	sw	a2,-44(s0)
20014188:	fcd42823          	sw	a3,-48(s0)
E:/8.AWS-FreeRTOS-HiFive1/Workspace/sifive-hifive1-revb-i2c/freedom-metal/src/drivers/riscv_plic0.c:140
    struct __metal_driver_riscv_plic0 *plic = (void *)(controller);
2001418c:	fdc42783          	lw	a5,-36(s0)
20014190:	fef42623          	sw	a5,-20(s0)
E:/8.AWS-FreeRTOS-HiFive1/Workspace/sifive-hifive1-revb-i2c/freedom-metal/src/drivers/riscv_plic0.c:142

    if (id >= __metal_driver_sifive_plic0_num_interrupts(controller)) {
20014194:	fdc42503          	lw	a0,-36(s0)
20014198:	b71ff0ef          	jal	ra,20013d08 <__metal_driver_sifive_plic0_num_interrupts>
2001419c:	872a                	mv	a4,a0
2001419e:	fd842783          	lw	a5,-40(s0)
200141a2:	00e7c463          	blt	a5,a4,200141aa <__metal_driver_riscv_plic0_register+0x36>
E:/8.AWS-FreeRTOS-HiFive1/Workspace/sifive-hifive1-revb-i2c/freedom-metal/src/drivers/riscv_plic0.c:143
        return -1;
200141a6:	57fd                	li	a5,-1
200141a8:	a051                	j	2001422c <__metal_driver_riscv_plic0_register+0xb8>
E:/8.AWS-FreeRTOS-HiFive1/Workspace/sifive-hifive1-revb-i2c/freedom-metal/src/drivers/riscv_plic0.c:146
    }
 
    if (isr) {
200141aa:	fd442783          	lw	a5,-44(s0)
200141ae:	cf9d                	beqz	a5,200141ec <__metal_driver_riscv_plic0_register+0x78>
E:/8.AWS-FreeRTOS-HiFive1/Workspace/sifive-hifive1-revb-i2c/freedom-metal/src/drivers/riscv_plic0.c:147
        __metal_plic0_set_priority(controller, id, 2);
200141b0:	4609                	li	a2,2
200141b2:	fd842583          	lw	a1,-40(s0)
200141b6:	fdc42503          	lw	a0,-36(s0)
200141ba:	cb5ff0ef          	jal	ra,20013e6e <__metal_plic0_set_priority>
E:/8.AWS-FreeRTOS-HiFive1/Workspace/sifive-hifive1-revb-i2c/freedom-metal/src/drivers/riscv_plic0.c:148
	plic->metal_exint_table[id] = isr;
200141be:	fec42703          	lw	a4,-20(s0)
200141c2:	fd842783          	lw	a5,-40(s0)
200141c6:	078a                	slli	a5,a5,0x2
200141c8:	97ba                	add	a5,a5,a4
200141ca:	fd442703          	lw	a4,-44(s0)
200141ce:	c798                	sw	a4,8(a5)
E:/8.AWS-FreeRTOS-HiFive1/Workspace/sifive-hifive1-revb-i2c/freedom-metal/src/drivers/riscv_plic0.c:149
	plic->metal_exdata_table[id].exint_data = priv;
200141d0:	fec42683          	lw	a3,-20(s0)
200141d4:	fd842703          	lw	a4,-40(s0)
200141d8:	87ba                	mv	a5,a4
200141da:	0786                	slli	a5,a5,0x1
200141dc:	97ba                	add	a5,a5,a4
200141de:	078e                	slli	a5,a5,0x3
200141e0:	97b6                	add	a5,a5,a3
200141e2:	fd042703          	lw	a4,-48(s0)
200141e6:	0ee7a823          	sw	a4,240(a5)
200141ea:	a081                	j	2001422a <__metal_driver_riscv_plic0_register+0xb6>
E:/8.AWS-FreeRTOS-HiFive1/Workspace/sifive-hifive1-revb-i2c/freedom-metal/src/drivers/riscv_plic0.c:151
    } else {
        __metal_plic0_set_priority(controller, id, 1);
200141ec:	4605                	li	a2,1
200141ee:	fd842583          	lw	a1,-40(s0)
200141f2:	fdc42503          	lw	a0,-36(s0)
200141f6:	c79ff0ef          	jal	ra,20013e6e <__metal_plic0_set_priority>
E:/8.AWS-FreeRTOS-HiFive1/Workspace/sifive-hifive1-revb-i2c/freedom-metal/src/drivers/riscv_plic0.c:152
	plic->metal_exint_table[id] = __metal_plic0_default_handler;
200141fa:	fec42703          	lw	a4,-20(s0)
200141fe:	fd842783          	lw	a5,-40(s0)
20014202:	078a                	slli	a5,a5,0x2
20014204:	97ba                	add	a5,a5,a4
20014206:	20014737          	lui	a4,0x20014
2001420a:	f9070713          	addi	a4,a4,-112 # 20013f90 <__metal_plic0_default_handler>
2001420e:	c798                	sw	a4,8(a5)
E:/8.AWS-FreeRTOS-HiFive1/Workspace/sifive-hifive1-revb-i2c/freedom-metal/src/drivers/riscv_plic0.c:153
	plic->metal_exdata_table[id].sub_int = priv;
20014210:	fec42683          	lw	a3,-20(s0)
20014214:	fd842703          	lw	a4,-40(s0)
20014218:	87ba                	mv	a5,a4
2001421a:	0786                	slli	a5,a5,0x1
2001421c:	97ba                	add	a5,a5,a4
2001421e:	078e                	slli	a5,a5,0x3
20014220:	97b6                	add	a5,a5,a3
20014222:	fd042703          	lw	a4,-48(s0)
20014226:	0ee7a623          	sw	a4,236(a5)
E:/8.AWS-FreeRTOS-HiFive1/Workspace/sifive-hifive1-revb-i2c/freedom-metal/src/drivers/riscv_plic0.c:156
    }

    return 0;
2001422a:	4781                	li	a5,0
E:/8.AWS-FreeRTOS-HiFive1/Workspace/sifive-hifive1-revb-i2c/freedom-metal/src/drivers/riscv_plic0.c:157
}
2001422c:	853e                	mv	a0,a5
2001422e:	50b2                	lw	ra,44(sp)
20014230:	5422                	lw	s0,40(sp)
20014232:	6145                	addi	sp,sp,48
20014234:	8082                	ret

20014236 <__metal_driver_riscv_plic0_enable>:
__metal_driver_riscv_plic0_enable():
E:/8.AWS-FreeRTOS-HiFive1/Workspace/sifive-hifive1-revb-i2c/freedom-metal/src/drivers/riscv_plic0.c:160

int __metal_driver_riscv_plic0_enable (struct metal_interrupt *controller, int id)
{
20014236:	7179                	addi	sp,sp,-48
20014238:	d606                	sw	ra,44(sp)
2001423a:	d422                	sw	s0,40(sp)
2001423c:	1800                	addi	s0,sp,48
2001423e:	fca42e23          	sw	a0,-36(s0)
20014242:	fcb42c23          	sw	a1,-40(s0)
E:/8.AWS-FreeRTOS-HiFive1/Workspace/sifive-hifive1-revb-i2c/freedom-metal/src/drivers/riscv_plic0.c:161
    struct __metal_driver_riscv_plic0 *plic = (void *)(controller);
20014246:	fdc42783          	lw	a5,-36(s0)
2001424a:	fef42623          	sw	a5,-20(s0)
E:/8.AWS-FreeRTOS-HiFive1/Workspace/sifive-hifive1-revb-i2c/freedom-metal/src/drivers/riscv_plic0.c:163

    if (id >= __metal_driver_sifive_plic0_num_interrupts(controller)) {
2001424e:	fdc42503          	lw	a0,-36(s0)
20014252:	ab7ff0ef          	jal	ra,20013d08 <__metal_driver_sifive_plic0_num_interrupts>
20014256:	872a                	mv	a4,a0
20014258:	fd842783          	lw	a5,-40(s0)
2001425c:	00e7c463          	blt	a5,a4,20014264 <__metal_driver_riscv_plic0_enable+0x2e>
E:/8.AWS-FreeRTOS-HiFive1/Workspace/sifive-hifive1-revb-i2c/freedom-metal/src/drivers/riscv_plic0.c:164
        return -1;
20014260:	57fd                	li	a5,-1
20014262:	a809                	j	20014274 <__metal_driver_riscv_plic0_enable+0x3e>
E:/8.AWS-FreeRTOS-HiFive1/Workspace/sifive-hifive1-revb-i2c/freedom-metal/src/drivers/riscv_plic0.c:167
    }

    __metal_plic0_enable(plic, id, METAL_ENABLE);
20014264:	4605                	li	a2,1
20014266:	fd842583          	lw	a1,-40(s0)
2001426a:	fec42503          	lw	a0,-20(s0)
2001426e:	c97ff0ef          	jal	ra,20013f04 <__metal_plic0_enable>
E:/8.AWS-FreeRTOS-HiFive1/Workspace/sifive-hifive1-revb-i2c/freedom-metal/src/drivers/riscv_plic0.c:168
    return 0;
20014272:	4781                	li	a5,0
E:/8.AWS-FreeRTOS-HiFive1/Workspace/sifive-hifive1-revb-i2c/freedom-metal/src/drivers/riscv_plic0.c:169
}
20014274:	853e                	mv	a0,a5
20014276:	50b2                	lw	ra,44(sp)
20014278:	5422                	lw	s0,40(sp)
2001427a:	6145                	addi	sp,sp,48
2001427c:	8082                	ret

2001427e <__metal_driver_riscv_plic0_disable>:
__metal_driver_riscv_plic0_disable():
E:/8.AWS-FreeRTOS-HiFive1/Workspace/sifive-hifive1-revb-i2c/freedom-metal/src/drivers/riscv_plic0.c:172

int __metal_driver_riscv_plic0_disable (struct metal_interrupt *controller, int id)
{
2001427e:	7179                	addi	sp,sp,-48
20014280:	d606                	sw	ra,44(sp)
20014282:	d422                	sw	s0,40(sp)
20014284:	1800                	addi	s0,sp,48
20014286:	fca42e23          	sw	a0,-36(s0)
2001428a:	fcb42c23          	sw	a1,-40(s0)
E:/8.AWS-FreeRTOS-HiFive1/Workspace/sifive-hifive1-revb-i2c/freedom-metal/src/drivers/riscv_plic0.c:173
    struct __metal_driver_riscv_plic0 *plic = (void *)(controller);
2001428e:	fdc42783          	lw	a5,-36(s0)
20014292:	fef42623          	sw	a5,-20(s0)
E:/8.AWS-FreeRTOS-HiFive1/Workspace/sifive-hifive1-revb-i2c/freedom-metal/src/drivers/riscv_plic0.c:175

    if (id >= __metal_driver_sifive_plic0_num_interrupts(controller)) {
20014296:	fdc42503          	lw	a0,-36(s0)
2001429a:	a6fff0ef          	jal	ra,20013d08 <__metal_driver_sifive_plic0_num_interrupts>
2001429e:	872a                	mv	a4,a0
200142a0:	fd842783          	lw	a5,-40(s0)
200142a4:	00e7c463          	blt	a5,a4,200142ac <__metal_driver_riscv_plic0_disable+0x2e>
E:/8.AWS-FreeRTOS-HiFive1/Workspace/sifive-hifive1-revb-i2c/freedom-metal/src/drivers/riscv_plic0.c:176
        return -1;
200142a8:	57fd                	li	a5,-1
200142aa:	a809                	j	200142bc <__metal_driver_riscv_plic0_disable+0x3e>
E:/8.AWS-FreeRTOS-HiFive1/Workspace/sifive-hifive1-revb-i2c/freedom-metal/src/drivers/riscv_plic0.c:178
    }
    __metal_plic0_enable(plic, id, METAL_DISABLE);
200142ac:	4601                	li	a2,0
200142ae:	fd842583          	lw	a1,-40(s0)
200142b2:	fec42503          	lw	a0,-20(s0)
200142b6:	c4fff0ef          	jal	ra,20013f04 <__metal_plic0_enable>
E:/8.AWS-FreeRTOS-HiFive1/Workspace/sifive-hifive1-revb-i2c/freedom-metal/src/drivers/riscv_plic0.c:179
    return 0;
200142ba:	4781                	li	a5,0
E:/8.AWS-FreeRTOS-HiFive1/Workspace/sifive-hifive1-revb-i2c/freedom-metal/src/drivers/riscv_plic0.c:180
}
200142bc:	853e                	mv	a0,a5
200142be:	50b2                	lw	ra,44(sp)
200142c0:	5422                	lw	s0,40(sp)
200142c2:	6145                	addi	sp,sp,48
200142c4:	8082                	ret

200142c6 <__metal_driver_sifive_fe310_g000_hfrosc_ref>:
__metal_driver_sifive_fe310_g000_hfrosc_ref():
E:\8.AWS-FreeRTOS-HiFive1\Workspace\sifive-hifive1-revb-i2c\bsp\build\debug/./metal/machine.h:911



/* --------------------- sifive_fe310_g000_hfrosc ------------ */
static __inline__ struct metal_clock * __metal_driver_sifive_fe310_g000_hfrosc_ref(const struct metal_clock *clock)
{
200142c6:	1101                	addi	sp,sp,-32
200142c8:	ce22                	sw	s0,28(sp)
200142ca:	1000                	addi	s0,sp,32
200142cc:	fea42623          	sw	a0,-20(s0)
E:\8.AWS-FreeRTOS-HiFive1\Workspace\sifive-hifive1-revb-i2c\bsp\build\debug/./metal/machine.h:912
		return (struct metal_clock *)&__metal_dt_clock_2.clock;
200142d0:	800007b7          	lui	a5,0x80000
200142d4:	06c78793          	addi	a5,a5,108 # 8000006c <metal_segment_heap_target_end+0xffffe8fc>
E:\8.AWS-FreeRTOS-HiFive1\Workspace\sifive-hifive1-revb-i2c\bsp\build\debug/./metal/machine.h:913
}
200142d8:	853e                	mv	a0,a5
200142da:	4472                	lw	s0,28(sp)
200142dc:	6105                	addi	sp,sp,32
200142de:	8082                	ret

200142e0 <__metal_driver_sifive_fe310_g000_hfrosc_config_base>:
__metal_driver_sifive_fe310_g000_hfrosc_config_base():
E:\8.AWS-FreeRTOS-HiFive1\Workspace\sifive-hifive1-revb-i2c\bsp\build\debug/./metal/machine.h:916

static __inline__ struct __metal_driver_sifive_fe310_g000_prci * __metal_driver_sifive_fe310_g000_hfrosc_config_base(const struct metal_clock *clock)
{
200142e0:	1101                	addi	sp,sp,-32
200142e2:	ce22                	sw	s0,28(sp)
200142e4:	1000                	addi	s0,sp,32
200142e6:	fea42623          	sw	a0,-20(s0)
E:\8.AWS-FreeRTOS-HiFive1\Workspace\sifive-hifive1-revb-i2c\bsp\build\debug/./metal/machine.h:917
		return (struct __metal_driver_sifive_fe310_g000_prci *)&__metal_dt_prci_10008000;
200142ea:	81c18793          	addi	a5,gp,-2020 # 80000aa4 <__metal_dt_prci_10008000>
E:\8.AWS-FreeRTOS-HiFive1\Workspace\sifive-hifive1-revb-i2c\bsp\build\debug/./metal/machine.h:918
}
200142ee:	853e                	mv	a0,a5
200142f0:	4472                	lw	s0,28(sp)
200142f2:	6105                	addi	sp,sp,32
200142f4:	8082                	ret

200142f6 <__metal_driver_sifive_fe310_g000_hfrosc_config_offset>:
__metal_driver_sifive_fe310_g000_hfrosc_config_offset():
E:\8.AWS-FreeRTOS-HiFive1\Workspace\sifive-hifive1-revb-i2c\bsp\build\debug/./metal/machine.h:926
{
		return &__metal_driver_vtable_sifive_fe310_g000_prci;
}

static __inline__ long __metal_driver_sifive_fe310_g000_hfrosc_config_offset(const struct metal_clock *clock)
{
200142f6:	1101                	addi	sp,sp,-32
200142f8:	ce22                	sw	s0,28(sp)
200142fa:	1000                	addi	s0,sp,32
200142fc:	fea42623          	sw	a0,-20(s0)
E:\8.AWS-FreeRTOS-HiFive1\Workspace\sifive-hifive1-revb-i2c\bsp\build\debug/./metal/machine.h:927
		return METAL_SIFIVE_FE310_G000_PRCI_HFROSCCFG;
20014300:	4781                	li	a5,0
E:\8.AWS-FreeRTOS-HiFive1\Workspace\sifive-hifive1-revb-i2c\bsp\build\debug/./metal/machine.h:928
}
20014302:	853e                	mv	a0,a5
20014304:	4472                	lw	s0,28(sp)
20014306:	6105                	addi	sp,sp,32
20014308:	8082                	ret

2001430a <__metal_driver_sifive_fe310_g000_prci_vtable>:
__metal_driver_sifive_fe310_g000_prci_vtable():
E:\8.AWS-FreeRTOS-HiFive1\Workspace\sifive-hifive1-revb-i2c\bsp\build\debug/./metal/machine.h:1043
{
		return METAL_SIFIVE_FE310_G000_PRCI_10008000_SIZE;
}

static __inline__ const struct __metal_driver_vtable_sifive_fe310_g000_prci * __metal_driver_sifive_fe310_g000_prci_vtable( )
{
2001430a:	1141                	addi	sp,sp,-16
2001430c:	c622                	sw	s0,12(sp)
2001430e:	0800                	addi	s0,sp,16
E:\8.AWS-FreeRTOS-HiFive1\Workspace\sifive-hifive1-revb-i2c\bsp\build\debug/./metal/machine.h:1044
		return &__metal_driver_vtable_sifive_fe310_g000_prci;
20014310:	83018793          	addi	a5,gp,-2000 # 80000ab8 <__metal_driver_vtable_sifive_fe310_g000_prci>
E:\8.AWS-FreeRTOS-HiFive1\Workspace\sifive-hifive1-revb-i2c\bsp\build\debug/./metal/machine.h:1045
}
20014314:	853e                	mv	a0,a5
20014316:	4432                	lw	s0,12(sp)
20014318:	0141                	addi	sp,sp,16
2001431a:	8082                	ret

2001431c <__metal_driver_sifive_fe310_g000_hfrosc_get_rate_hz>:
__metal_driver_sifive_fe310_g000_hfrosc_get_rate_hz():
E:/8.AWS-FreeRTOS-HiFive1/Workspace/sifive-hifive1-revb-i2c/freedom-metal/src/drivers/sifive_fe310-g000_hfrosc.c:17
#define CONFIG_TRIM    0x001F0000UL
#define CONFIG_ENABLE  0x40000000UL
#define CONFIG_READY   0x80000000UL

long __metal_driver_sifive_fe310_g000_hfrosc_get_rate_hz(const struct metal_clock *clock)
{
2001431c:	7139                	addi	sp,sp,-64
2001431e:	de06                	sw	ra,60(sp)
20014320:	dc22                	sw	s0,56(sp)
20014322:	0080                	addi	s0,sp,64
20014324:	fca42623          	sw	a0,-52(s0)
E:/8.AWS-FreeRTOS-HiFive1/Workspace/sifive-hifive1-revb-i2c/freedom-metal/src/drivers/sifive_fe310-g000_hfrosc.c:18
    struct metal_clock *ref = __metal_driver_sifive_fe310_g000_hfrosc_ref(clock);
20014328:	fcc42503          	lw	a0,-52(s0)
2001432c:	3f69                	jal	200142c6 <__metal_driver_sifive_fe310_g000_hfrosc_ref>
2001432e:	fea42623          	sw	a0,-20(s0)
E:/8.AWS-FreeRTOS-HiFive1/Workspace/sifive-hifive1-revb-i2c/freedom-metal/src/drivers/sifive_fe310-g000_hfrosc.c:19
    long config_offset = __metal_driver_sifive_fe310_g000_hfrosc_config_offset(clock);
20014332:	fcc42503          	lw	a0,-52(s0)
20014336:	37c1                	jal	200142f6 <__metal_driver_sifive_fe310_g000_hfrosc_config_offset>
20014338:	fea42423          	sw	a0,-24(s0)
E:/8.AWS-FreeRTOS-HiFive1/Workspace/sifive-hifive1-revb-i2c/freedom-metal/src/drivers/sifive_fe310-g000_hfrosc.c:21
    struct __metal_driver_sifive_fe310_g000_prci *config_base =
      __metal_driver_sifive_fe310_g000_hfrosc_config_base(clock);
2001433c:	fcc42503          	lw	a0,-52(s0)
20014340:	3745                	jal	200142e0 <__metal_driver_sifive_fe310_g000_hfrosc_config_base>
20014342:	fea42223          	sw	a0,-28(s0)
E:/8.AWS-FreeRTOS-HiFive1/Workspace/sifive-hifive1-revb-i2c/freedom-metal/src/drivers/sifive_fe310-g000_hfrosc.c:23
    const struct __metal_driver_vtable_sifive_fe310_g000_prci *vtable =
      __metal_driver_sifive_fe310_g000_prci_vtable();
20014346:	37d1                	jal	2001430a <__metal_driver_sifive_fe310_g000_prci_vtable>
20014348:	fea42023          	sw	a0,-32(s0)
E:/8.AWS-FreeRTOS-HiFive1/Workspace/sifive-hifive1-revb-i2c/freedom-metal/src/drivers/sifive_fe310-g000_hfrosc.c:24
    long cfg = vtable->get_reg(config_base, config_offset);
2001434c:	fe042783          	lw	a5,-32(s0)
20014350:	439c                	lw	a5,0(a5)
20014352:	fe842583          	lw	a1,-24(s0)
20014356:	fe442503          	lw	a0,-28(s0)
2001435a:	9782                	jalr	a5
2001435c:	fca42e23          	sw	a0,-36(s0)
E:/8.AWS-FreeRTOS-HiFive1/Workspace/sifive-hifive1-revb-i2c/freedom-metal/src/drivers/sifive_fe310-g000_hfrosc.c:26

    if ((cfg & CONFIG_ENABLE) == 0)
20014360:	fdc42703          	lw	a4,-36(s0)
20014364:	400007b7          	lui	a5,0x40000
20014368:	8ff9                	and	a5,a5,a4
2001436a:	e399                	bnez	a5,20014370 <__metal_driver_sifive_fe310_g000_hfrosc_get_rate_hz+0x54>
E:/8.AWS-FreeRTOS-HiFive1/Workspace/sifive-hifive1-revb-i2c/freedom-metal/src/drivers/sifive_fe310-g000_hfrosc.c:27
        return -1;
2001436c:	57fd                	li	a5,-1
2001436e:	a025                	j	20014396 <__metal_driver_sifive_fe310_g000_hfrosc_get_rate_hz+0x7a>
E:/8.AWS-FreeRTOS-HiFive1/Workspace/sifive-hifive1-revb-i2c/freedom-metal/src/drivers/sifive_fe310-g000_hfrosc.c:28
    if ((cfg & CONFIG_READY) == 0)
20014370:	fdc42783          	lw	a5,-36(s0)
20014374:	0007c463          	bltz	a5,2001437c <__metal_driver_sifive_fe310_g000_hfrosc_get_rate_hz+0x60>
E:/8.AWS-FreeRTOS-HiFive1/Workspace/sifive-hifive1-revb-i2c/freedom-metal/src/drivers/sifive_fe310-g000_hfrosc.c:29
        return -1;
20014378:	57fd                	li	a5,-1
2001437a:	a831                	j	20014396 <__metal_driver_sifive_fe310_g000_hfrosc_get_rate_hz+0x7a>
E:/8.AWS-FreeRTOS-HiFive1/Workspace/sifive-hifive1-revb-i2c/freedom-metal/src/drivers/sifive_fe310-g000_hfrosc.c:30
    return metal_clock_get_rate_hz(ref) / ((cfg & CONFIG_DIVIDER) + 1);
2001437c:	fec42503          	lw	a0,-20(s0)
20014380:	0bb010ef          	jal	ra,20015c3a <metal_clock_get_rate_hz>
20014384:	87aa                	mv	a5,a0
20014386:	873e                	mv	a4,a5
20014388:	fdc42783          	lw	a5,-36(s0)
2001438c:	03f7f793          	andi	a5,a5,63
20014390:	0785                	addi	a5,a5,1
20014392:	02f757b3          	divu	a5,a4,a5
E:/8.AWS-FreeRTOS-HiFive1/Workspace/sifive-hifive1-revb-i2c/freedom-metal/src/drivers/sifive_fe310-g000_hfrosc.c:31
}
20014396:	853e                	mv	a0,a5
20014398:	50f2                	lw	ra,60(sp)
2001439a:	5462                	lw	s0,56(sp)
2001439c:	6121                	addi	sp,sp,64
2001439e:	8082                	ret

200143a0 <__metal_driver_sifive_fe310_g000_hfrosc_set_rate_hz>:
__metal_driver_sifive_fe310_g000_hfrosc_set_rate_hz():
E:/8.AWS-FreeRTOS-HiFive1/Workspace/sifive-hifive1-revb-i2c/freedom-metal/src/drivers/sifive_fe310-g000_hfrosc.c:34

long __metal_driver_sifive_fe310_g000_hfrosc_set_rate_hz(struct metal_clock *clock, long rate)
{
200143a0:	1101                	addi	sp,sp,-32
200143a2:	ce06                	sw	ra,28(sp)
200143a4:	cc22                	sw	s0,24(sp)
200143a6:	1000                	addi	s0,sp,32
200143a8:	fea42623          	sw	a0,-20(s0)
200143ac:	feb42423          	sw	a1,-24(s0)
E:/8.AWS-FreeRTOS-HiFive1/Workspace/sifive-hifive1-revb-i2c/freedom-metal/src/drivers/sifive_fe310-g000_hfrosc.c:35
    return __metal_driver_sifive_fe310_g000_hfrosc_get_rate_hz(clock);
200143b0:	fec42503          	lw	a0,-20(s0)
200143b4:	37a5                	jal	2001431c <__metal_driver_sifive_fe310_g000_hfrosc_get_rate_hz>
200143b6:	87aa                	mv	a5,a0
E:/8.AWS-FreeRTOS-HiFive1/Workspace/sifive-hifive1-revb-i2c/freedom-metal/src/drivers/sifive_fe310-g000_hfrosc.c:36
}
200143b8:	853e                	mv	a0,a5
200143ba:	40f2                	lw	ra,28(sp)
200143bc:	4462                	lw	s0,24(sp)
200143be:	6105                	addi	sp,sp,32
200143c0:	8082                	ret

200143c2 <__metal_driver_sifive_fe310_g000_hfxosc_ref>:
__metal_driver_sifive_fe310_g000_hfxosc_ref():
E:\8.AWS-FreeRTOS-HiFive1\Workspace\sifive-hifive1-revb-i2c\bsp\build\debug/./metal/machine.h:934
{
200143c2:	1101                	addi	sp,sp,-32
200143c4:	ce22                	sw	s0,28(sp)
200143c6:	1000                	addi	s0,sp,32
200143c8:	fea42623          	sw	a0,-20(s0)
E:\8.AWS-FreeRTOS-HiFive1\Workspace\sifive-hifive1-revb-i2c\bsp\build\debug/./metal/machine.h:935
		return (struct metal_clock *)&__metal_dt_clock_0.clock;
200143cc:	800007b7          	lui	a5,0x80000
200143d0:	06078793          	addi	a5,a5,96 # 80000060 <metal_segment_heap_target_end+0xffffe8f0>
E:\8.AWS-FreeRTOS-HiFive1\Workspace\sifive-hifive1-revb-i2c\bsp\build\debug/./metal/machine.h:936
}
200143d4:	853e                	mv	a0,a5
200143d6:	4472                	lw	s0,28(sp)
200143d8:	6105                	addi	sp,sp,32
200143da:	8082                	ret

200143dc <__metal_driver_sifive_fe310_g000_hfxosc_config_base>:
__metal_driver_sifive_fe310_g000_hfxosc_config_base():
E:\8.AWS-FreeRTOS-HiFive1\Workspace\sifive-hifive1-revb-i2c\bsp\build\debug/./metal/machine.h:939
{
200143dc:	1101                	addi	sp,sp,-32
200143de:	ce22                	sw	s0,28(sp)
200143e0:	1000                	addi	s0,sp,32
200143e2:	fea42623          	sw	a0,-20(s0)
E:\8.AWS-FreeRTOS-HiFive1\Workspace\sifive-hifive1-revb-i2c\bsp\build\debug/./metal/machine.h:940
		return (struct __metal_driver_sifive_fe310_g000_prci *)&__metal_dt_prci_10008000;
200143e6:	81c18793          	addi	a5,gp,-2020 # 80000aa4 <__metal_dt_prci_10008000>
E:\8.AWS-FreeRTOS-HiFive1\Workspace\sifive-hifive1-revb-i2c\bsp\build\debug/./metal/machine.h:941
}
200143ea:	853e                	mv	a0,a5
200143ec:	4472                	lw	s0,28(sp)
200143ee:	6105                	addi	sp,sp,32
200143f0:	8082                	ret

200143f2 <__metal_driver_sifive_fe310_g000_hfxosc_config_offset>:
__metal_driver_sifive_fe310_g000_hfxosc_config_offset():
E:\8.AWS-FreeRTOS-HiFive1\Workspace\sifive-hifive1-revb-i2c\bsp\build\debug/./metal/machine.h:944
{
200143f2:	1101                	addi	sp,sp,-32
200143f4:	ce22                	sw	s0,28(sp)
200143f6:	1000                	addi	s0,sp,32
200143f8:	fea42623          	sw	a0,-20(s0)
E:\8.AWS-FreeRTOS-HiFive1\Workspace\sifive-hifive1-revb-i2c\bsp\build\debug/./metal/machine.h:945
		return METAL_SIFIVE_FE310_G000_PRCI_HFXOSCCFG;
200143fc:	4791                	li	a5,4
E:\8.AWS-FreeRTOS-HiFive1\Workspace\sifive-hifive1-revb-i2c\bsp\build\debug/./metal/machine.h:946
}
200143fe:	853e                	mv	a0,a5
20014400:	4472                	lw	s0,28(sp)
20014402:	6105                	addi	sp,sp,32
20014404:	8082                	ret

20014406 <__metal_driver_sifive_fe310_g000_prci_vtable>:
__metal_driver_sifive_fe310_g000_prci_vtable():
E:\8.AWS-FreeRTOS-HiFive1\Workspace\sifive-hifive1-revb-i2c\bsp\build\debug/./metal/machine.h:1043
{
20014406:	1141                	addi	sp,sp,-16
20014408:	c622                	sw	s0,12(sp)
2001440a:	0800                	addi	s0,sp,16
E:\8.AWS-FreeRTOS-HiFive1\Workspace\sifive-hifive1-revb-i2c\bsp\build\debug/./metal/machine.h:1044
		return &__metal_driver_vtable_sifive_fe310_g000_prci;
2001440c:	83018793          	addi	a5,gp,-2000 # 80000ab8 <__metal_driver_vtable_sifive_fe310_g000_prci>
E:\8.AWS-FreeRTOS-HiFive1\Workspace\sifive-hifive1-revb-i2c\bsp\build\debug/./metal/machine.h:1045
}
20014410:	853e                	mv	a0,a5
20014412:	4432                	lw	s0,12(sp)
20014414:	0141                	addi	sp,sp,16
20014416:	8082                	ret

20014418 <__metal_driver_sifive_fe310_g000_hfxosc_get_rate_hz>:
__metal_driver_sifive_fe310_g000_hfxosc_get_rate_hz():
E:/8.AWS-FreeRTOS-HiFive1/Workspace/sifive-hifive1-revb-i2c/freedom-metal/src/drivers/sifive_fe310-g000_hfxosc.c:15

#define CONFIG_ENABLE  0x40000000UL
#define CONFIG_READY   0x80000000UL

long __metal_driver_sifive_fe310_g000_hfxosc_get_rate_hz(const struct metal_clock *clock)
{
20014418:	7139                	addi	sp,sp,-64
2001441a:	de06                	sw	ra,60(sp)
2001441c:	dc22                	sw	s0,56(sp)
2001441e:	0080                	addi	s0,sp,64
20014420:	fca42623          	sw	a0,-52(s0)
E:/8.AWS-FreeRTOS-HiFive1/Workspace/sifive-hifive1-revb-i2c/freedom-metal/src/drivers/sifive_fe310-g000_hfxosc.c:16
    struct metal_clock *ref = __metal_driver_sifive_fe310_g000_hfxosc_ref(clock);
20014424:	fcc42503          	lw	a0,-52(s0)
20014428:	3f69                	jal	200143c2 <__metal_driver_sifive_fe310_g000_hfxosc_ref>
2001442a:	fea42623          	sw	a0,-20(s0)
E:/8.AWS-FreeRTOS-HiFive1/Workspace/sifive-hifive1-revb-i2c/freedom-metal/src/drivers/sifive_fe310-g000_hfxosc.c:17
    long config_offset = __metal_driver_sifive_fe310_g000_hfxosc_config_offset(clock);
2001442e:	fcc42503          	lw	a0,-52(s0)
20014432:	37c1                	jal	200143f2 <__metal_driver_sifive_fe310_g000_hfxosc_config_offset>
20014434:	fea42423          	sw	a0,-24(s0)
E:/8.AWS-FreeRTOS-HiFive1/Workspace/sifive-hifive1-revb-i2c/freedom-metal/src/drivers/sifive_fe310-g000_hfxosc.c:19
    struct __metal_driver_sifive_fe310_g000_prci *config_base =
      __metal_driver_sifive_fe310_g000_hfxosc_config_base(clock);
20014438:	fcc42503          	lw	a0,-52(s0)
2001443c:	3745                	jal	200143dc <__metal_driver_sifive_fe310_g000_hfxosc_config_base>
2001443e:	fea42223          	sw	a0,-28(s0)
E:/8.AWS-FreeRTOS-HiFive1/Workspace/sifive-hifive1-revb-i2c/freedom-metal/src/drivers/sifive_fe310-g000_hfxosc.c:21
    const struct __metal_driver_vtable_sifive_fe310_g000_prci *vtable =
      __metal_driver_sifive_fe310_g000_prci_vtable();
20014442:	37d1                	jal	20014406 <__metal_driver_sifive_fe310_g000_prci_vtable>
20014444:	fea42023          	sw	a0,-32(s0)
E:/8.AWS-FreeRTOS-HiFive1/Workspace/sifive-hifive1-revb-i2c/freedom-metal/src/drivers/sifive_fe310-g000_hfxosc.c:22
    long cfg = vtable->get_reg(config_base, config_offset);
20014448:	fe042783          	lw	a5,-32(s0)
2001444c:	439c                	lw	a5,0(a5)
2001444e:	fe842583          	lw	a1,-24(s0)
20014452:	fe442503          	lw	a0,-28(s0)
20014456:	9782                	jalr	a5
20014458:	fca42e23          	sw	a0,-36(s0)
E:/8.AWS-FreeRTOS-HiFive1/Workspace/sifive-hifive1-revb-i2c/freedom-metal/src/drivers/sifive_fe310-g000_hfxosc.c:24

    if ((cfg & CONFIG_ENABLE) == 0)
2001445c:	fdc42703          	lw	a4,-36(s0)
20014460:	400007b7          	lui	a5,0x40000
20014464:	8ff9                	and	a5,a5,a4
20014466:	e399                	bnez	a5,2001446c <__metal_driver_sifive_fe310_g000_hfxosc_get_rate_hz+0x54>
E:/8.AWS-FreeRTOS-HiFive1/Workspace/sifive-hifive1-revb-i2c/freedom-metal/src/drivers/sifive_fe310-g000_hfxosc.c:25
        return -1;
20014468:	57fd                	li	a5,-1
2001446a:	a821                	j	20014482 <__metal_driver_sifive_fe310_g000_hfxosc_get_rate_hz+0x6a>
E:/8.AWS-FreeRTOS-HiFive1/Workspace/sifive-hifive1-revb-i2c/freedom-metal/src/drivers/sifive_fe310-g000_hfxosc.c:26
    if ((cfg & CONFIG_READY) == 0)
2001446c:	fdc42783          	lw	a5,-36(s0)
20014470:	0007c463          	bltz	a5,20014478 <__metal_driver_sifive_fe310_g000_hfxosc_get_rate_hz+0x60>
E:/8.AWS-FreeRTOS-HiFive1/Workspace/sifive-hifive1-revb-i2c/freedom-metal/src/drivers/sifive_fe310-g000_hfxosc.c:27
        return -1;
20014474:	57fd                	li	a5,-1
20014476:	a031                	j	20014482 <__metal_driver_sifive_fe310_g000_hfxosc_get_rate_hz+0x6a>
E:/8.AWS-FreeRTOS-HiFive1/Workspace/sifive-hifive1-revb-i2c/freedom-metal/src/drivers/sifive_fe310-g000_hfxosc.c:28
    return metal_clock_get_rate_hz(ref);
20014478:	fec42503          	lw	a0,-20(s0)
2001447c:	7be010ef          	jal	ra,20015c3a <metal_clock_get_rate_hz>
20014480:	87aa                	mv	a5,a0
E:/8.AWS-FreeRTOS-HiFive1/Workspace/sifive-hifive1-revb-i2c/freedom-metal/src/drivers/sifive_fe310-g000_hfxosc.c:29
}
20014482:	853e                	mv	a0,a5
20014484:	50f2                	lw	ra,60(sp)
20014486:	5462                	lw	s0,56(sp)
20014488:	6121                	addi	sp,sp,64
2001448a:	8082                	ret

2001448c <__metal_driver_sifive_fe310_g000_hfxosc_set_rate_hz>:
__metal_driver_sifive_fe310_g000_hfxosc_set_rate_hz():
E:/8.AWS-FreeRTOS-HiFive1/Workspace/sifive-hifive1-revb-i2c/freedom-metal/src/drivers/sifive_fe310-g000_hfxosc.c:32

long __metal_driver_sifive_fe310_g000_hfxosc_set_rate_hz(struct metal_clock *clock, long rate)
{
2001448c:	1101                	addi	sp,sp,-32
2001448e:	ce06                	sw	ra,28(sp)
20014490:	cc22                	sw	s0,24(sp)
20014492:	1000                	addi	s0,sp,32
20014494:	fea42623          	sw	a0,-20(s0)
20014498:	feb42423          	sw	a1,-24(s0)
E:/8.AWS-FreeRTOS-HiFive1/Workspace/sifive-hifive1-revb-i2c/freedom-metal/src/drivers/sifive_fe310-g000_hfxosc.c:33
    return __metal_driver_sifive_fe310_g000_hfxosc_get_rate_hz(clock);
2001449c:	fec42503          	lw	a0,-20(s0)
200144a0:	3fa5                	jal	20014418 <__metal_driver_sifive_fe310_g000_hfxosc_get_rate_hz>
200144a2:	87aa                	mv	a5,a0
E:/8.AWS-FreeRTOS-HiFive1/Workspace/sifive-hifive1-revb-i2c/freedom-metal/src/drivers/sifive_fe310-g000_hfxosc.c:34
}
200144a4:	853e                	mv	a0,a5
200144a6:	40f2                	lw	ra,28(sp)
200144a8:	4462                	lw	s0,24(sp)
200144aa:	6105                	addi	sp,sp,32
200144ac:	8082                	ret

200144ae <__metal_driver_sifive_fe310_g000_pll_pllsel0>:
__metal_driver_sifive_fe310_g000_pll_pllsel0():
E:\8.AWS-FreeRTOS-HiFive1\Workspace\sifive-hifive1-revb-i2c\bsp\build\debug/./metal/machine.h:995
{
200144ae:	1101                	addi	sp,sp,-32
200144b0:	ce22                	sw	s0,28(sp)
200144b2:	1000                	addi	s0,sp,32
200144b4:	fea42623          	sw	a0,-20(s0)
E:\8.AWS-FreeRTOS-HiFive1\Workspace\sifive-hifive1-revb-i2c\bsp\build\debug/./metal/machine.h:996
		return (struct metal_clock *)&__metal_dt_clock_3.clock;
200144b8:	800017b7          	lui	a5,0x80001
200144bc:	a6078793          	addi	a5,a5,-1440 # 80000a60 <metal_segment_heap_target_end+0xfffff2f0>
E:\8.AWS-FreeRTOS-HiFive1\Workspace\sifive-hifive1-revb-i2c\bsp\build\debug/./metal/machine.h:997
}
200144c0:	853e                	mv	a0,a5
200144c2:	4472                	lw	s0,28(sp)
200144c4:	6105                	addi	sp,sp,32
200144c6:	8082                	ret

200144c8 <__metal_driver_sifive_fe310_g000_pll_pllref>:
__metal_driver_sifive_fe310_g000_pll_pllref():
E:\8.AWS-FreeRTOS-HiFive1\Workspace\sifive-hifive1-revb-i2c\bsp\build\debug/./metal/machine.h:1000
{
200144c8:	1101                	addi	sp,sp,-32
200144ca:	ce22                	sw	s0,28(sp)
200144cc:	1000                	addi	s0,sp,32
200144ce:	fea42623          	sw	a0,-20(s0)
E:\8.AWS-FreeRTOS-HiFive1\Workspace\sifive-hifive1-revb-i2c\bsp\build\debug/./metal/machine.h:1001
		return (struct metal_clock *)&__metal_dt_clock_1.clock;
200144d2:	800017b7          	lui	a5,0x80001
200144d6:	a6c78793          	addi	a5,a5,-1428 # 80000a6c <metal_segment_heap_target_end+0xfffff2fc>
E:\8.AWS-FreeRTOS-HiFive1\Workspace\sifive-hifive1-revb-i2c\bsp\build\debug/./metal/machine.h:1002
}
200144da:	853e                	mv	a0,a5
200144dc:	4472                	lw	s0,28(sp)
200144de:	6105                	addi	sp,sp,32
200144e0:	8082                	ret

200144e2 <__metal_driver_sifive_fe310_g000_pll_divider_base>:
__metal_driver_sifive_fe310_g000_pll_divider_base():
E:\8.AWS-FreeRTOS-HiFive1\Workspace\sifive-hifive1-revb-i2c\bsp\build\debug/./metal/machine.h:1005
{
200144e2:	1101                	addi	sp,sp,-32
200144e4:	ce22                	sw	s0,28(sp)
200144e6:	1000                	addi	s0,sp,32
200144e8:	fea42623          	sw	a0,-20(s0)
E:\8.AWS-FreeRTOS-HiFive1\Workspace\sifive-hifive1-revb-i2c\bsp\build\debug/./metal/machine.h:1006
		return (struct __metal_driver_sifive_fe310_g000_prci *)&__metal_dt_prci_10008000;
200144ec:	81c18793          	addi	a5,gp,-2020 # 80000aa4 <__metal_dt_prci_10008000>
E:\8.AWS-FreeRTOS-HiFive1\Workspace\sifive-hifive1-revb-i2c\bsp\build\debug/./metal/machine.h:1007
}
200144f0:	853e                	mv	a0,a5
200144f2:	4472                	lw	s0,28(sp)
200144f4:	6105                	addi	sp,sp,32
200144f6:	8082                	ret

200144f8 <__metal_driver_sifive_fe310_g000_pll_divider_offset>:
__metal_driver_sifive_fe310_g000_pll_divider_offset():
E:\8.AWS-FreeRTOS-HiFive1\Workspace\sifive-hifive1-revb-i2c\bsp\build\debug/./metal/machine.h:1010
{
200144f8:	1101                	addi	sp,sp,-32
200144fa:	ce22                	sw	s0,28(sp)
200144fc:	1000                	addi	s0,sp,32
200144fe:	fea42623          	sw	a0,-20(s0)
E:\8.AWS-FreeRTOS-HiFive1\Workspace\sifive-hifive1-revb-i2c\bsp\build\debug/./metal/machine.h:1011
		return METAL_SIFIVE_FE310_G000_PRCI_PLLOUTDIV;
20014502:	47b1                	li	a5,12
E:\8.AWS-FreeRTOS-HiFive1\Workspace\sifive-hifive1-revb-i2c\bsp\build\debug/./metal/machine.h:1012
}
20014504:	853e                	mv	a0,a5
20014506:	4472                	lw	s0,28(sp)
20014508:	6105                	addi	sp,sp,32
2001450a:	8082                	ret

2001450c <__metal_driver_sifive_fe310_g000_pll_config_base>:
__metal_driver_sifive_fe310_g000_pll_config_base():
E:\8.AWS-FreeRTOS-HiFive1\Workspace\sifive-hifive1-revb-i2c\bsp\build\debug/./metal/machine.h:1015
{
2001450c:	1141                	addi	sp,sp,-16
2001450e:	c622                	sw	s0,12(sp)
20014510:	0800                	addi	s0,sp,16
E:\8.AWS-FreeRTOS-HiFive1\Workspace\sifive-hifive1-revb-i2c\bsp\build\debug/./metal/machine.h:1016
		return (struct __metal_driver_sifive_fe310_g000_prci *)&__metal_dt_prci_10008000;
20014512:	81c18793          	addi	a5,gp,-2020 # 80000aa4 <__metal_dt_prci_10008000>
E:\8.AWS-FreeRTOS-HiFive1\Workspace\sifive-hifive1-revb-i2c\bsp\build\debug/./metal/machine.h:1017
}
20014516:	853e                	mv	a0,a5
20014518:	4432                	lw	s0,12(sp)
2001451a:	0141                	addi	sp,sp,16
2001451c:	8082                	ret

2001451e <__metal_driver_sifive_fe310_g000_pll_config_offset>:
__metal_driver_sifive_fe310_g000_pll_config_offset():
E:\8.AWS-FreeRTOS-HiFive1\Workspace\sifive-hifive1-revb-i2c\bsp\build\debug/./metal/machine.h:1020
{
2001451e:	1141                	addi	sp,sp,-16
20014520:	c622                	sw	s0,12(sp)
20014522:	0800                	addi	s0,sp,16
E:\8.AWS-FreeRTOS-HiFive1\Workspace\sifive-hifive1-revb-i2c\bsp\build\debug/./metal/machine.h:1021
		return METAL_SIFIVE_FE310_G000_PRCI_PLLCFG;
20014524:	47a1                	li	a5,8
E:\8.AWS-FreeRTOS-HiFive1\Workspace\sifive-hifive1-revb-i2c\bsp\build\debug/./metal/machine.h:1022
}
20014526:	853e                	mv	a0,a5
20014528:	4432                	lw	s0,12(sp)
2001452a:	0141                	addi	sp,sp,16
2001452c:	8082                	ret

2001452e <__metal_driver_sifive_fe310_g000_pll_init_rate>:
__metal_driver_sifive_fe310_g000_pll_init_rate():
E:\8.AWS-FreeRTOS-HiFive1\Workspace\sifive-hifive1-revb-i2c\bsp\build\debug/./metal/machine.h:1025
{
2001452e:	1141                	addi	sp,sp,-16
20014530:	c622                	sw	s0,12(sp)
20014532:	0800                	addi	s0,sp,16
E:\8.AWS-FreeRTOS-HiFive1\Workspace\sifive-hifive1-revb-i2c\bsp\build\debug/./metal/machine.h:1026
		return 16000000;
20014534:	00f427b7          	lui	a5,0xf42
20014538:	40078793          	addi	a5,a5,1024 # f42400 <__heap_size+0xf41c00>
E:\8.AWS-FreeRTOS-HiFive1\Workspace\sifive-hifive1-revb-i2c\bsp\build\debug/./metal/machine.h:1027
}
2001453c:	853e                	mv	a0,a5
2001453e:	4432                	lw	s0,12(sp)
20014540:	0141                	addi	sp,sp,16
20014542:	8082                	ret

20014544 <__metal_driver_sifive_fe310_g000_prci_base>:
__metal_driver_sifive_fe310_g000_prci_base():
E:\8.AWS-FreeRTOS-HiFive1\Workspace\sifive-hifive1-revb-i2c\bsp\build\debug/./metal/machine.h:1033
{
20014544:	1141                	addi	sp,sp,-16
20014546:	c622                	sw	s0,12(sp)
20014548:	0800                	addi	s0,sp,16
E:\8.AWS-FreeRTOS-HiFive1\Workspace\sifive-hifive1-revb-i2c\bsp\build\debug/./metal/machine.h:1034
		return METAL_SIFIVE_FE310_G000_PRCI_10008000_BASE_ADDRESS;
2001454a:	100087b7          	lui	a5,0x10008
E:\8.AWS-FreeRTOS-HiFive1\Workspace\sifive-hifive1-revb-i2c\bsp\build\debug/./metal/machine.h:1035
}
2001454e:	853e                	mv	a0,a5
20014550:	4432                	lw	s0,12(sp)
20014552:	0141                	addi	sp,sp,16
20014554:	8082                	ret

20014556 <__metal_driver_sifive_fe310_g000_prci_vtable>:
__metal_driver_sifive_fe310_g000_prci_vtable():
E:\8.AWS-FreeRTOS-HiFive1\Workspace\sifive-hifive1-revb-i2c\bsp\build\debug/./metal/machine.h:1043
{
20014556:	1141                	addi	sp,sp,-16
20014558:	c622                	sw	s0,12(sp)
2001455a:	0800                	addi	s0,sp,16
E:\8.AWS-FreeRTOS-HiFive1\Workspace\sifive-hifive1-revb-i2c\bsp\build\debug/./metal/machine.h:1044
		return &__metal_driver_vtable_sifive_fe310_g000_prci;
2001455c:	83018793          	addi	a5,gp,-2000 # 80000ab8 <__metal_driver_vtable_sifive_fe310_g000_prci>
E:\8.AWS-FreeRTOS-HiFive1\Workspace\sifive-hifive1-revb-i2c\bsp\build\debug/./metal/machine.h:1045
}
20014560:	853e                	mv	a0,a5
20014562:	4432                	lw	s0,12(sp)
20014564:	0141                	addi	sp,sp,16
20014566:	8082                	ret

20014568 <get_pll_config_freq>:
get_pll_config_freq():
E:/8.AWS-FreeRTOS-HiFive1/Workspace/sifive-hifive1-revb-i2c/freedom-metal/src/drivers/sifive_fe310-g000_pll.c:137
 *  - config the PLL configuration
 * Returns:
 *  - PLL_CONFIG_NOT_VALID if the configuration is not valid for the input frequency
 *  - the output frequency, in hertz */
static long get_pll_config_freq(unsigned long pll_input_rate, const struct pll_config_t *config)
{
20014568:	1101                	addi	sp,sp,-32
2001456a:	ce22                	sw	s0,28(sp)
2001456c:	1000                	addi	s0,sp,32
2001456e:	fea42623          	sw	a0,-20(s0)
20014572:	feb42423          	sw	a1,-24(s0)
E:/8.AWS-FreeRTOS-HiFive1/Workspace/sifive-hifive1-revb-i2c/freedom-metal/src/drivers/sifive_fe310-g000_pll.c:138
    if(pll_input_rate < config->min_input_rate || pll_input_rate > config->max_input_rate)
20014576:	fe842783          	lw	a5,-24(s0)
2001457a:	479c                	lw	a5,8(a5)
2001457c:	fec42703          	lw	a4,-20(s0)
20014580:	00f76963          	bltu	a4,a5,20014592 <get_pll_config_freq+0x2a>
E:/8.AWS-FreeRTOS-HiFive1/Workspace/sifive-hifive1-revb-i2c/freedom-metal/src/drivers/sifive_fe310-g000_pll.c:138 (discriminator 1)
20014584:	fe842783          	lw	a5,-24(s0)
20014588:	47dc                	lw	a5,12(a5)
2001458a:	fec42703          	lw	a4,-20(s0)
2001458e:	00e7f463          	bgeu	a5,a4,20014596 <get_pll_config_freq+0x2e>
E:/8.AWS-FreeRTOS-HiFive1/Workspace/sifive-hifive1-revb-i2c/freedom-metal/src/drivers/sifive_fe310-g000_pll.c:139
        return PLL_CONFIG_NOT_VALID;
20014592:	57fd                	li	a5,-1
20014594:	a829                	j	200145ae <get_pll_config_freq+0x46>
E:/8.AWS-FreeRTOS-HiFive1/Workspace/sifive-hifive1-revb-i2c/freedom-metal/src/drivers/sifive_fe310-g000_pll.c:141

    return pll_input_rate * config->multiplier / config->divisor;
20014596:	fe842783          	lw	a5,-24(s0)
2001459a:	4398                	lw	a4,0(a5)
2001459c:	fec42783          	lw	a5,-20(s0)
200145a0:	02f70733          	mul	a4,a4,a5
200145a4:	fe842783          	lw	a5,-24(s0)
200145a8:	43dc                	lw	a5,4(a5)
200145aa:	02f757b3          	divu	a5,a4,a5
E:/8.AWS-FreeRTOS-HiFive1/Workspace/sifive-hifive1-revb-i2c/freedom-metal/src/drivers/sifive_fe310-g000_pll.c:142
}
200145ae:	853e                	mv	a0,a5
200145b0:	4472                	lw	s0,28(sp)
200145b2:	6105                	addi	sp,sp,32
200145b4:	8082                	ret

200145b6 <metal_sifive_fe310_g000_pll_init>:
metal_sifive_fe310_g000_pll_init():
E:/8.AWS-FreeRTOS-HiFive1/Workspace/sifive-hifive1-revb-i2c/freedom-metal/src/drivers/sifive_fe310-g000_pll.c:147

#ifdef __METAL_DT_SIFIVE_FE310_G000_PLL_HANDLE

static void metal_sifive_fe310_g000_pll_init(void) __attribute__((constructor));
static void metal_sifive_fe310_g000_pll_init(void) {
200145b6:	1101                	addi	sp,sp,-32
200145b8:	ce06                	sw	ra,28(sp)
200145ba:	cc22                	sw	s0,24(sp)
200145bc:	1000                	addi	s0,sp,32
E:/8.AWS-FreeRTOS-HiFive1/Workspace/sifive-hifive1-revb-i2c/freedom-metal/src/drivers/sifive_fe310-g000_pll.c:148
    long init_rate = __metal_driver_sifive_fe310_g000_pll_init_rate();
200145be:	3f85                	jal	2001452e <__metal_driver_sifive_fe310_g000_pll_init_rate>
200145c0:	fea42623          	sw	a0,-20(s0)
E:/8.AWS-FreeRTOS-HiFive1/Workspace/sifive-hifive1-revb-i2c/freedom-metal/src/drivers/sifive_fe310-g000_pll.c:150
    /* If the PLL init_rate is zero, don't initialize the PLL */
    if(init_rate != 0)
200145c4:	fec42783          	lw	a5,-20(s0)
200145c8:	c791                	beqz	a5,200145d4 <metal_sifive_fe310_g000_pll_init+0x1e>
E:/8.AWS-FreeRTOS-HiFive1/Workspace/sifive-hifive1-revb-i2c/freedom-metal/src/drivers/sifive_fe310-g000_pll.c:151
        __metal_driver_sifive_fe310_g000_pll_init(__METAL_DT_SIFIVE_FE310_G000_PLL_HANDLE);
200145ca:	800017b7          	lui	a5,0x80001
200145ce:	a7878513          	addi	a0,a5,-1416 # 80000a78 <metal_segment_heap_target_end+0xfffff308>
200145d2:	2031                	jal	200145de <__metal_driver_sifive_fe310_g000_pll_init>
E:/8.AWS-FreeRTOS-HiFive1/Workspace/sifive-hifive1-revb-i2c/freedom-metal/src/drivers/sifive_fe310-g000_pll.c:152
}
200145d4:	0001                	nop
200145d6:	40f2                	lw	ra,28(sp)
200145d8:	4462                	lw	s0,24(sp)
200145da:	6105                	addi	sp,sp,32
200145dc:	8082                	ret

200145de <__metal_driver_sifive_fe310_g000_pll_init>:
__metal_driver_sifive_fe310_g000_pll_init():
E:/8.AWS-FreeRTOS-HiFive1/Workspace/sifive-hifive1-revb-i2c/freedom-metal/src/drivers/sifive_fe310-g000_pll.c:156

#endif /* __METAL_DT_SIFIVE_FE310_G000__PLL_HANDLE */

void __metal_driver_sifive_fe310_g000_pll_init(struct __metal_driver_sifive_fe310_g000_pll *pll) {
200145de:	7139                	addi	sp,sp,-64
200145e0:	de06                	sw	ra,60(sp)
200145e2:	dc22                	sw	s0,56(sp)
200145e4:	0080                	addi	s0,sp,64
200145e6:	fca42623          	sw	a0,-52(s0)
E:/8.AWS-FreeRTOS-HiFive1/Workspace/sifive-hifive1-revb-i2c/freedom-metal/src/drivers/sifive_fe310-g000_pll.c:157
    struct metal_clock *pllref = __metal_driver_sifive_fe310_g000_pll_pllref(&(pll->clock));
200145ea:	fcc42783          	lw	a5,-52(s0)
200145ee:	853e                	mv	a0,a5
200145f0:	3de1                	jal	200144c8 <__metal_driver_sifive_fe310_g000_pll_pllref>
200145f2:	fea42623          	sw	a0,-20(s0)
E:/8.AWS-FreeRTOS-HiFive1/Workspace/sifive-hifive1-revb-i2c/freedom-metal/src/drivers/sifive_fe310-g000_pll.c:158
    long init_rate = __metal_driver_sifive_fe310_g000_pll_init_rate();
200145f6:	3f25                	jal	2001452e <__metal_driver_sifive_fe310_g000_pll_init_rate>
200145f8:	fea42423          	sw	a0,-24(s0)
E:/8.AWS-FreeRTOS-HiFive1/Workspace/sifive-hifive1-revb-i2c/freedom-metal/src/drivers/sifive_fe310-g000_pll.c:159
    long config_offset = __metal_driver_sifive_fe310_g000_pll_config_offset();
200145fc:	370d                	jal	2001451e <__metal_driver_sifive_fe310_g000_pll_config_offset>
200145fe:	fea42223          	sw	a0,-28(s0)
E:/8.AWS-FreeRTOS-HiFive1/Workspace/sifive-hifive1-revb-i2c/freedom-metal/src/drivers/sifive_fe310-g000_pll.c:160
    long base = __metal_driver_sifive_fe310_g000_prci_base();
20014602:	3789                	jal	20014544 <__metal_driver_sifive_fe310_g000_prci_base>
20014604:	fea42023          	sw	a0,-32(s0)
E:/8.AWS-FreeRTOS-HiFive1/Workspace/sifive-hifive1-revb-i2c/freedom-metal/src/drivers/sifive_fe310-g000_pll.c:162

    __metal_io_u32 *pllcfg = (__metal_io_u32 *) (base + config_offset);
20014608:	fe042703          	lw	a4,-32(s0)
2001460c:	fe442783          	lw	a5,-28(s0)
20014610:	97ba                	add	a5,a5,a4
20014612:	fcf42e23          	sw	a5,-36(s0)
E:/8.AWS-FreeRTOS-HiFive1/Workspace/sifive-hifive1-revb-i2c/freedom-metal/src/drivers/sifive_fe310-g000_pll.c:165

    /* If the PLL clock has had a _pre_rate_change_callback configured, call it */
    _metal_clock_call_all_callbacks(pll->clock._pre_rate_change_callback);
20014616:	fcc42783          	lw	a5,-52(s0)
2001461a:	43dc                	lw	a5,4(a5)
2001461c:	853e                	mv	a0,a5
2001461e:	588010ef          	jal	ra,20015ba6 <_metal_clock_call_all_callbacks>
E:/8.AWS-FreeRTOS-HiFive1/Workspace/sifive-hifive1-revb-i2c/freedom-metal/src/drivers/sifive_fe310-g000_pll.c:168

    /* If we're running off of the PLL, switch off before we start configuring it*/
    if((__METAL_ACCESS_ONCE(pllcfg) & PLL_SEL) == 0)
20014622:	fdc42783          	lw	a5,-36(s0)
20014626:	4398                	lw	a4,0(a5)
20014628:	67c1                	lui	a5,0x10
2001462a:	8ff9                	and	a5,a5,a4
2001462c:	eb91                	bnez	a5,20014640 <__metal_driver_sifive_fe310_g000_pll_init+0x62>
E:/8.AWS-FreeRTOS-HiFive1/Workspace/sifive-hifive1-revb-i2c/freedom-metal/src/drivers/sifive_fe310-g000_pll.c:169
        __METAL_ACCESS_ONCE(pllcfg) &= ~(PLL_SEL);
2001462e:	fdc42783          	lw	a5,-36(s0)
20014632:	4398                	lw	a4,0(a5)
20014634:	77c1                	lui	a5,0xffff0
20014636:	17fd                	addi	a5,a5,-1
20014638:	8f7d                	and	a4,a4,a5
2001463a:	fdc42783          	lw	a5,-36(s0)
2001463e:	c398                	sw	a4,0(a5)
E:/8.AWS-FreeRTOS-HiFive1/Workspace/sifive-hifive1-revb-i2c/freedom-metal/src/drivers/sifive_fe310-g000_pll.c:172

    /* Make sure we're running off of the external oscillator for stability */
    if(pllref != NULL)
20014640:	fec42783          	lw	a5,-20(s0)
20014644:	cb91                	beqz	a5,20014658 <__metal_driver_sifive_fe310_g000_pll_init+0x7a>
E:/8.AWS-FreeRTOS-HiFive1/Workspace/sifive-hifive1-revb-i2c/freedom-metal/src/drivers/sifive_fe310-g000_pll.c:173
        __METAL_ACCESS_ONCE(pllcfg) |= PLL_REFSEL;
20014646:	fdc42783          	lw	a5,-36(s0)
2001464a:	4398                	lw	a4,0(a5)
2001464c:	000207b7          	lui	a5,0x20
20014650:	8f5d                	or	a4,a4,a5
20014652:	fdc42783          	lw	a5,-36(s0)
20014656:	c398                	sw	a4,0(a5)
E:/8.AWS-FreeRTOS-HiFive1/Workspace/sifive-hifive1-revb-i2c/freedom-metal/src/drivers/sifive_fe310-g000_pll.c:178

    /* Configure the PLL to run at the requested init frequency.
     * Using the vtable instead of the user API because we want to control
     * when the callbacks occur. */
    pll->clock.vtable->set_rate_hz(&(pll->clock), init_rate);
20014658:	fcc42783          	lw	a5,-52(s0)
2001465c:	439c                	lw	a5,0(a5)
2001465e:	43d8                	lw	a4,4(a5)
20014660:	fcc42783          	lw	a5,-52(s0)
20014664:	fe842583          	lw	a1,-24(s0)
20014668:	853e                	mv	a0,a5
2001466a:	9702                	jalr	a4
E:/8.AWS-FreeRTOS-HiFive1/Workspace/sifive-hifive1-revb-i2c/freedom-metal/src/drivers/sifive_fe310-g000_pll.c:181

    /* If the PLL clock has had a rate_change_callback configured, call it */
    _metal_clock_call_all_callbacks(pll->clock._post_rate_change_callback);
2001466c:	fcc42783          	lw	a5,-52(s0)
20014670:	479c                	lw	a5,8(a5)
20014672:	853e                	mv	a0,a5
20014674:	532010ef          	jal	ra,20015ba6 <_metal_clock_call_all_callbacks>
E:/8.AWS-FreeRTOS-HiFive1/Workspace/sifive-hifive1-revb-i2c/freedom-metal/src/drivers/sifive_fe310-g000_pll.c:182
}
20014678:	0001                	nop
2001467a:	50f2                	lw	ra,60(sp)
2001467c:	5462                	lw	s0,56(sp)
2001467e:	6121                	addi	sp,sp,64
20014680:	8082                	ret

20014682 <__metal_driver_sifive_fe310_g000_pll_get_rate_hz>:
__metal_driver_sifive_fe310_g000_pll_get_rate_hz():
E:/8.AWS-FreeRTOS-HiFive1/Workspace/sifive-hifive1-revb-i2c/freedom-metal/src/drivers/sifive_fe310-g000_pll.c:185

long __metal_driver_sifive_fe310_g000_pll_get_rate_hz(const struct metal_clock *clock)
{
20014682:	711d                	addi	sp,sp,-96
20014684:	ce86                	sw	ra,92(sp)
20014686:	cca2                	sw	s0,88(sp)
20014688:	1080                	addi	s0,sp,96
2001468a:	faa42623          	sw	a0,-84(s0)
E:/8.AWS-FreeRTOS-HiFive1/Workspace/sifive-hifive1-revb-i2c/freedom-metal/src/drivers/sifive_fe310-g000_pll.c:186
    struct metal_clock *pllref = __metal_driver_sifive_fe310_g000_pll_pllref(clock);
2001468e:	fac42503          	lw	a0,-84(s0)
20014692:	3d1d                	jal	200144c8 <__metal_driver_sifive_fe310_g000_pll_pllref>
20014694:	fea42623          	sw	a0,-20(s0)
E:/8.AWS-FreeRTOS-HiFive1/Workspace/sifive-hifive1-revb-i2c/freedom-metal/src/drivers/sifive_fe310-g000_pll.c:187
    struct metal_clock *pllsel0 = __metal_driver_sifive_fe310_g000_pll_pllsel0(clock);
20014698:	fac42503          	lw	a0,-84(s0)
2001469c:	3d09                	jal	200144ae <__metal_driver_sifive_fe310_g000_pll_pllsel0>
2001469e:	fea42423          	sw	a0,-24(s0)
E:/8.AWS-FreeRTOS-HiFive1/Workspace/sifive-hifive1-revb-i2c/freedom-metal/src/drivers/sifive_fe310-g000_pll.c:188
    long config_offset = __metal_driver_sifive_fe310_g000_pll_config_offset(clock);
200146a2:	fac42503          	lw	a0,-84(s0)
200146a6:	3da5                	jal	2001451e <__metal_driver_sifive_fe310_g000_pll_config_offset>
200146a8:	fea42223          	sw	a0,-28(s0)
E:/8.AWS-FreeRTOS-HiFive1/Workspace/sifive-hifive1-revb-i2c/freedom-metal/src/drivers/sifive_fe310-g000_pll.c:190
    struct __metal_driver_sifive_fe310_g000_prci *config_base =
      __metal_driver_sifive_fe310_g000_pll_config_base(clock);
200146ac:	fac42503          	lw	a0,-84(s0)
200146b0:	3db1                	jal	2001450c <__metal_driver_sifive_fe310_g000_pll_config_base>
200146b2:	fea42023          	sw	a0,-32(s0)
E:/8.AWS-FreeRTOS-HiFive1/Workspace/sifive-hifive1-revb-i2c/freedom-metal/src/drivers/sifive_fe310-g000_pll.c:191
    long divider_offset = __metal_driver_sifive_fe310_g000_pll_divider_offset(clock);
200146b6:	fac42503          	lw	a0,-84(s0)
200146ba:	3d3d                	jal	200144f8 <__metal_driver_sifive_fe310_g000_pll_divider_offset>
200146bc:	fca42e23          	sw	a0,-36(s0)
E:/8.AWS-FreeRTOS-HiFive1/Workspace/sifive-hifive1-revb-i2c/freedom-metal/src/drivers/sifive_fe310-g000_pll.c:193
    struct __metal_driver_sifive_fe310_g000_prci *divider_base =
      __metal_driver_sifive_fe310_g000_pll_divider_base(clock);
200146c0:	fac42503          	lw	a0,-84(s0)
200146c4:	3d39                	jal	200144e2 <__metal_driver_sifive_fe310_g000_pll_divider_base>
200146c6:	fca42c23          	sw	a0,-40(s0)
E:/8.AWS-FreeRTOS-HiFive1/Workspace/sifive-hifive1-revb-i2c/freedom-metal/src/drivers/sifive_fe310-g000_pll.c:195
    const struct __metal_driver_vtable_sifive_fe310_g000_prci *vtable =
      __metal_driver_sifive_fe310_g000_prci_vtable();
200146ca:	3571                	jal	20014556 <__metal_driver_sifive_fe310_g000_prci_vtable>
200146cc:	fca42a23          	sw	a0,-44(s0)
E:/8.AWS-FreeRTOS-HiFive1/Workspace/sifive-hifive1-revb-i2c/freedom-metal/src/drivers/sifive_fe310-g000_pll.c:197

    long cfg = vtable->get_reg(config_base, config_offset);
200146d0:	fd442783          	lw	a5,-44(s0)
200146d4:	439c                	lw	a5,0(a5)
200146d6:	fe442583          	lw	a1,-28(s0)
200146da:	fe042503          	lw	a0,-32(s0)
200146de:	9782                	jalr	a5
200146e0:	fca42823          	sw	a0,-48(s0)
E:/8.AWS-FreeRTOS-HiFive1/Workspace/sifive-hifive1-revb-i2c/freedom-metal/src/drivers/sifive_fe310-g000_pll.c:198
    long div = vtable->get_reg(divider_base, divider_offset);
200146e4:	fd442783          	lw	a5,-44(s0)
200146e8:	439c                	lw	a5,0(a5)
200146ea:	fdc42583          	lw	a1,-36(s0)
200146ee:	fd842503          	lw	a0,-40(s0)
200146f2:	9782                	jalr	a5
200146f4:	fca42623          	sw	a0,-52(s0)
E:/8.AWS-FreeRTOS-HiFive1/Workspace/sifive-hifive1-revb-i2c/freedom-metal/src/drivers/sifive_fe310-g000_pll.c:202

    /* At the end of the PLL there's one big mux: it either selects the HFROSC
     * (bypassing the PLL entirely) or uses the PLL. */
    if (__METAL_GET_FIELD(cfg, PLL_SEL) == 0)
200146f8:	fd042703          	lw	a4,-48(s0)
200146fc:	67c1                	lui	a5,0x10
200146fe:	8f7d                	and	a4,a4,a5
20014700:	67c1                	lui	a5,0x10
20014702:	00f77863          	bgeu	a4,a5,20014712 <__metal_driver_sifive_fe310_g000_pll_get_rate_hz+0x90>
E:/8.AWS-FreeRTOS-HiFive1/Workspace/sifive-hifive1-revb-i2c/freedom-metal/src/drivers/sifive_fe310-g000_pll.c:203
        return metal_clock_get_rate_hz(pllsel0);
20014706:	fe842503          	lw	a0,-24(s0)
2001470a:	530010ef          	jal	ra,20015c3a <metal_clock_get_rate_hz>
2001470e:	87aa                	mv	a5,a0
20014710:	a8e1                	j	200147e8 <__metal_driver_sifive_fe310_g000_pll_get_rate_hz+0x166>
E:/8.AWS-FreeRTOS-HiFive1/Workspace/sifive-hifive1-revb-i2c/freedom-metal/src/drivers/sifive_fe310-g000_pll.c:207

    /* There's a clock mux before the PLL that selects between the HFROSC adn
     * the HFXOSC as the PLL's input clock. */
    long ref_hz = metal_clock_get_rate_hz(__METAL_GET_FIELD(cfg, PLL_REFSEL) ? pllref : pllsel0);
20014712:	fd042703          	lw	a4,-48(s0)
20014716:	000207b7          	lui	a5,0x20
2001471a:	8f7d                	and	a4,a4,a5
2001471c:	000207b7          	lui	a5,0x20
20014720:	00f76563          	bltu	a4,a5,2001472a <__metal_driver_sifive_fe310_g000_pll_get_rate_hz+0xa8>
E:/8.AWS-FreeRTOS-HiFive1/Workspace/sifive-hifive1-revb-i2c/freedom-metal/src/drivers/sifive_fe310-g000_pll.c:207 (discriminator 1)
20014724:	fec42783          	lw	a5,-20(s0)
20014728:	a019                	j	2001472e <__metal_driver_sifive_fe310_g000_pll_get_rate_hz+0xac>
E:/8.AWS-FreeRTOS-HiFive1/Workspace/sifive-hifive1-revb-i2c/freedom-metal/src/drivers/sifive_fe310-g000_pll.c:207 (discriminator 2)
2001472a:	fe842783          	lw	a5,-24(s0)
E:/8.AWS-FreeRTOS-HiFive1/Workspace/sifive-hifive1-revb-i2c/freedom-metal/src/drivers/sifive_fe310-g000_pll.c:207 (discriminator 4)
2001472e:	853e                	mv	a0,a5
20014730:	50a010ef          	jal	ra,20015c3a <metal_clock_get_rate_hz>
20014734:	fca42423          	sw	a0,-56(s0)
E:/8.AWS-FreeRTOS-HiFive1/Workspace/sifive-hifive1-revb-i2c/freedom-metal/src/drivers/sifive_fe310-g000_pll.c:211 (discriminator 4)

    /* It's possible to bypass the PLL, which is an internal bpyass.  This
     * still obays the PLL's input clock mu. */
    if (__METAL_GET_FIELD(cfg, PLL_BYPASS))
20014738:	fd042703          	lw	a4,-48(s0)
2001473c:	000407b7          	lui	a5,0x40
20014740:	8f7d                	and	a4,a4,a5
20014742:	000407b7          	lui	a5,0x40
20014746:	00f76563          	bltu	a4,a5,20014750 <__metal_driver_sifive_fe310_g000_pll_get_rate_hz+0xce>
E:/8.AWS-FreeRTOS-HiFive1/Workspace/sifive-hifive1-revb-i2c/freedom-metal/src/drivers/sifive_fe310-g000_pll.c:212
        return ref_hz;
2001474a:	fc842783          	lw	a5,-56(s0)
2001474e:	a869                	j	200147e8 <__metal_driver_sifive_fe310_g000_pll_get_rate_hz+0x166>
E:/8.AWS-FreeRTOS-HiFive1/Workspace/sifive-hifive1-revb-i2c/freedom-metal/src/drivers/sifive_fe310-g000_pll.c:215

    /* Logically the PLL is a three stage div-mul-div. */
    long div_r = __METAL_GET_FIELD(cfg, PLL_R) + 1;
20014750:	fd042783          	lw	a5,-48(s0)
20014754:	8b9d                	andi	a5,a5,7
20014756:	0785                	addi	a5,a5,1
20014758:	fcf42223          	sw	a5,-60(s0)
E:/8.AWS-FreeRTOS-HiFive1/Workspace/sifive-hifive1-revb-i2c/freedom-metal/src/drivers/sifive_fe310-g000_pll.c:216
    long mul_f = 2 * (__METAL_GET_FIELD(cfg, PLL_F) + 1);
2001475c:	fd042783          	lw	a5,-48(s0)
20014760:	3f07f793          	andi	a5,a5,1008
20014764:	8391                	srli	a5,a5,0x4
20014766:	0785                	addi	a5,a5,1
20014768:	0786                	slli	a5,a5,0x1
2001476a:	fcf42023          	sw	a5,-64(s0)
E:/8.AWS-FreeRTOS-HiFive1/Workspace/sifive-hifive1-revb-i2c/freedom-metal/src/drivers/sifive_fe310-g000_pll.c:217
    if (__METAL_GET_FIELD(cfg, PLL_Q) == 0)
2001476e:	fd042703          	lw	a4,-48(s0)
20014772:	6785                	lui	a5,0x1
20014774:	c0078793          	addi	a5,a5,-1024 # c00 <__heap_size+0x400>
20014778:	8f7d                	and	a4,a4,a5
2001477a:	3ff00793          	li	a5,1023
2001477e:	00e7e463          	bltu	a5,a4,20014786 <__metal_driver_sifive_fe310_g000_pll_get_rate_hz+0x104>
E:/8.AWS-FreeRTOS-HiFive1/Workspace/sifive-hifive1-revb-i2c/freedom-metal/src/drivers/sifive_fe310-g000_pll.c:218
        return -1;
20014782:	57fd                	li	a5,-1
20014784:	a095                	j	200147e8 <__metal_driver_sifive_fe310_g000_pll_get_rate_hz+0x166>
E:/8.AWS-FreeRTOS-HiFive1/Workspace/sifive-hifive1-revb-i2c/freedom-metal/src/drivers/sifive_fe310-g000_pll.c:219
    long div_q = 1 << __METAL_GET_FIELD(cfg, PLL_Q);
20014786:	fd042703          	lw	a4,-48(s0)
2001478a:	6785                	lui	a5,0x1
2001478c:	c0078793          	addi	a5,a5,-1024 # c00 <__heap_size+0x400>
20014790:	8ff9                	and	a5,a5,a4
20014792:	83a9                	srli	a5,a5,0xa
20014794:	4705                	li	a4,1
20014796:	00f717b3          	sll	a5,a4,a5
2001479a:	faf42e23          	sw	a5,-68(s0)
E:/8.AWS-FreeRTOS-HiFive1/Workspace/sifive-hifive1-revb-i2c/freedom-metal/src/drivers/sifive_fe310-g000_pll.c:224

    /* In addition to the dividers inherent in the PLL, there's an additional
     * clock divider that lives after the PLL and lets us pick a more
     * interesting range of frequencies. */
    long pllout = (((ref_hz / div_r) * mul_f) / div_q);
2001479e:	fc842703          	lw	a4,-56(s0)
200147a2:	fc442783          	lw	a5,-60(s0)
200147a6:	02f74733          	div	a4,a4,a5
200147aa:	fc042783          	lw	a5,-64(s0)
200147ae:	02f70733          	mul	a4,a4,a5
200147b2:	fbc42783          	lw	a5,-68(s0)
200147b6:	02f747b3          	div	a5,a4,a5
200147ba:	faf42c23          	sw	a5,-72(s0)
E:/8.AWS-FreeRTOS-HiFive1/Workspace/sifive-hifive1-revb-i2c/freedom-metal/src/drivers/sifive_fe310-g000_pll.c:225
    if (__METAL_GET_FIELD(div, DIV_1))
200147be:	fcc42783          	lw	a5,-52(s0)
200147c2:	1007f713          	andi	a4,a5,256
200147c6:	0ff00793          	li	a5,255
200147ca:	00e7f563          	bgeu	a5,a4,200147d4 <__metal_driver_sifive_fe310_g000_pll_get_rate_hz+0x152>
E:/8.AWS-FreeRTOS-HiFive1/Workspace/sifive-hifive1-revb-i2c/freedom-metal/src/drivers/sifive_fe310-g000_pll.c:226
        return pllout;
200147ce:	fb842783          	lw	a5,-72(s0)
200147d2:	a819                	j	200147e8 <__metal_driver_sifive_fe310_g000_pll_get_rate_hz+0x166>
E:/8.AWS-FreeRTOS-HiFive1/Workspace/sifive-hifive1-revb-i2c/freedom-metal/src/drivers/sifive_fe310-g000_pll.c:228

    return pllout / (2 * (__METAL_GET_FIELD(div, DIV_DIV) + 1));
200147d4:	fb842703          	lw	a4,-72(s0)
200147d8:	fcc42783          	lw	a5,-52(s0)
200147dc:	03f7f793          	andi	a5,a5,63
200147e0:	0785                	addi	a5,a5,1
200147e2:	0786                	slli	a5,a5,0x1
200147e4:	02f757b3          	divu	a5,a4,a5
E:/8.AWS-FreeRTOS-HiFive1/Workspace/sifive-hifive1-revb-i2c/freedom-metal/src/drivers/sifive_fe310-g000_pll.c:229
}
200147e8:	853e                	mv	a0,a5
200147ea:	40f6                	lw	ra,92(sp)
200147ec:	4466                	lw	s0,88(sp)
200147ee:	6125                	addi	sp,sp,96
200147f0:	8082                	ret

200147f2 <find_closest_config>:
find_closest_config():
E:/8.AWS-FreeRTOS-HiFive1/Workspace/sifive-hifive1-revb-i2c/freedom-metal/src/drivers/sifive_fe310-g000_pll.c:240
 *  - rate desired PLL output frequency
 * Returns:
 *  -1 if no valid configuration is available
 *  the index into pll_configs of a valid configuration */
static int find_closest_config(long ref_hz, long rate)
{
200147f2:	7139                	addi	sp,sp,-64
200147f4:	de06                	sw	ra,60(sp)
200147f6:	dc22                	sw	s0,56(sp)
200147f8:	0080                	addi	s0,sp,64
200147fa:	fca42623          	sw	a0,-52(s0)
200147fe:	fcb42423          	sw	a1,-56(s0)
E:/8.AWS-FreeRTOS-HiFive1/Workspace/sifive-hifive1-revb-i2c/freedom-metal/src/drivers/sifive_fe310-g000_pll.c:241
    int closest_index = -1;
20014802:	57fd                	li	a5,-1
20014804:	fef42623          	sw	a5,-20(s0)
E:/8.AWS-FreeRTOS-HiFive1/Workspace/sifive-hifive1-revb-i2c/freedom-metal/src/drivers/sifive_fe310-g000_pll.c:242
    long closest_diff = LONG_MAX;
20014808:	800007b7          	lui	a5,0x80000
2001480c:	fff7c793          	not	a5,a5
20014810:	fef42423          	sw	a5,-24(s0)
E:/8.AWS-FreeRTOS-HiFive1/Workspace/sifive-hifive1-revb-i2c/freedom-metal/src/drivers/sifive_fe310-g000_pll.c:246

    /* We're probably trying for a fast output frequency, so start from
     * the high end of the configs. */
    for(int i = (sizeof(pll_configs) / sizeof(pll_configs[0])) - 1; i >= 0; i--)
20014814:	04300793          	li	a5,67
20014818:	fef42223          	sw	a5,-28(s0)
2001481c:	a0b5                	j	20014888 <find_closest_config+0x96>
E:/8.AWS-FreeRTOS-HiFive1/Workspace/sifive-hifive1-revb-i2c/freedom-metal/src/drivers/sifive_fe310-g000_pll.c:248
    {
        long config_freq = get_pll_config_freq(ref_hz, &(pll_configs[i]));
2001481e:	fcc42683          	lw	a3,-52(s0)
20014822:	fe442783          	lw	a5,-28(s0)
20014826:	00579713          	slli	a4,a5,0x5
2001482a:	200177b7          	lui	a5,0x20017
2001482e:	27c78793          	addi	a5,a5,636 # 2001727c <pll_configs>
20014832:	97ba                	add	a5,a5,a4
20014834:	85be                	mv	a1,a5
20014836:	8536                	mv	a0,a3
20014838:	d31ff0ef          	jal	ra,20014568 <get_pll_config_freq>
2001483c:	fea42023          	sw	a0,-32(s0)
E:/8.AWS-FreeRTOS-HiFive1/Workspace/sifive-hifive1-revb-i2c/freedom-metal/src/drivers/sifive_fe310-g000_pll.c:249
        if(config_freq != PLL_CONFIG_NOT_VALID)
20014840:	fe042703          	lw	a4,-32(s0)
20014844:	57fd                	li	a5,-1
20014846:	02f70c63          	beq	a4,a5,2001487e <find_closest_config+0x8c>
E:/8.AWS-FreeRTOS-HiFive1/Workspace/sifive-hifive1-revb-i2c/freedom-metal/src/drivers/sifive_fe310-g000_pll.c:251
        {
            long freq_diff = abs(config_freq - rate);
2001484a:	fe042703          	lw	a4,-32(s0)
2001484e:	fc842783          	lw	a5,-56(s0)
20014852:	8f1d                	sub	a4,a4,a5
20014854:	41f75793          	srai	a5,a4,0x1f
20014858:	8f3d                	xor	a4,a4,a5
2001485a:	40f707b3          	sub	a5,a4,a5
2001485e:	fcf42e23          	sw	a5,-36(s0)
E:/8.AWS-FreeRTOS-HiFive1/Workspace/sifive-hifive1-revb-i2c/freedom-metal/src/drivers/sifive_fe310-g000_pll.c:252
            if(freq_diff < closest_diff)
20014862:	fdc42703          	lw	a4,-36(s0)
20014866:	fe842783          	lw	a5,-24(s0)
2001486a:	00f75a63          	bge	a4,a5,2001487e <find_closest_config+0x8c>
E:/8.AWS-FreeRTOS-HiFive1/Workspace/sifive-hifive1-revb-i2c/freedom-metal/src/drivers/sifive_fe310-g000_pll.c:254
            {
                closest_index = i;
2001486e:	fe442783          	lw	a5,-28(s0)
20014872:	fef42623          	sw	a5,-20(s0)
E:/8.AWS-FreeRTOS-HiFive1/Workspace/sifive-hifive1-revb-i2c/freedom-metal/src/drivers/sifive_fe310-g000_pll.c:255
                closest_diff = freq_diff;
20014876:	fdc42783          	lw	a5,-36(s0)
2001487a:	fef42423          	sw	a5,-24(s0)
E:/8.AWS-FreeRTOS-HiFive1/Workspace/sifive-hifive1-revb-i2c/freedom-metal/src/drivers/sifive_fe310-g000_pll.c:246 (discriminator 2)
    for(int i = (sizeof(pll_configs) / sizeof(pll_configs[0])) - 1; i >= 0; i--)
2001487e:	fe442783          	lw	a5,-28(s0)
20014882:	17fd                	addi	a5,a5,-1
20014884:	fef42223          	sw	a5,-28(s0)
E:/8.AWS-FreeRTOS-HiFive1/Workspace/sifive-hifive1-revb-i2c/freedom-metal/src/drivers/sifive_fe310-g000_pll.c:246 (discriminator 1)
20014888:	fe442783          	lw	a5,-28(s0)
2001488c:	f807d9e3          	bgez	a5,2001481e <find_closest_config+0x2c>
E:/8.AWS-FreeRTOS-HiFive1/Workspace/sifive-hifive1-revb-i2c/freedom-metal/src/drivers/sifive_fe310-g000_pll.c:260
            }
        }
    }

    return closest_index;
20014890:	fec42783          	lw	a5,-20(s0)
E:/8.AWS-FreeRTOS-HiFive1/Workspace/sifive-hifive1-revb-i2c/freedom-metal/src/drivers/sifive_fe310-g000_pll.c:261
}
20014894:	853e                	mv	a0,a5
20014896:	50f2                	lw	ra,60(sp)
20014898:	5462                	lw	s0,56(sp)
2001489a:	6121                	addi	sp,sp,64
2001489c:	8082                	ret

2001489e <configure_pll>:
configure_pll():
E:/8.AWS-FreeRTOS-HiFive1/Workspace/sifive-hifive1-revb-i2c/freedom-metal/src/drivers/sifive_fe310-g000_pll.c:265

/* Configure the PLL and wait for it to lock */
static void configure_pll(__metal_io_u32 *pllcfg, __metal_io_u32 *plloutdiv, const struct pll_config_t *config)
{
2001489e:	1101                	addi	sp,sp,-32
200148a0:	ce22                	sw	s0,28(sp)
200148a2:	1000                	addi	s0,sp,32
200148a4:	fea42623          	sw	a0,-20(s0)
200148a8:	feb42423          	sw	a1,-24(s0)
200148ac:	fec42223          	sw	a2,-28(s0)
E:/8.AWS-FreeRTOS-HiFive1/Workspace/sifive-hifive1-revb-i2c/freedom-metal/src/drivers/sifive_fe310-g000_pll.c:266
    __METAL_ACCESS_ONCE(pllcfg) &= ~(PLL_R);
200148b0:	fec42783          	lw	a5,-20(s0)
200148b4:	439c                	lw	a5,0(a5)
200148b6:	ff87f713          	andi	a4,a5,-8
200148ba:	fec42783          	lw	a5,-20(s0)
200148be:	c398                	sw	a4,0(a5)
E:/8.AWS-FreeRTOS-HiFive1/Workspace/sifive-hifive1-revb-i2c/freedom-metal/src/drivers/sifive_fe310-g000_pll.c:267
    __METAL_ACCESS_ONCE(pllcfg) |= PLL_R_SHIFT(config->r);
200148c0:	fec42783          	lw	a5,-20(s0)
200148c4:	4398                	lw	a4,0(a5)
200148c6:	fe442783          	lw	a5,-28(s0)
200148ca:	4b9c                	lw	a5,16(a5)
200148cc:	8b9d                	andi	a5,a5,7
200148ce:	8f5d                	or	a4,a4,a5
200148d0:	fec42783          	lw	a5,-20(s0)
200148d4:	c398                	sw	a4,0(a5)
E:/8.AWS-FreeRTOS-HiFive1/Workspace/sifive-hifive1-revb-i2c/freedom-metal/src/drivers/sifive_fe310-g000_pll.c:269

    __METAL_ACCESS_ONCE(pllcfg) &= ~(PLL_F);
200148d6:	fec42783          	lw	a5,-20(s0)
200148da:	439c                	lw	a5,0(a5)
200148dc:	c0f7f713          	andi	a4,a5,-1009
200148e0:	fec42783          	lw	a5,-20(s0)
200148e4:	c398                	sw	a4,0(a5)
E:/8.AWS-FreeRTOS-HiFive1/Workspace/sifive-hifive1-revb-i2c/freedom-metal/src/drivers/sifive_fe310-g000_pll.c:270
    __METAL_ACCESS_ONCE(pllcfg) |= PLL_F_SHIFT(config->f);
200148e6:	fec42783          	lw	a5,-20(s0)
200148ea:	4398                	lw	a4,0(a5)
200148ec:	fe442783          	lw	a5,-28(s0)
200148f0:	4bdc                	lw	a5,20(a5)
200148f2:	0792                	slli	a5,a5,0x4
200148f4:	3f07f793          	andi	a5,a5,1008
200148f8:	8f5d                	or	a4,a4,a5
200148fa:	fec42783          	lw	a5,-20(s0)
200148fe:	c398                	sw	a4,0(a5)
E:/8.AWS-FreeRTOS-HiFive1/Workspace/sifive-hifive1-revb-i2c/freedom-metal/src/drivers/sifive_fe310-g000_pll.c:272

    __METAL_ACCESS_ONCE(pllcfg) &= ~(PLL_Q);
20014900:	fec42783          	lw	a5,-20(s0)
20014904:	4398                	lw	a4,0(a5)
20014906:	77fd                	lui	a5,0xfffff
20014908:	3ff78793          	addi	a5,a5,1023 # fffff3ff <metal_segment_heap_target_end+0x7fffdc8f>
2001490c:	8f7d                	and	a4,a4,a5
2001490e:	fec42783          	lw	a5,-20(s0)
20014912:	c398                	sw	a4,0(a5)
E:/8.AWS-FreeRTOS-HiFive1/Workspace/sifive-hifive1-revb-i2c/freedom-metal/src/drivers/sifive_fe310-g000_pll.c:273
    __METAL_ACCESS_ONCE(pllcfg) |= PLL_Q_SHIFT(config->q);
20014914:	fec42783          	lw	a5,-20(s0)
20014918:	4398                	lw	a4,0(a5)
2001491a:	fe442783          	lw	a5,-28(s0)
2001491e:	4f9c                	lw	a5,24(a5)
20014920:	00a79693          	slli	a3,a5,0xa
20014924:	6785                	lui	a5,0x1
20014926:	c0078793          	addi	a5,a5,-1024 # c00 <__heap_size+0x400>
2001492a:	8ff5                	and	a5,a5,a3
2001492c:	8f5d                	or	a4,a4,a5
2001492e:	fec42783          	lw	a5,-20(s0)
20014932:	c398                	sw	a4,0(a5)
E:/8.AWS-FreeRTOS-HiFive1/Workspace/sifive-hifive1-revb-i2c/freedom-metal/src/drivers/sifive_fe310-g000_pll.c:275

    if(config->d < 0)
20014934:	fe442783          	lw	a5,-28(s0)
20014938:	4fdc                	lw	a5,28(a5)
2001493a:	0207db63          	bgez	a5,20014970 <configure_pll+0xd2>
E:/8.AWS-FreeRTOS-HiFive1/Workspace/sifive-hifive1-revb-i2c/freedom-metal/src/drivers/sifive_fe310-g000_pll.c:278
    {
        /* disable final divider */
        __METAL_ACCESS_ONCE(plloutdiv) |= DIV_1;
2001493e:	fe842783          	lw	a5,-24(s0)
20014942:	439c                	lw	a5,0(a5)
20014944:	1007e713          	ori	a4,a5,256
20014948:	fe842783          	lw	a5,-24(s0)
2001494c:	c398                	sw	a4,0(a5)
E:/8.AWS-FreeRTOS-HiFive1/Workspace/sifive-hifive1-revb-i2c/freedom-metal/src/drivers/sifive_fe310-g000_pll.c:280

        __METAL_ACCESS_ONCE(plloutdiv) &= ~(DIV_DIV);
2001494e:	fe842783          	lw	a5,-24(s0)
20014952:	439c                	lw	a5,0(a5)
20014954:	fc07f713          	andi	a4,a5,-64
20014958:	fe842783          	lw	a5,-24(s0)
2001495c:	c398                	sw	a4,0(a5)
E:/8.AWS-FreeRTOS-HiFive1/Workspace/sifive-hifive1-revb-i2c/freedom-metal/src/drivers/sifive_fe310-g000_pll.c:281
        __METAL_ACCESS_ONCE(plloutdiv) |= PLL_DIV_SHIFT(1);
2001495e:	fe842783          	lw	a5,-24(s0)
20014962:	439c                	lw	a5,0(a5)
20014964:	0017e713          	ori	a4,a5,1
20014968:	fe842783          	lw	a5,-24(s0)
2001496c:	c398                	sw	a4,0(a5)
2001496e:	a82d                	j	200149a8 <configure_pll+0x10a>
E:/8.AWS-FreeRTOS-HiFive1/Workspace/sifive-hifive1-revb-i2c/freedom-metal/src/drivers/sifive_fe310-g000_pll.c:285
    }
    else
    {
        __METAL_ACCESS_ONCE(plloutdiv) &= ~(DIV_1);
20014970:	fe842783          	lw	a5,-24(s0)
20014974:	439c                	lw	a5,0(a5)
20014976:	eff7f713          	andi	a4,a5,-257
2001497a:	fe842783          	lw	a5,-24(s0)
2001497e:	c398                	sw	a4,0(a5)
E:/8.AWS-FreeRTOS-HiFive1/Workspace/sifive-hifive1-revb-i2c/freedom-metal/src/drivers/sifive_fe310-g000_pll.c:287

        __METAL_ACCESS_ONCE(plloutdiv) &= ~(DIV_DIV);
20014980:	fe842783          	lw	a5,-24(s0)
20014984:	439c                	lw	a5,0(a5)
20014986:	fc07f713          	andi	a4,a5,-64
2001498a:	fe842783          	lw	a5,-24(s0)
2001498e:	c398                	sw	a4,0(a5)
E:/8.AWS-FreeRTOS-HiFive1/Workspace/sifive-hifive1-revb-i2c/freedom-metal/src/drivers/sifive_fe310-g000_pll.c:288
        __METAL_ACCESS_ONCE(plloutdiv) |= PLL_DIV_SHIFT(config->d);
20014990:	fe842783          	lw	a5,-24(s0)
20014994:	4398                	lw	a4,0(a5)
20014996:	fe442783          	lw	a5,-28(s0)
2001499a:	4fdc                	lw	a5,28(a5)
2001499c:	03f7f793          	andi	a5,a5,63
200149a0:	8f5d                	or	a4,a4,a5
200149a2:	fe842783          	lw	a5,-24(s0)
200149a6:	c398                	sw	a4,0(a5)
E:/8.AWS-FreeRTOS-HiFive1/Workspace/sifive-hifive1-revb-i2c/freedom-metal/src/drivers/sifive_fe310-g000_pll.c:291
    }

    __METAL_ACCESS_ONCE(pllcfg) &= ~(PLL_BYPASS);
200149a8:	fec42783          	lw	a5,-20(s0)
200149ac:	4398                	lw	a4,0(a5)
200149ae:	fffc07b7          	lui	a5,0xfffc0
200149b2:	17fd                	addi	a5,a5,-1
200149b4:	8f7d                	and	a4,a4,a5
200149b6:	fec42783          	lw	a5,-20(s0)
200149ba:	c398                	sw	a4,0(a5)
E:/8.AWS-FreeRTOS-HiFive1/Workspace/sifive-hifive1-revb-i2c/freedom-metal/src/drivers/sifive_fe310-g000_pll.c:294

    /* Wait for PLL to lock */
    while((__METAL_ACCESS_ONCE(pllcfg) & PLL_LOCK) == 0) ;
200149bc:	0001                	nop
E:/8.AWS-FreeRTOS-HiFive1/Workspace/sifive-hifive1-revb-i2c/freedom-metal/src/drivers/sifive_fe310-g000_pll.c:294 (discriminator 1)
200149be:	fec42783          	lw	a5,-20(s0)
200149c2:	439c                	lw	a5,0(a5)
200149c4:	fe07dde3          	bgez	a5,200149be <configure_pll+0x120>
E:/8.AWS-FreeRTOS-HiFive1/Workspace/sifive-hifive1-revb-i2c/freedom-metal/src/drivers/sifive_fe310-g000_pll.c:295
}
200149c8:	0001                	nop
200149ca:	4472                	lw	s0,28(sp)
200149cc:	6105                	addi	sp,sp,32
200149ce:	8082                	ret

200149d0 <__metal_driver_sifive_fe310_g000_pll_set_rate_hz>:
__metal_driver_sifive_fe310_g000_pll_set_rate_hz():
E:/8.AWS-FreeRTOS-HiFive1/Workspace/sifive-hifive1-revb-i2c/freedom-metal/src/drivers/sifive_fe310-g000_pll.c:298

long __metal_driver_sifive_fe310_g000_pll_set_rate_hz(struct metal_clock *clock, long rate)
{
200149d0:	715d                	addi	sp,sp,-80
200149d2:	c686                	sw	ra,76(sp)
200149d4:	c4a2                	sw	s0,72(sp)
200149d6:	0880                	addi	s0,sp,80
200149d8:	faa42e23          	sw	a0,-68(s0)
200149dc:	fab42c23          	sw	a1,-72(s0)
E:/8.AWS-FreeRTOS-HiFive1/Workspace/sifive-hifive1-revb-i2c/freedom-metal/src/drivers/sifive_fe310-g000_pll.c:299
    struct metal_clock *pllref = __metal_driver_sifive_fe310_g000_pll_pllref(clock);
200149e0:	fbc42503          	lw	a0,-68(s0)
200149e4:	ae5ff0ef          	jal	ra,200144c8 <__metal_driver_sifive_fe310_g000_pll_pllref>
200149e8:	fea42623          	sw	a0,-20(s0)
E:/8.AWS-FreeRTOS-HiFive1/Workspace/sifive-hifive1-revb-i2c/freedom-metal/src/drivers/sifive_fe310-g000_pll.c:300
    struct metal_clock *pllsel0 = __metal_driver_sifive_fe310_g000_pll_pllsel0(clock);
200149ec:	fbc42503          	lw	a0,-68(s0)
200149f0:	abfff0ef          	jal	ra,200144ae <__metal_driver_sifive_fe310_g000_pll_pllsel0>
200149f4:	fea42423          	sw	a0,-24(s0)
E:/8.AWS-FreeRTOS-HiFive1/Workspace/sifive-hifive1-revb-i2c/freedom-metal/src/drivers/sifive_fe310-g000_pll.c:301
    long config_offset = __metal_driver_sifive_fe310_g000_pll_config_offset(clock);
200149f8:	fbc42503          	lw	a0,-68(s0)
200149fc:	b23ff0ef          	jal	ra,2001451e <__metal_driver_sifive_fe310_g000_pll_config_offset>
20014a00:	fea42223          	sw	a0,-28(s0)
E:/8.AWS-FreeRTOS-HiFive1/Workspace/sifive-hifive1-revb-i2c/freedom-metal/src/drivers/sifive_fe310-g000_pll.c:302
    long divider_offset = __metal_driver_sifive_fe310_g000_pll_divider_offset(clock);
20014a04:	fbc42503          	lw	a0,-68(s0)
20014a08:	af1ff0ef          	jal	ra,200144f8 <__metal_driver_sifive_fe310_g000_pll_divider_offset>
20014a0c:	fea42023          	sw	a0,-32(s0)
E:/8.AWS-FreeRTOS-HiFive1/Workspace/sifive-hifive1-revb-i2c/freedom-metal/src/drivers/sifive_fe310-g000_pll.c:303
    long base = __metal_driver_sifive_fe310_g000_prci_base();
20014a10:	b35ff0ef          	jal	ra,20014544 <__metal_driver_sifive_fe310_g000_prci_base>
20014a14:	fca42e23          	sw	a0,-36(s0)
E:/8.AWS-FreeRTOS-HiFive1/Workspace/sifive-hifive1-revb-i2c/freedom-metal/src/drivers/sifive_fe310-g000_pll.c:305

    __metal_io_u32 *pllcfg = (__metal_io_u32 *) (base + config_offset);
20014a18:	fdc42703          	lw	a4,-36(s0)
20014a1c:	fe442783          	lw	a5,-28(s0)
20014a20:	97ba                	add	a5,a5,a4
20014a22:	fcf42c23          	sw	a5,-40(s0)
E:/8.AWS-FreeRTOS-HiFive1/Workspace/sifive-hifive1-revb-i2c/freedom-metal/src/drivers/sifive_fe310-g000_pll.c:306
    __metal_io_u32 *plloutdiv = (__metal_io_u32 *) (base + divider_offset);
20014a26:	fdc42703          	lw	a4,-36(s0)
20014a2a:	fe042783          	lw	a5,-32(s0)
20014a2e:	97ba                	add	a5,a5,a4
20014a30:	fcf42a23          	sw	a5,-44(s0)
E:/8.AWS-FreeRTOS-HiFive1/Workspace/sifive-hifive1-revb-i2c/freedom-metal/src/drivers/sifive_fe310-g000_pll.c:309

    /* We can't modify the PLL if coreclk is driven by it, so switch it off */
    if (__METAL_ACCESS_ONCE(pllcfg) & PLL_SEL)
20014a34:	fd842783          	lw	a5,-40(s0)
20014a38:	4398                	lw	a4,0(a5)
20014a3a:	67c1                	lui	a5,0x10
20014a3c:	8ff9                	and	a5,a5,a4
20014a3e:	cb91                	beqz	a5,20014a52 <__metal_driver_sifive_fe310_g000_pll_set_rate_hz+0x82>
E:/8.AWS-FreeRTOS-HiFive1/Workspace/sifive-hifive1-revb-i2c/freedom-metal/src/drivers/sifive_fe310-g000_pll.c:310
        __METAL_ACCESS_ONCE(pllcfg) &= ~(PLL_SEL);
20014a40:	fd842783          	lw	a5,-40(s0)
20014a44:	4398                	lw	a4,0(a5)
20014a46:	77c1                	lui	a5,0xffff0
20014a48:	17fd                	addi	a5,a5,-1
20014a4a:	8f7d                	and	a4,a4,a5
20014a4c:	fd842783          	lw	a5,-40(s0)
20014a50:	c398                	sw	a4,0(a5)
E:/8.AWS-FreeRTOS-HiFive1/Workspace/sifive-hifive1-revb-i2c/freedom-metal/src/drivers/sifive_fe310-g000_pll.c:314

    /* There's a clock mux before the PLL that selects between the HFROSC and
     * the HFXOSC as the PLL's input clock. */
    long ref_hz = metal_clock_get_rate_hz(__METAL_ACCESS_ONCE(pllcfg) & PLL_REFSEL ? pllref : pllsel0);
20014a52:	fd842783          	lw	a5,-40(s0)
20014a56:	4398                	lw	a4,0(a5)
20014a58:	000207b7          	lui	a5,0x20
20014a5c:	8ff9                	and	a5,a5,a4
20014a5e:	c781                	beqz	a5,20014a66 <__metal_driver_sifive_fe310_g000_pll_set_rate_hz+0x96>
E:/8.AWS-FreeRTOS-HiFive1/Workspace/sifive-hifive1-revb-i2c/freedom-metal/src/drivers/sifive_fe310-g000_pll.c:314 (discriminator 1)
20014a60:	fec42783          	lw	a5,-20(s0)
20014a64:	a019                	j	20014a6a <__metal_driver_sifive_fe310_g000_pll_set_rate_hz+0x9a>
E:/8.AWS-FreeRTOS-HiFive1/Workspace/sifive-hifive1-revb-i2c/freedom-metal/src/drivers/sifive_fe310-g000_pll.c:314 (discriminator 2)
20014a66:	fe842783          	lw	a5,-24(s0)
E:/8.AWS-FreeRTOS-HiFive1/Workspace/sifive-hifive1-revb-i2c/freedom-metal/src/drivers/sifive_fe310-g000_pll.c:314 (discriminator 4)
20014a6a:	853e                	mv	a0,a5
20014a6c:	1ce010ef          	jal	ra,20015c3a <metal_clock_get_rate_hz>
20014a70:	fca42823          	sw	a0,-48(s0)
E:/8.AWS-FreeRTOS-HiFive1/Workspace/sifive-hifive1-revb-i2c/freedom-metal/src/drivers/sifive_fe310-g000_pll.c:317 (discriminator 4)

    /* if the desired rate is within 75%-125% of the input clock, bypass the PLL */
    if((ref_hz * 3 / 4) <= rate && (ref_hz * 5 / 4) >= rate)
20014a74:	fd042703          	lw	a4,-48(s0)
20014a78:	87ba                	mv	a5,a4
20014a7a:	0786                	slli	a5,a5,0x1
20014a7c:	97ba                	add	a5,a5,a4
20014a7e:	41f7d713          	srai	a4,a5,0x1f
20014a82:	8b0d                	andi	a4,a4,3
20014a84:	97ba                	add	a5,a5,a4
20014a86:	8789                	srai	a5,a5,0x2
20014a88:	873e                	mv	a4,a5
20014a8a:	fb842783          	lw	a5,-72(s0)
20014a8e:	02e7cb63          	blt	a5,a4,20014ac4 <__metal_driver_sifive_fe310_g000_pll_set_rate_hz+0xf4>
E:/8.AWS-FreeRTOS-HiFive1/Workspace/sifive-hifive1-revb-i2c/freedom-metal/src/drivers/sifive_fe310-g000_pll.c:317 (discriminator 1)
20014a92:	fd042703          	lw	a4,-48(s0)
20014a96:	87ba                	mv	a5,a4
20014a98:	078a                	slli	a5,a5,0x2
20014a9a:	97ba                	add	a5,a5,a4
20014a9c:	41f7d713          	srai	a4,a5,0x1f
20014aa0:	8b0d                	andi	a4,a4,3
20014aa2:	97ba                	add	a5,a5,a4
20014aa4:	8789                	srai	a5,a5,0x2
20014aa6:	873e                	mv	a4,a5
20014aa8:	fb842783          	lw	a5,-72(s0)
20014aac:	00f74c63          	blt	a4,a5,20014ac4 <__metal_driver_sifive_fe310_g000_pll_set_rate_hz+0xf4>
E:/8.AWS-FreeRTOS-HiFive1/Workspace/sifive-hifive1-revb-i2c/freedom-metal/src/drivers/sifive_fe310-g000_pll.c:319
    {
        __METAL_ACCESS_ONCE(pllcfg) |= PLL_BYPASS;
20014ab0:	fd842783          	lw	a5,-40(s0)
20014ab4:	4398                	lw	a4,0(a5)
20014ab6:	000407b7          	lui	a5,0x40
20014aba:	8f5d                	or	a4,a4,a5
20014abc:	fd842783          	lw	a5,-40(s0)
20014ac0:	c398                	sw	a4,0(a5)
20014ac2:	a881                	j	20014b12 <__metal_driver_sifive_fe310_g000_pll_set_rate_hz+0x142>
E:/8.AWS-FreeRTOS-HiFive1/Workspace/sifive-hifive1-revb-i2c/freedom-metal/src/drivers/sifive_fe310-g000_pll.c:323
    }
    else
    {
        int config_index = find_closest_config(ref_hz, rate);
20014ac4:	fb842583          	lw	a1,-72(s0)
20014ac8:	fd042503          	lw	a0,-48(s0)
20014acc:	d27ff0ef          	jal	ra,200147f2 <find_closest_config>
20014ad0:	fca42623          	sw	a0,-52(s0)
E:/8.AWS-FreeRTOS-HiFive1/Workspace/sifive-hifive1-revb-i2c/freedom-metal/src/drivers/sifive_fe310-g000_pll.c:324
        if(config_index != -1)
20014ad4:	fcc42703          	lw	a4,-52(s0)
20014ad8:	57fd                	li	a5,-1
20014ada:	02f70363          	beq	a4,a5,20014b00 <__metal_driver_sifive_fe310_g000_pll_set_rate_hz+0x130>
E:/8.AWS-FreeRTOS-HiFive1/Workspace/sifive-hifive1-revb-i2c/freedom-metal/src/drivers/sifive_fe310-g000_pll.c:326
        {
            configure_pll(pllcfg, plloutdiv, &(pll_configs[config_index]));
20014ade:	fcc42783          	lw	a5,-52(s0)
20014ae2:	00579713          	slli	a4,a5,0x5
20014ae6:	200177b7          	lui	a5,0x20017
20014aea:	27c78793          	addi	a5,a5,636 # 2001727c <pll_configs>
20014aee:	97ba                	add	a5,a5,a4
20014af0:	863e                	mv	a2,a5
20014af2:	fd442583          	lw	a1,-44(s0)
20014af6:	fd842503          	lw	a0,-40(s0)
20014afa:	da5ff0ef          	jal	ra,2001489e <configure_pll>
20014afe:	a811                	j	20014b12 <__metal_driver_sifive_fe310_g000_pll_set_rate_hz+0x142>
E:/8.AWS-FreeRTOS-HiFive1/Workspace/sifive-hifive1-revb-i2c/freedom-metal/src/drivers/sifive_fe310-g000_pll.c:331
        }
        else
        {
            /* unable to find a valid configuration */
            __METAL_ACCESS_ONCE(pllcfg) |= PLL_BYPASS;
20014b00:	fd842783          	lw	a5,-40(s0)
20014b04:	4398                	lw	a4,0(a5)
20014b06:	000407b7          	lui	a5,0x40
20014b0a:	8f5d                	or	a4,a4,a5
20014b0c:	fd842783          	lw	a5,-40(s0)
20014b10:	c398                	sw	a4,0(a5)
E:/8.AWS-FreeRTOS-HiFive1/Workspace/sifive-hifive1-revb-i2c/freedom-metal/src/drivers/sifive_fe310-g000_pll.c:336
        }
    }

    /* Enable the PLL */
    __METAL_ACCESS_ONCE(pllcfg) |= PLL_SEL;
20014b12:	fd842783          	lw	a5,-40(s0)
20014b16:	4398                	lw	a4,0(a5)
20014b18:	67c1                	lui	a5,0x10
20014b1a:	8f5d                	or	a4,a4,a5
20014b1c:	fd842783          	lw	a5,-40(s0)
20014b20:	c398                	sw	a4,0(a5)
E:/8.AWS-FreeRTOS-HiFive1/Workspace/sifive-hifive1-revb-i2c/freedom-metal/src/drivers/sifive_fe310-g000_pll.c:338

    return __metal_driver_sifive_fe310_g000_pll_get_rate_hz(clock);
20014b22:	fbc42503          	lw	a0,-68(s0)
20014b26:	b5dff0ef          	jal	ra,20014682 <__metal_driver_sifive_fe310_g000_pll_get_rate_hz>
20014b2a:	87aa                	mv	a5,a0
E:/8.AWS-FreeRTOS-HiFive1/Workspace/sifive-hifive1-revb-i2c/freedom-metal/src/drivers/sifive_fe310-g000_pll.c:339
}
20014b2c:	853e                	mv	a0,a5
20014b2e:	40b6                	lw	ra,76(sp)
20014b30:	4426                	lw	s0,72(sp)
20014b32:	6161                	addi	sp,sp,80
20014b34:	8082                	ret

20014b36 <use_hfxosc>:
use_hfxosc():
E:/8.AWS-FreeRTOS-HiFive1/Workspace/sifive-hifive1-revb-i2c/freedom-metal/src/drivers/sifive_fe310-g000_pll.c:344

#ifdef __METAL_DT_SIFIVE_FE310_G000_PLL_HANDLE
static void use_hfxosc(void) __attribute__((constructor));
static void use_hfxosc(void)
{
20014b36:	1101                	addi	sp,sp,-32
20014b38:	ce06                	sw	ra,28(sp)
20014b3a:	cc22                	sw	s0,24(sp)
20014b3c:	1000                	addi	s0,sp,32
E:/8.AWS-FreeRTOS-HiFive1/Workspace/sifive-hifive1-revb-i2c/freedom-metal/src/drivers/sifive_fe310-g000_pll.c:345
    long init_rate = __metal_driver_sifive_fe310_g000_pll_init_rate();
20014b3e:	9f1ff0ef          	jal	ra,2001452e <__metal_driver_sifive_fe310_g000_pll_init_rate>
20014b42:	fea42623          	sw	a0,-20(s0)
E:/8.AWS-FreeRTOS-HiFive1/Workspace/sifive-hifive1-revb-i2c/freedom-metal/src/drivers/sifive_fe310-g000_pll.c:346
    metal_clock_set_rate_hz(
20014b46:	fec42583          	lw	a1,-20(s0)
20014b4a:	800017b7          	lui	a5,0x80001
20014b4e:	a7878513          	addi	a0,a5,-1416 # 80000a78 <metal_segment_heap_target_end+0xfffff308>
20014b52:	10e010ef          	jal	ra,20015c60 <metal_clock_set_rate_hz>
E:/8.AWS-FreeRTOS-HiFive1/Workspace/sifive-hifive1-revb-i2c/freedom-metal/src/drivers/sifive_fe310-g000_pll.c:349
        &__METAL_DT_SIFIVE_FE310_G000_PLL_HANDLE->clock, init_rate
    );
}
20014b56:	0001                	nop
20014b58:	40f2                	lw	ra,28(sp)
20014b5a:	4462                	lw	s0,24(sp)
20014b5c:	6105                	addi	sp,sp,32
20014b5e:	8082                	ret

20014b60 <__metal_driver_sifive_fe310_g000_prci_base>:
__metal_driver_sifive_fe310_g000_prci_base():
E:\8.AWS-FreeRTOS-HiFive1\Workspace\sifive-hifive1-revb-i2c\bsp\build\debug/./metal/machine.h:1033
{
20014b60:	1141                	addi	sp,sp,-16
20014b62:	c622                	sw	s0,12(sp)
20014b64:	0800                	addi	s0,sp,16
E:\8.AWS-FreeRTOS-HiFive1\Workspace\sifive-hifive1-revb-i2c\bsp\build\debug/./metal/machine.h:1034
		return METAL_SIFIVE_FE310_G000_PRCI_10008000_BASE_ADDRESS;
20014b66:	100087b7          	lui	a5,0x10008
E:\8.AWS-FreeRTOS-HiFive1\Workspace\sifive-hifive1-revb-i2c\bsp\build\debug/./metal/machine.h:1035
}
20014b6a:	853e                	mv	a0,a5
20014b6c:	4432                	lw	s0,12(sp)
20014b6e:	0141                	addi	sp,sp,16
20014b70:	8082                	ret

20014b72 <__metal_driver_sifive_fe310_g000_prci_get_reg>:
__metal_driver_sifive_fe310_g000_prci_get_reg():
E:/8.AWS-FreeRTOS-HiFive1/Workspace/sifive-hifive1-revb-i2c/freedom-metal/src/drivers/sifive_fe310-g000_prci.c:11
#ifdef METAL_SIFIVE_FE310_G000_PRCI

#include <metal/drivers/sifive_fe310-g000_prci.h>
#include <metal/machine.h>

long __metal_driver_sifive_fe310_g000_prci_get_reg(const struct __metal_driver_sifive_fe310_g000_prci *prci, long offset) {
20014b72:	7179                	addi	sp,sp,-48
20014b74:	d606                	sw	ra,44(sp)
20014b76:	d422                	sw	s0,40(sp)
20014b78:	1800                	addi	s0,sp,48
20014b7a:	fca42e23          	sw	a0,-36(s0)
20014b7e:	fcb42c23          	sw	a1,-40(s0)
E:/8.AWS-FreeRTOS-HiFive1/Workspace/sifive-hifive1-revb-i2c/freedom-metal/src/drivers/sifive_fe310-g000_prci.c:12
    unsigned long base = __metal_driver_sifive_fe310_g000_prci_base();
20014b82:	3ff9                	jal	20014b60 <__metal_driver_sifive_fe310_g000_prci_base>
20014b84:	87aa                	mv	a5,a0
20014b86:	fef42623          	sw	a5,-20(s0)
E:/8.AWS-FreeRTOS-HiFive1/Workspace/sifive-hifive1-revb-i2c/freedom-metal/src/drivers/sifive_fe310-g000_prci.c:13
    return __METAL_ACCESS_ONCE((__metal_io_u32 *)(base + offset));
20014b8a:	fd842703          	lw	a4,-40(s0)
20014b8e:	fec42783          	lw	a5,-20(s0)
20014b92:	97ba                	add	a5,a5,a4
20014b94:	439c                	lw	a5,0(a5)
E:/8.AWS-FreeRTOS-HiFive1/Workspace/sifive-hifive1-revb-i2c/freedom-metal/src/drivers/sifive_fe310-g000_prci.c:14
}
20014b96:	853e                	mv	a0,a5
20014b98:	50b2                	lw	ra,44(sp)
20014b9a:	5422                	lw	s0,40(sp)
20014b9c:	6145                	addi	sp,sp,48
20014b9e:	8082                	ret

20014ba0 <__metal_driver_sifive_fe310_g000_prci_set_reg>:
__metal_driver_sifive_fe310_g000_prci_set_reg():
E:/8.AWS-FreeRTOS-HiFive1/Workspace/sifive-hifive1-revb-i2c/freedom-metal/src/drivers/sifive_fe310-g000_prci.c:16

long __metal_driver_sifive_fe310_g000_prci_set_reg(const struct __metal_driver_sifive_fe310_g000_prci *prci, long offset, long value) {
20014ba0:	7179                	addi	sp,sp,-48
20014ba2:	d606                	sw	ra,44(sp)
20014ba4:	d422                	sw	s0,40(sp)
20014ba6:	1800                	addi	s0,sp,48
20014ba8:	fca42e23          	sw	a0,-36(s0)
20014bac:	fcb42c23          	sw	a1,-40(s0)
20014bb0:	fcc42a23          	sw	a2,-44(s0)
E:/8.AWS-FreeRTOS-HiFive1/Workspace/sifive-hifive1-revb-i2c/freedom-metal/src/drivers/sifive_fe310-g000_prci.c:17
    unsigned long base = __metal_driver_sifive_fe310_g000_prci_base();
20014bb4:	3775                	jal	20014b60 <__metal_driver_sifive_fe310_g000_prci_base>
20014bb6:	87aa                	mv	a5,a0
20014bb8:	fef42623          	sw	a5,-20(s0)
E:/8.AWS-FreeRTOS-HiFive1/Workspace/sifive-hifive1-revb-i2c/freedom-metal/src/drivers/sifive_fe310-g000_prci.c:18
    return __METAL_ACCESS_ONCE((__metal_io_u32 *)(base + offset)) = value;
20014bbc:	fd842703          	lw	a4,-40(s0)
20014bc0:	fec42783          	lw	a5,-20(s0)
20014bc4:	97ba                	add	a5,a5,a4
20014bc6:	873e                	mv	a4,a5
20014bc8:	fd442783          	lw	a5,-44(s0)
20014bcc:	c31c                	sw	a5,0(a4)
E:/8.AWS-FreeRTOS-HiFive1/Workspace/sifive-hifive1-revb-i2c/freedom-metal/src/drivers/sifive_fe310-g000_prci.c:19
}
20014bce:	853e                	mv	a0,a5
20014bd0:	50b2                	lw	ra,44(sp)
20014bd2:	5422                	lw	s0,40(sp)
20014bd4:	6145                	addi	sp,sp,48
20014bd6:	8082                	ret

20014bd8 <__metal_driver_sifive_gpio0_base>:
__metal_driver_sifive_gpio0_base():
E:\8.AWS-FreeRTOS-HiFive1\Workspace\sifive-hifive1-revb-i2c\bsp\build\debug/./metal/machine.h:380
{
20014bd8:	1101                	addi	sp,sp,-32
20014bda:	ce22                	sw	s0,28(sp)
20014bdc:	1000                	addi	s0,sp,32
20014bde:	fea42623          	sw	a0,-20(s0)
E:\8.AWS-FreeRTOS-HiFive1\Workspace\sifive-hifive1-revb-i2c\bsp\build\debug/./metal/machine.h:381
	if ((uintptr_t)gpio == (uintptr_t)&__metal_dt_gpio_10012000) {
20014be2:	fec42703          	lw	a4,-20(s0)
20014be6:	81818793          	addi	a5,gp,-2024 # 80000aa0 <__metal_dt_gpio_10012000>
20014bea:	00f71563          	bne	a4,a5,20014bf4 <__metal_driver_sifive_gpio0_base+0x1c>
E:\8.AWS-FreeRTOS-HiFive1\Workspace\sifive-hifive1-revb-i2c\bsp\build\debug/./metal/machine.h:382
		return METAL_SIFIVE_GPIO0_10012000_BASE_ADDRESS;
20014bee:	100127b7          	lui	a5,0x10012
20014bf2:	a011                	j	20014bf6 <__metal_driver_sifive_gpio0_base+0x1e>
E:\8.AWS-FreeRTOS-HiFive1\Workspace\sifive-hifive1-revb-i2c\bsp\build\debug/./metal/machine.h:385
		return 0;
20014bf4:	4781                	li	a5,0
E:\8.AWS-FreeRTOS-HiFive1\Workspace\sifive-hifive1-revb-i2c\bsp\build\debug/./metal/machine.h:387
}
20014bf6:	853e                	mv	a0,a5
20014bf8:	4472                	lw	s0,28(sp)
20014bfa:	6105                	addi	sp,sp,32
20014bfc:	8082                	ret

20014bfe <__metal_driver_sifive_gpio0_interrupt_parent>:
__metal_driver_sifive_gpio0_interrupt_parent():
E:\8.AWS-FreeRTOS-HiFive1\Workspace\sifive-hifive1-revb-i2c\bsp\build\debug/./metal/machine.h:410
{
20014bfe:	1101                	addi	sp,sp,-32
20014c00:	ce22                	sw	s0,28(sp)
20014c02:	1000                	addi	s0,sp,32
20014c04:	fea42623          	sw	a0,-20(s0)
E:\8.AWS-FreeRTOS-HiFive1\Workspace\sifive-hifive1-revb-i2c\bsp\build\debug/./metal/machine.h:411
	if ((uintptr_t)gpio == (uintptr_t)&__metal_dt_gpio_10012000) {
20014c08:	fec42703          	lw	a4,-20(s0)
20014c0c:	81818793          	addi	a5,gp,-2024 # 80000aa0 <__metal_dt_gpio_10012000>
20014c10:	00f71763          	bne	a4,a5,20014c1e <__metal_driver_sifive_gpio0_interrupt_parent+0x20>
E:\8.AWS-FreeRTOS-HiFive1\Workspace\sifive-hifive1-revb-i2c\bsp\build\debug/./metal/machine.h:412
		return (struct metal_interrupt *)&__metal_dt_interrupt_controller_c000000.controller;
20014c14:	800007b7          	lui	a5,0x80000
20014c18:	44878793          	addi	a5,a5,1096 # 80000448 <metal_segment_heap_target_end+0xffffecd8>
20014c1c:	a011                	j	20014c20 <__metal_driver_sifive_gpio0_interrupt_parent+0x22>
E:\8.AWS-FreeRTOS-HiFive1\Workspace\sifive-hifive1-revb-i2c\bsp\build\debug/./metal/machine.h:415
		return 0;
20014c1e:	4781                	li	a5,0
E:\8.AWS-FreeRTOS-HiFive1\Workspace\sifive-hifive1-revb-i2c\bsp\build\debug/./metal/machine.h:417
}
20014c20:	853e                	mv	a0,a5
20014c22:	4472                	lw	s0,28(sp)
20014c24:	6105                	addi	sp,sp,32
20014c26:	8082                	ret

20014c28 <__metal_driver_sifive_gpio0_interrupt_lines>:
__metal_driver_sifive_gpio0_interrupt_lines():
E:\8.AWS-FreeRTOS-HiFive1\Workspace\sifive-hifive1-revb-i2c\bsp\build\debug/./metal/machine.h:420
{
20014c28:	1101                	addi	sp,sp,-32
20014c2a:	ce22                	sw	s0,28(sp)
20014c2c:	1000                	addi	s0,sp,32
20014c2e:	fea42623          	sw	a0,-20(s0)
20014c32:	feb42423          	sw	a1,-24(s0)
E:\8.AWS-FreeRTOS-HiFive1\Workspace\sifive-hifive1-revb-i2c\bsp\build\debug/./metal/machine.h:421
	if (((uintptr_t)gpio == (uintptr_t)&__metal_dt_gpio_10012000) && (idx == 0)) {
20014c36:	fec42703          	lw	a4,-20(s0)
20014c3a:	81818793          	addi	a5,gp,-2024 # 80000aa0 <__metal_dt_gpio_10012000>
20014c3e:	00f71763          	bne	a4,a5,20014c4c <__metal_driver_sifive_gpio0_interrupt_lines+0x24>
E:\8.AWS-FreeRTOS-HiFive1\Workspace\sifive-hifive1-revb-i2c\bsp\build\debug/./metal/machine.h:421 (discriminator 1)
20014c42:	fe842783          	lw	a5,-24(s0)
20014c46:	e399                	bnez	a5,20014c4c <__metal_driver_sifive_gpio0_interrupt_lines+0x24>
E:\8.AWS-FreeRTOS-HiFive1\Workspace\sifive-hifive1-revb-i2c\bsp\build\debug/./metal/machine.h:422
		return 8;
20014c48:	47a1                	li	a5,8
20014c4a:	ae15                	j	20014f7e <__metal_driver_sifive_gpio0_interrupt_lines+0x356>
E:\8.AWS-FreeRTOS-HiFive1\Workspace\sifive-hifive1-revb-i2c\bsp\build\debug/./metal/machine.h:424
	else if ((((uintptr_t)gpio == (uintptr_t)&__metal_dt_gpio_10012000) && (idx == 1))) {
20014c4c:	fec42703          	lw	a4,-20(s0)
20014c50:	81818793          	addi	a5,gp,-2024 # 80000aa0 <__metal_dt_gpio_10012000>
20014c54:	00f71963          	bne	a4,a5,20014c66 <__metal_driver_sifive_gpio0_interrupt_lines+0x3e>
E:\8.AWS-FreeRTOS-HiFive1\Workspace\sifive-hifive1-revb-i2c\bsp\build\debug/./metal/machine.h:424 (discriminator 1)
20014c58:	fe842703          	lw	a4,-24(s0)
20014c5c:	4785                	li	a5,1
20014c5e:	00f71463          	bne	a4,a5,20014c66 <__metal_driver_sifive_gpio0_interrupt_lines+0x3e>
E:\8.AWS-FreeRTOS-HiFive1\Workspace\sifive-hifive1-revb-i2c\bsp\build\debug/./metal/machine.h:425
		return 9;
20014c62:	47a5                	li	a5,9
20014c64:	ae29                	j	20014f7e <__metal_driver_sifive_gpio0_interrupt_lines+0x356>
E:\8.AWS-FreeRTOS-HiFive1\Workspace\sifive-hifive1-revb-i2c\bsp\build\debug/./metal/machine.h:427
	else if ((((uintptr_t)gpio == (uintptr_t)&__metal_dt_gpio_10012000) && (idx == 2))) {
20014c66:	fec42703          	lw	a4,-20(s0)
20014c6a:	81818793          	addi	a5,gp,-2024 # 80000aa0 <__metal_dt_gpio_10012000>
20014c6e:	00f71963          	bne	a4,a5,20014c80 <__metal_driver_sifive_gpio0_interrupt_lines+0x58>
E:\8.AWS-FreeRTOS-HiFive1\Workspace\sifive-hifive1-revb-i2c\bsp\build\debug/./metal/machine.h:427 (discriminator 1)
20014c72:	fe842703          	lw	a4,-24(s0)
20014c76:	4789                	li	a5,2
20014c78:	00f71463          	bne	a4,a5,20014c80 <__metal_driver_sifive_gpio0_interrupt_lines+0x58>
E:\8.AWS-FreeRTOS-HiFive1\Workspace\sifive-hifive1-revb-i2c\bsp\build\debug/./metal/machine.h:428
		return 10;
20014c7c:	47a9                	li	a5,10
20014c7e:	a601                	j	20014f7e <__metal_driver_sifive_gpio0_interrupt_lines+0x356>
E:\8.AWS-FreeRTOS-HiFive1\Workspace\sifive-hifive1-revb-i2c\bsp\build\debug/./metal/machine.h:430
	else if ((((uintptr_t)gpio == (uintptr_t)&__metal_dt_gpio_10012000) && (idx == 3))) {
20014c80:	fec42703          	lw	a4,-20(s0)
20014c84:	81818793          	addi	a5,gp,-2024 # 80000aa0 <__metal_dt_gpio_10012000>
20014c88:	00f71963          	bne	a4,a5,20014c9a <__metal_driver_sifive_gpio0_interrupt_lines+0x72>
E:\8.AWS-FreeRTOS-HiFive1\Workspace\sifive-hifive1-revb-i2c\bsp\build\debug/./metal/machine.h:430 (discriminator 1)
20014c8c:	fe842703          	lw	a4,-24(s0)
20014c90:	478d                	li	a5,3
20014c92:	00f71463          	bne	a4,a5,20014c9a <__metal_driver_sifive_gpio0_interrupt_lines+0x72>
E:\8.AWS-FreeRTOS-HiFive1\Workspace\sifive-hifive1-revb-i2c\bsp\build\debug/./metal/machine.h:431
		return 11;
20014c96:	47ad                	li	a5,11
20014c98:	a4dd                	j	20014f7e <__metal_driver_sifive_gpio0_interrupt_lines+0x356>
E:\8.AWS-FreeRTOS-HiFive1\Workspace\sifive-hifive1-revb-i2c\bsp\build\debug/./metal/machine.h:433
	else if ((((uintptr_t)gpio == (uintptr_t)&__metal_dt_gpio_10012000) && (idx == 4))) {
20014c9a:	fec42703          	lw	a4,-20(s0)
20014c9e:	81818793          	addi	a5,gp,-2024 # 80000aa0 <__metal_dt_gpio_10012000>
20014ca2:	00f71963          	bne	a4,a5,20014cb4 <__metal_driver_sifive_gpio0_interrupt_lines+0x8c>
E:\8.AWS-FreeRTOS-HiFive1\Workspace\sifive-hifive1-revb-i2c\bsp\build\debug/./metal/machine.h:433 (discriminator 1)
20014ca6:	fe842703          	lw	a4,-24(s0)
20014caa:	4791                	li	a5,4
20014cac:	00f71463          	bne	a4,a5,20014cb4 <__metal_driver_sifive_gpio0_interrupt_lines+0x8c>
E:\8.AWS-FreeRTOS-HiFive1\Workspace\sifive-hifive1-revb-i2c\bsp\build\debug/./metal/machine.h:434
		return 12;
20014cb0:	47b1                	li	a5,12
20014cb2:	a4f1                	j	20014f7e <__metal_driver_sifive_gpio0_interrupt_lines+0x356>
E:\8.AWS-FreeRTOS-HiFive1\Workspace\sifive-hifive1-revb-i2c\bsp\build\debug/./metal/machine.h:436
	else if ((((uintptr_t)gpio == (uintptr_t)&__metal_dt_gpio_10012000) && (idx == 5))) {
20014cb4:	fec42703          	lw	a4,-20(s0)
20014cb8:	81818793          	addi	a5,gp,-2024 # 80000aa0 <__metal_dt_gpio_10012000>
20014cbc:	00f71963          	bne	a4,a5,20014cce <__metal_driver_sifive_gpio0_interrupt_lines+0xa6>
E:\8.AWS-FreeRTOS-HiFive1\Workspace\sifive-hifive1-revb-i2c\bsp\build\debug/./metal/machine.h:436 (discriminator 1)
20014cc0:	fe842703          	lw	a4,-24(s0)
20014cc4:	4795                	li	a5,5
20014cc6:	00f71463          	bne	a4,a5,20014cce <__metal_driver_sifive_gpio0_interrupt_lines+0xa6>
E:\8.AWS-FreeRTOS-HiFive1\Workspace\sifive-hifive1-revb-i2c\bsp\build\debug/./metal/machine.h:437
		return 13;
20014cca:	47b5                	li	a5,13
20014ccc:	ac4d                	j	20014f7e <__metal_driver_sifive_gpio0_interrupt_lines+0x356>
E:\8.AWS-FreeRTOS-HiFive1\Workspace\sifive-hifive1-revb-i2c\bsp\build\debug/./metal/machine.h:439
	else if ((((uintptr_t)gpio == (uintptr_t)&__metal_dt_gpio_10012000) && (idx == 6))) {
20014cce:	fec42703          	lw	a4,-20(s0)
20014cd2:	81818793          	addi	a5,gp,-2024 # 80000aa0 <__metal_dt_gpio_10012000>
20014cd6:	00f71963          	bne	a4,a5,20014ce8 <__metal_driver_sifive_gpio0_interrupt_lines+0xc0>
E:\8.AWS-FreeRTOS-HiFive1\Workspace\sifive-hifive1-revb-i2c\bsp\build\debug/./metal/machine.h:439 (discriminator 1)
20014cda:	fe842703          	lw	a4,-24(s0)
20014cde:	4799                	li	a5,6
20014ce0:	00f71463          	bne	a4,a5,20014ce8 <__metal_driver_sifive_gpio0_interrupt_lines+0xc0>
E:\8.AWS-FreeRTOS-HiFive1\Workspace\sifive-hifive1-revb-i2c\bsp\build\debug/./metal/machine.h:440
		return 14;
20014ce4:	47b9                	li	a5,14
20014ce6:	ac61                	j	20014f7e <__metal_driver_sifive_gpio0_interrupt_lines+0x356>
E:\8.AWS-FreeRTOS-HiFive1\Workspace\sifive-hifive1-revb-i2c\bsp\build\debug/./metal/machine.h:442
	else if ((((uintptr_t)gpio == (uintptr_t)&__metal_dt_gpio_10012000) && (idx == 7))) {
20014ce8:	fec42703          	lw	a4,-20(s0)
20014cec:	81818793          	addi	a5,gp,-2024 # 80000aa0 <__metal_dt_gpio_10012000>
20014cf0:	00f71963          	bne	a4,a5,20014d02 <__metal_driver_sifive_gpio0_interrupt_lines+0xda>
E:\8.AWS-FreeRTOS-HiFive1\Workspace\sifive-hifive1-revb-i2c\bsp\build\debug/./metal/machine.h:442 (discriminator 1)
20014cf4:	fe842703          	lw	a4,-24(s0)
20014cf8:	479d                	li	a5,7
20014cfa:	00f71463          	bne	a4,a5,20014d02 <__metal_driver_sifive_gpio0_interrupt_lines+0xda>
E:\8.AWS-FreeRTOS-HiFive1\Workspace\sifive-hifive1-revb-i2c\bsp\build\debug/./metal/machine.h:443
		return 15;
20014cfe:	47bd                	li	a5,15
20014d00:	acbd                	j	20014f7e <__metal_driver_sifive_gpio0_interrupt_lines+0x356>
E:\8.AWS-FreeRTOS-HiFive1\Workspace\sifive-hifive1-revb-i2c\bsp\build\debug/./metal/machine.h:445
	else if ((((uintptr_t)gpio == (uintptr_t)&__metal_dt_gpio_10012000) && (idx == 8))) {
20014d02:	fec42703          	lw	a4,-20(s0)
20014d06:	81818793          	addi	a5,gp,-2024 # 80000aa0 <__metal_dt_gpio_10012000>
20014d0a:	00f71963          	bne	a4,a5,20014d1c <__metal_driver_sifive_gpio0_interrupt_lines+0xf4>
E:\8.AWS-FreeRTOS-HiFive1\Workspace\sifive-hifive1-revb-i2c\bsp\build\debug/./metal/machine.h:445 (discriminator 1)
20014d0e:	fe842703          	lw	a4,-24(s0)
20014d12:	47a1                	li	a5,8
20014d14:	00f71463          	bne	a4,a5,20014d1c <__metal_driver_sifive_gpio0_interrupt_lines+0xf4>
E:\8.AWS-FreeRTOS-HiFive1\Workspace\sifive-hifive1-revb-i2c\bsp\build\debug/./metal/machine.h:446
		return 16;
20014d18:	47c1                	li	a5,16
20014d1a:	a495                	j	20014f7e <__metal_driver_sifive_gpio0_interrupt_lines+0x356>
E:\8.AWS-FreeRTOS-HiFive1\Workspace\sifive-hifive1-revb-i2c\bsp\build\debug/./metal/machine.h:448
	else if ((((uintptr_t)gpio == (uintptr_t)&__metal_dt_gpio_10012000) && (idx == 9))) {
20014d1c:	fec42703          	lw	a4,-20(s0)
20014d20:	81818793          	addi	a5,gp,-2024 # 80000aa0 <__metal_dt_gpio_10012000>
20014d24:	00f71963          	bne	a4,a5,20014d36 <__metal_driver_sifive_gpio0_interrupt_lines+0x10e>
E:\8.AWS-FreeRTOS-HiFive1\Workspace\sifive-hifive1-revb-i2c\bsp\build\debug/./metal/machine.h:448 (discriminator 1)
20014d28:	fe842703          	lw	a4,-24(s0)
20014d2c:	47a5                	li	a5,9
20014d2e:	00f71463          	bne	a4,a5,20014d36 <__metal_driver_sifive_gpio0_interrupt_lines+0x10e>
E:\8.AWS-FreeRTOS-HiFive1\Workspace\sifive-hifive1-revb-i2c\bsp\build\debug/./metal/machine.h:449
		return 17;
20014d32:	47c5                	li	a5,17
20014d34:	a4a9                	j	20014f7e <__metal_driver_sifive_gpio0_interrupt_lines+0x356>
E:\8.AWS-FreeRTOS-HiFive1\Workspace\sifive-hifive1-revb-i2c\bsp\build\debug/./metal/machine.h:451
	else if ((((uintptr_t)gpio == (uintptr_t)&__metal_dt_gpio_10012000) && (idx == 10))) {
20014d36:	fec42703          	lw	a4,-20(s0)
20014d3a:	81818793          	addi	a5,gp,-2024 # 80000aa0 <__metal_dt_gpio_10012000>
20014d3e:	00f71963          	bne	a4,a5,20014d50 <__metal_driver_sifive_gpio0_interrupt_lines+0x128>
E:\8.AWS-FreeRTOS-HiFive1\Workspace\sifive-hifive1-revb-i2c\bsp\build\debug/./metal/machine.h:451 (discriminator 1)
20014d42:	fe842703          	lw	a4,-24(s0)
20014d46:	47a9                	li	a5,10
20014d48:	00f71463          	bne	a4,a5,20014d50 <__metal_driver_sifive_gpio0_interrupt_lines+0x128>
E:\8.AWS-FreeRTOS-HiFive1\Workspace\sifive-hifive1-revb-i2c\bsp\build\debug/./metal/machine.h:452
		return 18;
20014d4c:	47c9                	li	a5,18
20014d4e:	ac05                	j	20014f7e <__metal_driver_sifive_gpio0_interrupt_lines+0x356>
E:\8.AWS-FreeRTOS-HiFive1\Workspace\sifive-hifive1-revb-i2c\bsp\build\debug/./metal/machine.h:454
	else if ((((uintptr_t)gpio == (uintptr_t)&__metal_dt_gpio_10012000) && (idx == 11))) {
20014d50:	fec42703          	lw	a4,-20(s0)
20014d54:	81818793          	addi	a5,gp,-2024 # 80000aa0 <__metal_dt_gpio_10012000>
20014d58:	00f71963          	bne	a4,a5,20014d6a <__metal_driver_sifive_gpio0_interrupt_lines+0x142>
E:\8.AWS-FreeRTOS-HiFive1\Workspace\sifive-hifive1-revb-i2c\bsp\build\debug/./metal/machine.h:454 (discriminator 1)
20014d5c:	fe842703          	lw	a4,-24(s0)
20014d60:	47ad                	li	a5,11
20014d62:	00f71463          	bne	a4,a5,20014d6a <__metal_driver_sifive_gpio0_interrupt_lines+0x142>
E:\8.AWS-FreeRTOS-HiFive1\Workspace\sifive-hifive1-revb-i2c\bsp\build\debug/./metal/machine.h:455
		return 19;
20014d66:	47cd                	li	a5,19
20014d68:	ac19                	j	20014f7e <__metal_driver_sifive_gpio0_interrupt_lines+0x356>
E:\8.AWS-FreeRTOS-HiFive1\Workspace\sifive-hifive1-revb-i2c\bsp\build\debug/./metal/machine.h:457
	else if ((((uintptr_t)gpio == (uintptr_t)&__metal_dt_gpio_10012000) && (idx == 12))) {
20014d6a:	fec42703          	lw	a4,-20(s0)
20014d6e:	81818793          	addi	a5,gp,-2024 # 80000aa0 <__metal_dt_gpio_10012000>
20014d72:	00f71963          	bne	a4,a5,20014d84 <__metal_driver_sifive_gpio0_interrupt_lines+0x15c>
E:\8.AWS-FreeRTOS-HiFive1\Workspace\sifive-hifive1-revb-i2c\bsp\build\debug/./metal/machine.h:457 (discriminator 1)
20014d76:	fe842703          	lw	a4,-24(s0)
20014d7a:	47b1                	li	a5,12
20014d7c:	00f71463          	bne	a4,a5,20014d84 <__metal_driver_sifive_gpio0_interrupt_lines+0x15c>
E:\8.AWS-FreeRTOS-HiFive1\Workspace\sifive-hifive1-revb-i2c\bsp\build\debug/./metal/machine.h:458
		return 20;
20014d80:	47d1                	li	a5,20
20014d82:	aaf5                	j	20014f7e <__metal_driver_sifive_gpio0_interrupt_lines+0x356>
E:\8.AWS-FreeRTOS-HiFive1\Workspace\sifive-hifive1-revb-i2c\bsp\build\debug/./metal/machine.h:460
	else if ((((uintptr_t)gpio == (uintptr_t)&__metal_dt_gpio_10012000) && (idx == 13))) {
20014d84:	fec42703          	lw	a4,-20(s0)
20014d88:	81818793          	addi	a5,gp,-2024 # 80000aa0 <__metal_dt_gpio_10012000>
20014d8c:	00f71963          	bne	a4,a5,20014d9e <__metal_driver_sifive_gpio0_interrupt_lines+0x176>
E:\8.AWS-FreeRTOS-HiFive1\Workspace\sifive-hifive1-revb-i2c\bsp\build\debug/./metal/machine.h:460 (discriminator 1)
20014d90:	fe842703          	lw	a4,-24(s0)
20014d94:	47b5                	li	a5,13
20014d96:	00f71463          	bne	a4,a5,20014d9e <__metal_driver_sifive_gpio0_interrupt_lines+0x176>
E:\8.AWS-FreeRTOS-HiFive1\Workspace\sifive-hifive1-revb-i2c\bsp\build\debug/./metal/machine.h:461
		return 21;
20014d9a:	47d5                	li	a5,21
20014d9c:	a2cd                	j	20014f7e <__metal_driver_sifive_gpio0_interrupt_lines+0x356>
E:\8.AWS-FreeRTOS-HiFive1\Workspace\sifive-hifive1-revb-i2c\bsp\build\debug/./metal/machine.h:463
	else if ((((uintptr_t)gpio == (uintptr_t)&__metal_dt_gpio_10012000) && (idx == 14))) {
20014d9e:	fec42703          	lw	a4,-20(s0)
20014da2:	81818793          	addi	a5,gp,-2024 # 80000aa0 <__metal_dt_gpio_10012000>
20014da6:	00f71963          	bne	a4,a5,20014db8 <__metal_driver_sifive_gpio0_interrupt_lines+0x190>
E:\8.AWS-FreeRTOS-HiFive1\Workspace\sifive-hifive1-revb-i2c\bsp\build\debug/./metal/machine.h:463 (discriminator 1)
20014daa:	fe842703          	lw	a4,-24(s0)
20014dae:	47b9                	li	a5,14
20014db0:	00f71463          	bne	a4,a5,20014db8 <__metal_driver_sifive_gpio0_interrupt_lines+0x190>
E:\8.AWS-FreeRTOS-HiFive1\Workspace\sifive-hifive1-revb-i2c\bsp\build\debug/./metal/machine.h:464
		return 22;
20014db4:	47d9                	li	a5,22
20014db6:	a2e1                	j	20014f7e <__metal_driver_sifive_gpio0_interrupt_lines+0x356>
E:\8.AWS-FreeRTOS-HiFive1\Workspace\sifive-hifive1-revb-i2c\bsp\build\debug/./metal/machine.h:466
	else if ((((uintptr_t)gpio == (uintptr_t)&__metal_dt_gpio_10012000) && (idx == 15))) {
20014db8:	fec42703          	lw	a4,-20(s0)
20014dbc:	81818793          	addi	a5,gp,-2024 # 80000aa0 <__metal_dt_gpio_10012000>
20014dc0:	00f71963          	bne	a4,a5,20014dd2 <__metal_driver_sifive_gpio0_interrupt_lines+0x1aa>
E:\8.AWS-FreeRTOS-HiFive1\Workspace\sifive-hifive1-revb-i2c\bsp\build\debug/./metal/machine.h:466 (discriminator 1)
20014dc4:	fe842703          	lw	a4,-24(s0)
20014dc8:	47bd                	li	a5,15
20014dca:	00f71463          	bne	a4,a5,20014dd2 <__metal_driver_sifive_gpio0_interrupt_lines+0x1aa>
E:\8.AWS-FreeRTOS-HiFive1\Workspace\sifive-hifive1-revb-i2c\bsp\build\debug/./metal/machine.h:467
		return 23;
20014dce:	47dd                	li	a5,23
20014dd0:	a27d                	j	20014f7e <__metal_driver_sifive_gpio0_interrupt_lines+0x356>
E:\8.AWS-FreeRTOS-HiFive1\Workspace\sifive-hifive1-revb-i2c\bsp\build\debug/./metal/machine.h:469
	else if ((((uintptr_t)gpio == (uintptr_t)&__metal_dt_gpio_10012000) && (idx == 16))) {
20014dd2:	fec42703          	lw	a4,-20(s0)
20014dd6:	81818793          	addi	a5,gp,-2024 # 80000aa0 <__metal_dt_gpio_10012000>
20014dda:	00f71963          	bne	a4,a5,20014dec <__metal_driver_sifive_gpio0_interrupt_lines+0x1c4>
E:\8.AWS-FreeRTOS-HiFive1\Workspace\sifive-hifive1-revb-i2c\bsp\build\debug/./metal/machine.h:469 (discriminator 1)
20014dde:	fe842703          	lw	a4,-24(s0)
20014de2:	47c1                	li	a5,16
20014de4:	00f71463          	bne	a4,a5,20014dec <__metal_driver_sifive_gpio0_interrupt_lines+0x1c4>
E:\8.AWS-FreeRTOS-HiFive1\Workspace\sifive-hifive1-revb-i2c\bsp\build\debug/./metal/machine.h:470
		return 24;
20014de8:	47e1                	li	a5,24
20014dea:	aa51                	j	20014f7e <__metal_driver_sifive_gpio0_interrupt_lines+0x356>
E:\8.AWS-FreeRTOS-HiFive1\Workspace\sifive-hifive1-revb-i2c\bsp\build\debug/./metal/machine.h:472
	else if ((((uintptr_t)gpio == (uintptr_t)&__metal_dt_gpio_10012000) && (idx == 17))) {
20014dec:	fec42703          	lw	a4,-20(s0)
20014df0:	81818793          	addi	a5,gp,-2024 # 80000aa0 <__metal_dt_gpio_10012000>
20014df4:	00f71963          	bne	a4,a5,20014e06 <__metal_driver_sifive_gpio0_interrupt_lines+0x1de>
E:\8.AWS-FreeRTOS-HiFive1\Workspace\sifive-hifive1-revb-i2c\bsp\build\debug/./metal/machine.h:472 (discriminator 1)
20014df8:	fe842703          	lw	a4,-24(s0)
20014dfc:	47c5                	li	a5,17
20014dfe:	00f71463          	bne	a4,a5,20014e06 <__metal_driver_sifive_gpio0_interrupt_lines+0x1de>
E:\8.AWS-FreeRTOS-HiFive1\Workspace\sifive-hifive1-revb-i2c\bsp\build\debug/./metal/machine.h:473
		return 25;
20014e02:	47e5                	li	a5,25
20014e04:	aaad                	j	20014f7e <__metal_driver_sifive_gpio0_interrupt_lines+0x356>
E:\8.AWS-FreeRTOS-HiFive1\Workspace\sifive-hifive1-revb-i2c\bsp\build\debug/./metal/machine.h:475
	else if ((((uintptr_t)gpio == (uintptr_t)&__metal_dt_gpio_10012000) && (idx == 18))) {
20014e06:	fec42703          	lw	a4,-20(s0)
20014e0a:	81818793          	addi	a5,gp,-2024 # 80000aa0 <__metal_dt_gpio_10012000>
20014e0e:	00f71963          	bne	a4,a5,20014e20 <__metal_driver_sifive_gpio0_interrupt_lines+0x1f8>
E:\8.AWS-FreeRTOS-HiFive1\Workspace\sifive-hifive1-revb-i2c\bsp\build\debug/./metal/machine.h:475 (discriminator 1)
20014e12:	fe842703          	lw	a4,-24(s0)
20014e16:	47c9                	li	a5,18
20014e18:	00f71463          	bne	a4,a5,20014e20 <__metal_driver_sifive_gpio0_interrupt_lines+0x1f8>
E:\8.AWS-FreeRTOS-HiFive1\Workspace\sifive-hifive1-revb-i2c\bsp\build\debug/./metal/machine.h:476
		return 26;
20014e1c:	47e9                	li	a5,26
20014e1e:	a285                	j	20014f7e <__metal_driver_sifive_gpio0_interrupt_lines+0x356>
E:\8.AWS-FreeRTOS-HiFive1\Workspace\sifive-hifive1-revb-i2c\bsp\build\debug/./metal/machine.h:478
	else if ((((uintptr_t)gpio == (uintptr_t)&__metal_dt_gpio_10012000) && (idx == 19))) {
20014e20:	fec42703          	lw	a4,-20(s0)
20014e24:	81818793          	addi	a5,gp,-2024 # 80000aa0 <__metal_dt_gpio_10012000>
20014e28:	00f71963          	bne	a4,a5,20014e3a <__metal_driver_sifive_gpio0_interrupt_lines+0x212>
E:\8.AWS-FreeRTOS-HiFive1\Workspace\sifive-hifive1-revb-i2c\bsp\build\debug/./metal/machine.h:478 (discriminator 1)
20014e2c:	fe842703          	lw	a4,-24(s0)
20014e30:	47cd                	li	a5,19
20014e32:	00f71463          	bne	a4,a5,20014e3a <__metal_driver_sifive_gpio0_interrupt_lines+0x212>
E:\8.AWS-FreeRTOS-HiFive1\Workspace\sifive-hifive1-revb-i2c\bsp\build\debug/./metal/machine.h:479
		return 27;
20014e36:	47ed                	li	a5,27
20014e38:	a299                	j	20014f7e <__metal_driver_sifive_gpio0_interrupt_lines+0x356>
E:\8.AWS-FreeRTOS-HiFive1\Workspace\sifive-hifive1-revb-i2c\bsp\build\debug/./metal/machine.h:481
	else if ((((uintptr_t)gpio == (uintptr_t)&__metal_dt_gpio_10012000) && (idx == 20))) {
20014e3a:	fec42703          	lw	a4,-20(s0)
20014e3e:	81818793          	addi	a5,gp,-2024 # 80000aa0 <__metal_dt_gpio_10012000>
20014e42:	00f71963          	bne	a4,a5,20014e54 <__metal_driver_sifive_gpio0_interrupt_lines+0x22c>
E:\8.AWS-FreeRTOS-HiFive1\Workspace\sifive-hifive1-revb-i2c\bsp\build\debug/./metal/machine.h:481 (discriminator 1)
20014e46:	fe842703          	lw	a4,-24(s0)
20014e4a:	47d1                	li	a5,20
20014e4c:	00f71463          	bne	a4,a5,20014e54 <__metal_driver_sifive_gpio0_interrupt_lines+0x22c>
E:\8.AWS-FreeRTOS-HiFive1\Workspace\sifive-hifive1-revb-i2c\bsp\build\debug/./metal/machine.h:482
		return 28;
20014e50:	47f1                	li	a5,28
20014e52:	a235                	j	20014f7e <__metal_driver_sifive_gpio0_interrupt_lines+0x356>
E:\8.AWS-FreeRTOS-HiFive1\Workspace\sifive-hifive1-revb-i2c\bsp\build\debug/./metal/machine.h:484
	else if ((((uintptr_t)gpio == (uintptr_t)&__metal_dt_gpio_10012000) && (idx == 21))) {
20014e54:	fec42703          	lw	a4,-20(s0)
20014e58:	81818793          	addi	a5,gp,-2024 # 80000aa0 <__metal_dt_gpio_10012000>
20014e5c:	00f71963          	bne	a4,a5,20014e6e <__metal_driver_sifive_gpio0_interrupt_lines+0x246>
E:\8.AWS-FreeRTOS-HiFive1\Workspace\sifive-hifive1-revb-i2c\bsp\build\debug/./metal/machine.h:484 (discriminator 1)
20014e60:	fe842703          	lw	a4,-24(s0)
20014e64:	47d5                	li	a5,21
20014e66:	00f71463          	bne	a4,a5,20014e6e <__metal_driver_sifive_gpio0_interrupt_lines+0x246>
E:\8.AWS-FreeRTOS-HiFive1\Workspace\sifive-hifive1-revb-i2c\bsp\build\debug/./metal/machine.h:485
		return 29;
20014e6a:	47f5                	li	a5,29
20014e6c:	aa09                	j	20014f7e <__metal_driver_sifive_gpio0_interrupt_lines+0x356>
E:\8.AWS-FreeRTOS-HiFive1\Workspace\sifive-hifive1-revb-i2c\bsp\build\debug/./metal/machine.h:487
	else if ((((uintptr_t)gpio == (uintptr_t)&__metal_dt_gpio_10012000) && (idx == 22))) {
20014e6e:	fec42703          	lw	a4,-20(s0)
20014e72:	81818793          	addi	a5,gp,-2024 # 80000aa0 <__metal_dt_gpio_10012000>
20014e76:	00f71963          	bne	a4,a5,20014e88 <__metal_driver_sifive_gpio0_interrupt_lines+0x260>
E:\8.AWS-FreeRTOS-HiFive1\Workspace\sifive-hifive1-revb-i2c\bsp\build\debug/./metal/machine.h:487 (discriminator 1)
20014e7a:	fe842703          	lw	a4,-24(s0)
20014e7e:	47d9                	li	a5,22
20014e80:	00f71463          	bne	a4,a5,20014e88 <__metal_driver_sifive_gpio0_interrupt_lines+0x260>
E:\8.AWS-FreeRTOS-HiFive1\Workspace\sifive-hifive1-revb-i2c\bsp\build\debug/./metal/machine.h:488
		return 30;
20014e84:	47f9                	li	a5,30
20014e86:	a8e5                	j	20014f7e <__metal_driver_sifive_gpio0_interrupt_lines+0x356>
E:\8.AWS-FreeRTOS-HiFive1\Workspace\sifive-hifive1-revb-i2c\bsp\build\debug/./metal/machine.h:490
	else if ((((uintptr_t)gpio == (uintptr_t)&__metal_dt_gpio_10012000) && (idx == 23))) {
20014e88:	fec42703          	lw	a4,-20(s0)
20014e8c:	81818793          	addi	a5,gp,-2024 # 80000aa0 <__metal_dt_gpio_10012000>
20014e90:	00f71963          	bne	a4,a5,20014ea2 <__metal_driver_sifive_gpio0_interrupt_lines+0x27a>
E:\8.AWS-FreeRTOS-HiFive1\Workspace\sifive-hifive1-revb-i2c\bsp\build\debug/./metal/machine.h:490 (discriminator 1)
20014e94:	fe842703          	lw	a4,-24(s0)
20014e98:	47dd                	li	a5,23
20014e9a:	00f71463          	bne	a4,a5,20014ea2 <__metal_driver_sifive_gpio0_interrupt_lines+0x27a>
E:\8.AWS-FreeRTOS-HiFive1\Workspace\sifive-hifive1-revb-i2c\bsp\build\debug/./metal/machine.h:491
		return 31;
20014e9e:	47fd                	li	a5,31
20014ea0:	a8f9                	j	20014f7e <__metal_driver_sifive_gpio0_interrupt_lines+0x356>
E:\8.AWS-FreeRTOS-HiFive1\Workspace\sifive-hifive1-revb-i2c\bsp\build\debug/./metal/machine.h:493
	else if ((((uintptr_t)gpio == (uintptr_t)&__metal_dt_gpio_10012000) && (idx == 24))) {
20014ea2:	fec42703          	lw	a4,-20(s0)
20014ea6:	81818793          	addi	a5,gp,-2024 # 80000aa0 <__metal_dt_gpio_10012000>
20014eaa:	00f71a63          	bne	a4,a5,20014ebe <__metal_driver_sifive_gpio0_interrupt_lines+0x296>
E:\8.AWS-FreeRTOS-HiFive1\Workspace\sifive-hifive1-revb-i2c\bsp\build\debug/./metal/machine.h:493 (discriminator 1)
20014eae:	fe842703          	lw	a4,-24(s0)
20014eb2:	47e1                	li	a5,24
20014eb4:	00f71563          	bne	a4,a5,20014ebe <__metal_driver_sifive_gpio0_interrupt_lines+0x296>
E:\8.AWS-FreeRTOS-HiFive1\Workspace\sifive-hifive1-revb-i2c\bsp\build\debug/./metal/machine.h:494
		return 32;
20014eb8:	02000793          	li	a5,32
20014ebc:	a0c9                	j	20014f7e <__metal_driver_sifive_gpio0_interrupt_lines+0x356>
E:\8.AWS-FreeRTOS-HiFive1\Workspace\sifive-hifive1-revb-i2c\bsp\build\debug/./metal/machine.h:496
	else if ((((uintptr_t)gpio == (uintptr_t)&__metal_dt_gpio_10012000) && (idx == 25))) {
20014ebe:	fec42703          	lw	a4,-20(s0)
20014ec2:	81818793          	addi	a5,gp,-2024 # 80000aa0 <__metal_dt_gpio_10012000>
20014ec6:	00f71a63          	bne	a4,a5,20014eda <__metal_driver_sifive_gpio0_interrupt_lines+0x2b2>
E:\8.AWS-FreeRTOS-HiFive1\Workspace\sifive-hifive1-revb-i2c\bsp\build\debug/./metal/machine.h:496 (discriminator 1)
20014eca:	fe842703          	lw	a4,-24(s0)
20014ece:	47e5                	li	a5,25
20014ed0:	00f71563          	bne	a4,a5,20014eda <__metal_driver_sifive_gpio0_interrupt_lines+0x2b2>
E:\8.AWS-FreeRTOS-HiFive1\Workspace\sifive-hifive1-revb-i2c\bsp\build\debug/./metal/machine.h:497
		return 33;
20014ed4:	02100793          	li	a5,33
20014ed8:	a05d                	j	20014f7e <__metal_driver_sifive_gpio0_interrupt_lines+0x356>
E:\8.AWS-FreeRTOS-HiFive1\Workspace\sifive-hifive1-revb-i2c\bsp\build\debug/./metal/machine.h:499
	else if ((((uintptr_t)gpio == (uintptr_t)&__metal_dt_gpio_10012000) && (idx == 26))) {
20014eda:	fec42703          	lw	a4,-20(s0)
20014ede:	81818793          	addi	a5,gp,-2024 # 80000aa0 <__metal_dt_gpio_10012000>
20014ee2:	00f71a63          	bne	a4,a5,20014ef6 <__metal_driver_sifive_gpio0_interrupt_lines+0x2ce>
E:\8.AWS-FreeRTOS-HiFive1\Workspace\sifive-hifive1-revb-i2c\bsp\build\debug/./metal/machine.h:499 (discriminator 1)
20014ee6:	fe842703          	lw	a4,-24(s0)
20014eea:	47e9                	li	a5,26
20014eec:	00f71563          	bne	a4,a5,20014ef6 <__metal_driver_sifive_gpio0_interrupt_lines+0x2ce>
E:\8.AWS-FreeRTOS-HiFive1\Workspace\sifive-hifive1-revb-i2c\bsp\build\debug/./metal/machine.h:500
		return 34;
20014ef0:	02200793          	li	a5,34
20014ef4:	a069                	j	20014f7e <__metal_driver_sifive_gpio0_interrupt_lines+0x356>
E:\8.AWS-FreeRTOS-HiFive1\Workspace\sifive-hifive1-revb-i2c\bsp\build\debug/./metal/machine.h:502
	else if ((((uintptr_t)gpio == (uintptr_t)&__metal_dt_gpio_10012000) && (idx == 27))) {
20014ef6:	fec42703          	lw	a4,-20(s0)
20014efa:	81818793          	addi	a5,gp,-2024 # 80000aa0 <__metal_dt_gpio_10012000>
20014efe:	00f71a63          	bne	a4,a5,20014f12 <__metal_driver_sifive_gpio0_interrupt_lines+0x2ea>
E:\8.AWS-FreeRTOS-HiFive1\Workspace\sifive-hifive1-revb-i2c\bsp\build\debug/./metal/machine.h:502 (discriminator 1)
20014f02:	fe842703          	lw	a4,-24(s0)
20014f06:	47ed                	li	a5,27
20014f08:	00f71563          	bne	a4,a5,20014f12 <__metal_driver_sifive_gpio0_interrupt_lines+0x2ea>
E:\8.AWS-FreeRTOS-HiFive1\Workspace\sifive-hifive1-revb-i2c\bsp\build\debug/./metal/machine.h:503
		return 35;
20014f0c:	02300793          	li	a5,35
20014f10:	a0bd                	j	20014f7e <__metal_driver_sifive_gpio0_interrupt_lines+0x356>
E:\8.AWS-FreeRTOS-HiFive1\Workspace\sifive-hifive1-revb-i2c\bsp\build\debug/./metal/machine.h:505
	else if ((((uintptr_t)gpio == (uintptr_t)&__metal_dt_gpio_10012000) && (idx == 28))) {
20014f12:	fec42703          	lw	a4,-20(s0)
20014f16:	81818793          	addi	a5,gp,-2024 # 80000aa0 <__metal_dt_gpio_10012000>
20014f1a:	00f71a63          	bne	a4,a5,20014f2e <__metal_driver_sifive_gpio0_interrupt_lines+0x306>
E:\8.AWS-FreeRTOS-HiFive1\Workspace\sifive-hifive1-revb-i2c\bsp\build\debug/./metal/machine.h:505 (discriminator 1)
20014f1e:	fe842703          	lw	a4,-24(s0)
20014f22:	47f1                	li	a5,28
20014f24:	00f71563          	bne	a4,a5,20014f2e <__metal_driver_sifive_gpio0_interrupt_lines+0x306>
E:\8.AWS-FreeRTOS-HiFive1\Workspace\sifive-hifive1-revb-i2c\bsp\build\debug/./metal/machine.h:506
		return 36;
20014f28:	02400793          	li	a5,36
20014f2c:	a889                	j	20014f7e <__metal_driver_sifive_gpio0_interrupt_lines+0x356>
E:\8.AWS-FreeRTOS-HiFive1\Workspace\sifive-hifive1-revb-i2c\bsp\build\debug/./metal/machine.h:508
	else if ((((uintptr_t)gpio == (uintptr_t)&__metal_dt_gpio_10012000) && (idx == 29))) {
20014f2e:	fec42703          	lw	a4,-20(s0)
20014f32:	81818793          	addi	a5,gp,-2024 # 80000aa0 <__metal_dt_gpio_10012000>
20014f36:	00f71963          	bne	a4,a5,20014f48 <__metal_driver_sifive_gpio0_interrupt_lines+0x320>
E:\8.AWS-FreeRTOS-HiFive1\Workspace\sifive-hifive1-revb-i2c\bsp\build\debug/./metal/machine.h:508 (discriminator 1)
20014f3a:	fe842703          	lw	a4,-24(s0)
20014f3e:	47f5                	li	a5,29
20014f40:	00f71463          	bne	a4,a5,20014f48 <__metal_driver_sifive_gpio0_interrupt_lines+0x320>
E:\8.AWS-FreeRTOS-HiFive1\Workspace\sifive-hifive1-revb-i2c\bsp\build\debug/./metal/machine.h:509
		return 27;
20014f44:	47ed                	li	a5,27
20014f46:	a825                	j	20014f7e <__metal_driver_sifive_gpio0_interrupt_lines+0x356>
E:\8.AWS-FreeRTOS-HiFive1\Workspace\sifive-hifive1-revb-i2c\bsp\build\debug/./metal/machine.h:511
	else if ((((uintptr_t)gpio == (uintptr_t)&__metal_dt_gpio_10012000) && (idx == 30))) {
20014f48:	fec42703          	lw	a4,-20(s0)
20014f4c:	81818793          	addi	a5,gp,-2024 # 80000aa0 <__metal_dt_gpio_10012000>
20014f50:	00f71963          	bne	a4,a5,20014f62 <__metal_driver_sifive_gpio0_interrupt_lines+0x33a>
E:\8.AWS-FreeRTOS-HiFive1\Workspace\sifive-hifive1-revb-i2c\bsp\build\debug/./metal/machine.h:511 (discriminator 1)
20014f54:	fe842703          	lw	a4,-24(s0)
20014f58:	47f9                	li	a5,30
20014f5a:	00f71463          	bne	a4,a5,20014f62 <__metal_driver_sifive_gpio0_interrupt_lines+0x33a>
E:\8.AWS-FreeRTOS-HiFive1\Workspace\sifive-hifive1-revb-i2c\bsp\build\debug/./metal/machine.h:512
		return 28;
20014f5e:	47f1                	li	a5,28
20014f60:	a839                	j	20014f7e <__metal_driver_sifive_gpio0_interrupt_lines+0x356>
E:\8.AWS-FreeRTOS-HiFive1\Workspace\sifive-hifive1-revb-i2c\bsp\build\debug/./metal/machine.h:514
	else if ((((uintptr_t)gpio == (uintptr_t)&__metal_dt_gpio_10012000) && (idx == 31))) {
20014f62:	fec42703          	lw	a4,-20(s0)
20014f66:	81818793          	addi	a5,gp,-2024 # 80000aa0 <__metal_dt_gpio_10012000>
20014f6a:	00f71963          	bne	a4,a5,20014f7c <__metal_driver_sifive_gpio0_interrupt_lines+0x354>
E:\8.AWS-FreeRTOS-HiFive1\Workspace\sifive-hifive1-revb-i2c\bsp\build\debug/./metal/machine.h:514 (discriminator 1)
20014f6e:	fe842703          	lw	a4,-24(s0)
20014f72:	47fd                	li	a5,31
20014f74:	00f71463          	bne	a4,a5,20014f7c <__metal_driver_sifive_gpio0_interrupt_lines+0x354>
E:\8.AWS-FreeRTOS-HiFive1\Workspace\sifive-hifive1-revb-i2c\bsp\build\debug/./metal/machine.h:515
		return 29;
20014f78:	47f5                	li	a5,29
20014f7a:	a011                	j	20014f7e <__metal_driver_sifive_gpio0_interrupt_lines+0x356>
E:\8.AWS-FreeRTOS-HiFive1\Workspace\sifive-hifive1-revb-i2c\bsp\build\debug/./metal/machine.h:518
		return 0;
20014f7c:	4781                	li	a5,0
E:\8.AWS-FreeRTOS-HiFive1\Workspace\sifive-hifive1-revb-i2c\bsp\build\debug/./metal/machine.h:520
}
20014f7e:	853e                	mv	a0,a5
20014f80:	4472                	lw	s0,28(sp)
20014f82:	6105                	addi	sp,sp,32
20014f84:	8082                	ret

20014f86 <__metal_driver_sifive_gpio0_enable_input>:
__metal_driver_sifive_gpio0_enable_input():
E:/8.AWS-FreeRTOS-HiFive1/Workspace/sifive-hifive1-revb-i2c/freedom-metal/src/drivers/sifive_gpio0.c:13
#include <metal/drivers/sifive_gpio0.h>
#include <metal/io.h>
#include <metal/machine.h>

int __metal_driver_sifive_gpio0_enable_input(struct metal_gpio *ggpio, long source)
{
20014f86:	7179                	addi	sp,sp,-48
20014f88:	d606                	sw	ra,44(sp)
20014f8a:	d422                	sw	s0,40(sp)
20014f8c:	1800                	addi	s0,sp,48
20014f8e:	fca42e23          	sw	a0,-36(s0)
20014f92:	fcb42c23          	sw	a1,-40(s0)
E:/8.AWS-FreeRTOS-HiFive1/Workspace/sifive-hifive1-revb-i2c/freedom-metal/src/drivers/sifive_gpio0.c:14
    long base = __metal_driver_sifive_gpio0_base(ggpio);
20014f96:	fdc42503          	lw	a0,-36(s0)
20014f9a:	c3fff0ef          	jal	ra,20014bd8 <__metal_driver_sifive_gpio0_base>
20014f9e:	87aa                	mv	a5,a0
20014fa0:	fef42623          	sw	a5,-20(s0)
E:/8.AWS-FreeRTOS-HiFive1/Workspace/sifive-hifive1-revb-i2c/freedom-metal/src/drivers/sifive_gpio0.c:16

    __METAL_ACCESS_ONCE((__metal_io_u32 *)(base + METAL_SIFIVE_GPIO0_INPUT_EN))  |= source;
20014fa4:	fec42783          	lw	a5,-20(s0)
20014fa8:	0791                	addi	a5,a5,4
20014faa:	4398                	lw	a4,0(a5)
20014fac:	fd842783          	lw	a5,-40(s0)
20014fb0:	fec42683          	lw	a3,-20(s0)
20014fb4:	0691                	addi	a3,a3,4
20014fb6:	8fd9                	or	a5,a5,a4
20014fb8:	c29c                	sw	a5,0(a3)
E:/8.AWS-FreeRTOS-HiFive1/Workspace/sifive-hifive1-revb-i2c/freedom-metal/src/drivers/sifive_gpio0.c:18

    return 0;
20014fba:	4781                	li	a5,0
E:/8.AWS-FreeRTOS-HiFive1/Workspace/sifive-hifive1-revb-i2c/freedom-metal/src/drivers/sifive_gpio0.c:19
}
20014fbc:	853e                	mv	a0,a5
20014fbe:	50b2                	lw	ra,44(sp)
20014fc0:	5422                	lw	s0,40(sp)
20014fc2:	6145                	addi	sp,sp,48
20014fc4:	8082                	ret

20014fc6 <__metal_driver_sifive_gpio0_disable_input>:
__metal_driver_sifive_gpio0_disable_input():
E:/8.AWS-FreeRTOS-HiFive1/Workspace/sifive-hifive1-revb-i2c/freedom-metal/src/drivers/sifive_gpio0.c:22

int __metal_driver_sifive_gpio0_disable_input(struct metal_gpio *ggpio, long source)
{
20014fc6:	7179                	addi	sp,sp,-48
20014fc8:	d606                	sw	ra,44(sp)
20014fca:	d422                	sw	s0,40(sp)
20014fcc:	1800                	addi	s0,sp,48
20014fce:	fca42e23          	sw	a0,-36(s0)
20014fd2:	fcb42c23          	sw	a1,-40(s0)
E:/8.AWS-FreeRTOS-HiFive1/Workspace/sifive-hifive1-revb-i2c/freedom-metal/src/drivers/sifive_gpio0.c:23
    long base = __metal_driver_sifive_gpio0_base(ggpio);
20014fd6:	fdc42503          	lw	a0,-36(s0)
20014fda:	bffff0ef          	jal	ra,20014bd8 <__metal_driver_sifive_gpio0_base>
20014fde:	87aa                	mv	a5,a0
20014fe0:	fef42623          	sw	a5,-20(s0)
E:/8.AWS-FreeRTOS-HiFive1/Workspace/sifive-hifive1-revb-i2c/freedom-metal/src/drivers/sifive_gpio0.c:25

    __METAL_ACCESS_ONCE((__metal_io_u32 *)(base + METAL_SIFIVE_GPIO0_INPUT_EN))  &= ~source;
20014fe4:	fec42783          	lw	a5,-20(s0)
20014fe8:	0791                	addi	a5,a5,4
20014fea:	439c                	lw	a5,0(a5)
20014fec:	fd842703          	lw	a4,-40(s0)
20014ff0:	fff74713          	not	a4,a4
20014ff4:	86ba                	mv	a3,a4
20014ff6:	fec42703          	lw	a4,-20(s0)
20014ffa:	0711                	addi	a4,a4,4
20014ffc:	8ff5                	and	a5,a5,a3
20014ffe:	c31c                	sw	a5,0(a4)
E:/8.AWS-FreeRTOS-HiFive1/Workspace/sifive-hifive1-revb-i2c/freedom-metal/src/drivers/sifive_gpio0.c:27

    return 0;
20015000:	4781                	li	a5,0
E:/8.AWS-FreeRTOS-HiFive1/Workspace/sifive-hifive1-revb-i2c/freedom-metal/src/drivers/sifive_gpio0.c:28
}
20015002:	853e                	mv	a0,a5
20015004:	50b2                	lw	ra,44(sp)
20015006:	5422                	lw	s0,40(sp)
20015008:	6145                	addi	sp,sp,48
2001500a:	8082                	ret

2001500c <__metal_driver_sifive_gpio0_input>:
__metal_driver_sifive_gpio0_input():
E:/8.AWS-FreeRTOS-HiFive1/Workspace/sifive-hifive1-revb-i2c/freedom-metal/src/drivers/sifive_gpio0.c:31

long __metal_driver_sifive_gpio0_input(struct metal_gpio *ggpio)
{
2001500c:	7179                	addi	sp,sp,-48
2001500e:	d606                	sw	ra,44(sp)
20015010:	d422                	sw	s0,40(sp)
20015012:	1800                	addi	s0,sp,48
20015014:	fca42e23          	sw	a0,-36(s0)
E:/8.AWS-FreeRTOS-HiFive1/Workspace/sifive-hifive1-revb-i2c/freedom-metal/src/drivers/sifive_gpio0.c:32
    long base = __metal_driver_sifive_gpio0_base(ggpio);
20015018:	fdc42503          	lw	a0,-36(s0)
2001501c:	bbdff0ef          	jal	ra,20014bd8 <__metal_driver_sifive_gpio0_base>
20015020:	87aa                	mv	a5,a0
20015022:	fef42623          	sw	a5,-20(s0)
E:/8.AWS-FreeRTOS-HiFive1/Workspace/sifive-hifive1-revb-i2c/freedom-metal/src/drivers/sifive_gpio0.c:34

    return __METAL_ACCESS_ONCE((__metal_io_u32 *)(base + METAL_SIFIVE_GPIO0_VALUE));
20015026:	fec42783          	lw	a5,-20(s0)
2001502a:	439c                	lw	a5,0(a5)
E:/8.AWS-FreeRTOS-HiFive1/Workspace/sifive-hifive1-revb-i2c/freedom-metal/src/drivers/sifive_gpio0.c:35
}
2001502c:	853e                	mv	a0,a5
2001502e:	50b2                	lw	ra,44(sp)
20015030:	5422                	lw	s0,40(sp)
20015032:	6145                	addi	sp,sp,48
20015034:	8082                	ret

20015036 <__metal_driver_sifive_gpio0_output>:
__metal_driver_sifive_gpio0_output():
E:/8.AWS-FreeRTOS-HiFive1/Workspace/sifive-hifive1-revb-i2c/freedom-metal/src/drivers/sifive_gpio0.c:38

long __metal_driver_sifive_gpio0_output(struct metal_gpio *ggpio)
{
20015036:	7179                	addi	sp,sp,-48
20015038:	d606                	sw	ra,44(sp)
2001503a:	d422                	sw	s0,40(sp)
2001503c:	1800                	addi	s0,sp,48
2001503e:	fca42e23          	sw	a0,-36(s0)
E:/8.AWS-FreeRTOS-HiFive1/Workspace/sifive-hifive1-revb-i2c/freedom-metal/src/drivers/sifive_gpio0.c:39
    long base = __metal_driver_sifive_gpio0_base(ggpio);
20015042:	fdc42503          	lw	a0,-36(s0)
20015046:	b93ff0ef          	jal	ra,20014bd8 <__metal_driver_sifive_gpio0_base>
2001504a:	87aa                	mv	a5,a0
2001504c:	fef42623          	sw	a5,-20(s0)
E:/8.AWS-FreeRTOS-HiFive1/Workspace/sifive-hifive1-revb-i2c/freedom-metal/src/drivers/sifive_gpio0.c:41

    return __METAL_ACCESS_ONCE((__metal_io_u32 *)(base + METAL_SIFIVE_GPIO0_PORT));
20015050:	fec42783          	lw	a5,-20(s0)
20015054:	07b1                	addi	a5,a5,12
20015056:	439c                	lw	a5,0(a5)
E:/8.AWS-FreeRTOS-HiFive1/Workspace/sifive-hifive1-revb-i2c/freedom-metal/src/drivers/sifive_gpio0.c:42
}
20015058:	853e                	mv	a0,a5
2001505a:	50b2                	lw	ra,44(sp)
2001505c:	5422                	lw	s0,40(sp)
2001505e:	6145                	addi	sp,sp,48
20015060:	8082                	ret

20015062 <__metal_driver_sifive_gpio0_disable_output>:
__metal_driver_sifive_gpio0_disable_output():
E:/8.AWS-FreeRTOS-HiFive1/Workspace/sifive-hifive1-revb-i2c/freedom-metal/src/drivers/sifive_gpio0.c:46


int __metal_driver_sifive_gpio0_disable_output(struct metal_gpio *ggpio, long source)
{
20015062:	7179                	addi	sp,sp,-48
20015064:	d606                	sw	ra,44(sp)
20015066:	d422                	sw	s0,40(sp)
20015068:	1800                	addi	s0,sp,48
2001506a:	fca42e23          	sw	a0,-36(s0)
2001506e:	fcb42c23          	sw	a1,-40(s0)
E:/8.AWS-FreeRTOS-HiFive1/Workspace/sifive-hifive1-revb-i2c/freedom-metal/src/drivers/sifive_gpio0.c:47
    long base = __metal_driver_sifive_gpio0_base(ggpio);
20015072:	fdc42503          	lw	a0,-36(s0)
20015076:	b63ff0ef          	jal	ra,20014bd8 <__metal_driver_sifive_gpio0_base>
2001507a:	87aa                	mv	a5,a0
2001507c:	fef42623          	sw	a5,-20(s0)
E:/8.AWS-FreeRTOS-HiFive1/Workspace/sifive-hifive1-revb-i2c/freedom-metal/src/drivers/sifive_gpio0.c:49

    __METAL_ACCESS_ONCE((__metal_io_u32 *)(base + METAL_SIFIVE_GPIO0_OUTPUT_EN))  &= ~source;
20015080:	fec42783          	lw	a5,-20(s0)
20015084:	07a1                	addi	a5,a5,8
20015086:	439c                	lw	a5,0(a5)
20015088:	fd842703          	lw	a4,-40(s0)
2001508c:	fff74713          	not	a4,a4
20015090:	86ba                	mv	a3,a4
20015092:	fec42703          	lw	a4,-20(s0)
20015096:	0721                	addi	a4,a4,8
20015098:	8ff5                	and	a5,a5,a3
2001509a:	c31c                	sw	a5,0(a4)
E:/8.AWS-FreeRTOS-HiFive1/Workspace/sifive-hifive1-revb-i2c/freedom-metal/src/drivers/sifive_gpio0.c:51

    return 0;
2001509c:	4781                	li	a5,0
E:/8.AWS-FreeRTOS-HiFive1/Workspace/sifive-hifive1-revb-i2c/freedom-metal/src/drivers/sifive_gpio0.c:52
}
2001509e:	853e                	mv	a0,a5
200150a0:	50b2                	lw	ra,44(sp)
200150a2:	5422                	lw	s0,40(sp)
200150a4:	6145                	addi	sp,sp,48
200150a6:	8082                	ret

200150a8 <__metal_driver_sifive_gpio0_enable_output>:
__metal_driver_sifive_gpio0_enable_output():
E:/8.AWS-FreeRTOS-HiFive1/Workspace/sifive-hifive1-revb-i2c/freedom-metal/src/drivers/sifive_gpio0.c:55

int __metal_driver_sifive_gpio0_enable_output(struct metal_gpio *ggpio, long source)
{
200150a8:	7179                	addi	sp,sp,-48
200150aa:	d606                	sw	ra,44(sp)
200150ac:	d422                	sw	s0,40(sp)
200150ae:	1800                	addi	s0,sp,48
200150b0:	fca42e23          	sw	a0,-36(s0)
200150b4:	fcb42c23          	sw	a1,-40(s0)
E:/8.AWS-FreeRTOS-HiFive1/Workspace/sifive-hifive1-revb-i2c/freedom-metal/src/drivers/sifive_gpio0.c:56
    long base = __metal_driver_sifive_gpio0_base(ggpio);
200150b8:	fdc42503          	lw	a0,-36(s0)
200150bc:	b1dff0ef          	jal	ra,20014bd8 <__metal_driver_sifive_gpio0_base>
200150c0:	87aa                	mv	a5,a0
200150c2:	fef42623          	sw	a5,-20(s0)
E:/8.AWS-FreeRTOS-HiFive1/Workspace/sifive-hifive1-revb-i2c/freedom-metal/src/drivers/sifive_gpio0.c:58

    __METAL_ACCESS_ONCE((__metal_io_u32 *)(base + METAL_SIFIVE_GPIO0_OUTPUT_EN))  |= source;
200150c6:	fec42783          	lw	a5,-20(s0)
200150ca:	07a1                	addi	a5,a5,8
200150cc:	4398                	lw	a4,0(a5)
200150ce:	fd842783          	lw	a5,-40(s0)
200150d2:	fec42683          	lw	a3,-20(s0)
200150d6:	06a1                	addi	a3,a3,8
200150d8:	8fd9                	or	a5,a5,a4
200150da:	c29c                	sw	a5,0(a3)
E:/8.AWS-FreeRTOS-HiFive1/Workspace/sifive-hifive1-revb-i2c/freedom-metal/src/drivers/sifive_gpio0.c:60

    return 0;
200150dc:	4781                	li	a5,0
E:/8.AWS-FreeRTOS-HiFive1/Workspace/sifive-hifive1-revb-i2c/freedom-metal/src/drivers/sifive_gpio0.c:61
}
200150de:	853e                	mv	a0,a5
200150e0:	50b2                	lw	ra,44(sp)
200150e2:	5422                	lw	s0,40(sp)
200150e4:	6145                	addi	sp,sp,48
200150e6:	8082                	ret

200150e8 <__metal_driver_sifive_gpio0_output_set>:
__metal_driver_sifive_gpio0_output_set():
E:/8.AWS-FreeRTOS-HiFive1/Workspace/sifive-hifive1-revb-i2c/freedom-metal/src/drivers/sifive_gpio0.c:64

int __metal_driver_sifive_gpio0_output_set(struct metal_gpio *ggpio, long value)
{
200150e8:	7179                	addi	sp,sp,-48
200150ea:	d606                	sw	ra,44(sp)
200150ec:	d422                	sw	s0,40(sp)
200150ee:	1800                	addi	s0,sp,48
200150f0:	fca42e23          	sw	a0,-36(s0)
200150f4:	fcb42c23          	sw	a1,-40(s0)
E:/8.AWS-FreeRTOS-HiFive1/Workspace/sifive-hifive1-revb-i2c/freedom-metal/src/drivers/sifive_gpio0.c:65
    long base = __metal_driver_sifive_gpio0_base(ggpio);
200150f8:	fdc42503          	lw	a0,-36(s0)
200150fc:	addff0ef          	jal	ra,20014bd8 <__metal_driver_sifive_gpio0_base>
20015100:	87aa                	mv	a5,a0
20015102:	fef42623          	sw	a5,-20(s0)
E:/8.AWS-FreeRTOS-HiFive1/Workspace/sifive-hifive1-revb-i2c/freedom-metal/src/drivers/sifive_gpio0.c:67

    __METAL_ACCESS_ONCE((__metal_io_u32 *)(base + METAL_SIFIVE_GPIO0_PORT)) |= value;
20015106:	fec42783          	lw	a5,-20(s0)
2001510a:	07b1                	addi	a5,a5,12
2001510c:	4398                	lw	a4,0(a5)
2001510e:	fd842783          	lw	a5,-40(s0)
20015112:	fec42683          	lw	a3,-20(s0)
20015116:	06b1                	addi	a3,a3,12
20015118:	8fd9                	or	a5,a5,a4
2001511a:	c29c                	sw	a5,0(a3)
E:/8.AWS-FreeRTOS-HiFive1/Workspace/sifive-hifive1-revb-i2c/freedom-metal/src/drivers/sifive_gpio0.c:69

    return 0;
2001511c:	4781                	li	a5,0
E:/8.AWS-FreeRTOS-HiFive1/Workspace/sifive-hifive1-revb-i2c/freedom-metal/src/drivers/sifive_gpio0.c:70
}
2001511e:	853e                	mv	a0,a5
20015120:	50b2                	lw	ra,44(sp)
20015122:	5422                	lw	s0,40(sp)
20015124:	6145                	addi	sp,sp,48
20015126:	8082                	ret

20015128 <__metal_driver_sifive_gpio0_output_clear>:
__metal_driver_sifive_gpio0_output_clear():
E:/8.AWS-FreeRTOS-HiFive1/Workspace/sifive-hifive1-revb-i2c/freedom-metal/src/drivers/sifive_gpio0.c:73

int __metal_driver_sifive_gpio0_output_clear(struct metal_gpio *ggpio, long value)
{
20015128:	7179                	addi	sp,sp,-48
2001512a:	d606                	sw	ra,44(sp)
2001512c:	d422                	sw	s0,40(sp)
2001512e:	1800                	addi	s0,sp,48
20015130:	fca42e23          	sw	a0,-36(s0)
20015134:	fcb42c23          	sw	a1,-40(s0)
E:/8.AWS-FreeRTOS-HiFive1/Workspace/sifive-hifive1-revb-i2c/freedom-metal/src/drivers/sifive_gpio0.c:74
    long base = __metal_driver_sifive_gpio0_base(ggpio);
20015138:	fdc42503          	lw	a0,-36(s0)
2001513c:	a9dff0ef          	jal	ra,20014bd8 <__metal_driver_sifive_gpio0_base>
20015140:	87aa                	mv	a5,a0
20015142:	fef42623          	sw	a5,-20(s0)
E:/8.AWS-FreeRTOS-HiFive1/Workspace/sifive-hifive1-revb-i2c/freedom-metal/src/drivers/sifive_gpio0.c:76

    __METAL_ACCESS_ONCE((__metal_io_u32 *)(base + METAL_SIFIVE_GPIO0_PORT)) &= ~value;
20015146:	fec42783          	lw	a5,-20(s0)
2001514a:	07b1                	addi	a5,a5,12
2001514c:	439c                	lw	a5,0(a5)
2001514e:	fd842703          	lw	a4,-40(s0)
20015152:	fff74713          	not	a4,a4
20015156:	86ba                	mv	a3,a4
20015158:	fec42703          	lw	a4,-20(s0)
2001515c:	0731                	addi	a4,a4,12
2001515e:	8ff5                	and	a5,a5,a3
20015160:	c31c                	sw	a5,0(a4)
E:/8.AWS-FreeRTOS-HiFive1/Workspace/sifive-hifive1-revb-i2c/freedom-metal/src/drivers/sifive_gpio0.c:78

    return 0;
20015162:	4781                	li	a5,0
E:/8.AWS-FreeRTOS-HiFive1/Workspace/sifive-hifive1-revb-i2c/freedom-metal/src/drivers/sifive_gpio0.c:79
}
20015164:	853e                	mv	a0,a5
20015166:	50b2                	lw	ra,44(sp)
20015168:	5422                	lw	s0,40(sp)
2001516a:	6145                	addi	sp,sp,48
2001516c:	8082                	ret

2001516e <__metal_driver_sifive_gpio0_output_toggle>:
__metal_driver_sifive_gpio0_output_toggle():
E:/8.AWS-FreeRTOS-HiFive1/Workspace/sifive-hifive1-revb-i2c/freedom-metal/src/drivers/sifive_gpio0.c:82

int __metal_driver_sifive_gpio0_output_toggle(struct metal_gpio *ggpio, long value)
{
2001516e:	7179                	addi	sp,sp,-48
20015170:	d606                	sw	ra,44(sp)
20015172:	d422                	sw	s0,40(sp)
20015174:	1800                	addi	s0,sp,48
20015176:	fca42e23          	sw	a0,-36(s0)
2001517a:	fcb42c23          	sw	a1,-40(s0)
E:/8.AWS-FreeRTOS-HiFive1/Workspace/sifive-hifive1-revb-i2c/freedom-metal/src/drivers/sifive_gpio0.c:83
    long base = __metal_driver_sifive_gpio0_base(ggpio);
2001517e:	fdc42503          	lw	a0,-36(s0)
20015182:	a57ff0ef          	jal	ra,20014bd8 <__metal_driver_sifive_gpio0_base>
20015186:	87aa                	mv	a5,a0
20015188:	fef42623          	sw	a5,-20(s0)
E:/8.AWS-FreeRTOS-HiFive1/Workspace/sifive-hifive1-revb-i2c/freedom-metal/src/drivers/sifive_gpio0.c:86

    __METAL_ACCESS_ONCE((__metal_io_u32 *)(base + METAL_SIFIVE_GPIO0_PORT)) =
	__METAL_ACCESS_ONCE((__metal_io_u32 *)(base + METAL_SIFIVE_GPIO0_PORT)) ^ value;
2001518c:	fec42783          	lw	a5,-20(s0)
20015190:	07b1                	addi	a5,a5,12
20015192:	4398                	lw	a4,0(a5)
20015194:	fd842783          	lw	a5,-40(s0)
E:/8.AWS-FreeRTOS-HiFive1/Workspace/sifive-hifive1-revb-i2c/freedom-metal/src/drivers/sifive_gpio0.c:85
    __METAL_ACCESS_ONCE((__metal_io_u32 *)(base + METAL_SIFIVE_GPIO0_PORT)) =
20015198:	fec42683          	lw	a3,-20(s0)
2001519c:	06b1                	addi	a3,a3,12
E:/8.AWS-FreeRTOS-HiFive1/Workspace/sifive-hifive1-revb-i2c/freedom-metal/src/drivers/sifive_gpio0.c:86
	__METAL_ACCESS_ONCE((__metal_io_u32 *)(base + METAL_SIFIVE_GPIO0_PORT)) ^ value;
2001519e:	8fb9                	xor	a5,a5,a4
E:/8.AWS-FreeRTOS-HiFive1/Workspace/sifive-hifive1-revb-i2c/freedom-metal/src/drivers/sifive_gpio0.c:85
    __METAL_ACCESS_ONCE((__metal_io_u32 *)(base + METAL_SIFIVE_GPIO0_PORT)) =
200151a0:	c29c                	sw	a5,0(a3)
E:/8.AWS-FreeRTOS-HiFive1/Workspace/sifive-hifive1-revb-i2c/freedom-metal/src/drivers/sifive_gpio0.c:88

    return 0;
200151a2:	4781                	li	a5,0
E:/8.AWS-FreeRTOS-HiFive1/Workspace/sifive-hifive1-revb-i2c/freedom-metal/src/drivers/sifive_gpio0.c:89
}
200151a4:	853e                	mv	a0,a5
200151a6:	50b2                	lw	ra,44(sp)
200151a8:	5422                	lw	s0,40(sp)
200151aa:	6145                	addi	sp,sp,48
200151ac:	8082                	ret

200151ae <__metal_driver_sifive_gpio0_enable_io>:
__metal_driver_sifive_gpio0_enable_io():
E:/8.AWS-FreeRTOS-HiFive1/Workspace/sifive-hifive1-revb-i2c/freedom-metal/src/drivers/sifive_gpio0.c:92

int __metal_driver_sifive_gpio0_enable_io(struct metal_gpio *ggpio, long source, long dest)
{
200151ae:	7179                	addi	sp,sp,-48
200151b0:	d606                	sw	ra,44(sp)
200151b2:	d422                	sw	s0,40(sp)
200151b4:	1800                	addi	s0,sp,48
200151b6:	fca42e23          	sw	a0,-36(s0)
200151ba:	fcb42c23          	sw	a1,-40(s0)
200151be:	fcc42a23          	sw	a2,-44(s0)
E:/8.AWS-FreeRTOS-HiFive1/Workspace/sifive-hifive1-revb-i2c/freedom-metal/src/drivers/sifive_gpio0.c:93
    long base = __metal_driver_sifive_gpio0_base(ggpio);
200151c2:	fdc42503          	lw	a0,-36(s0)
200151c6:	a13ff0ef          	jal	ra,20014bd8 <__metal_driver_sifive_gpio0_base>
200151ca:	87aa                	mv	a5,a0
200151cc:	fef42623          	sw	a5,-20(s0)
E:/8.AWS-FreeRTOS-HiFive1/Workspace/sifive-hifive1-revb-i2c/freedom-metal/src/drivers/sifive_gpio0.c:95

    __METAL_ACCESS_ONCE((__metal_io_u32 *)(base + METAL_SIFIVE_GPIO0_IOF_SEL)) &= ~source;
200151d0:	fec42783          	lw	a5,-20(s0)
200151d4:	03c78793          	addi	a5,a5,60
200151d8:	439c                	lw	a5,0(a5)
200151da:	fd842703          	lw	a4,-40(s0)
200151de:	fff74713          	not	a4,a4
200151e2:	86ba                	mv	a3,a4
200151e4:	fec42703          	lw	a4,-20(s0)
200151e8:	03c70713          	addi	a4,a4,60
200151ec:	8ff5                	and	a5,a5,a3
200151ee:	c31c                	sw	a5,0(a4)
E:/8.AWS-FreeRTOS-HiFive1/Workspace/sifive-hifive1-revb-i2c/freedom-metal/src/drivers/sifive_gpio0.c:96
    __METAL_ACCESS_ONCE((__metal_io_u32 *)(base + METAL_SIFIVE_GPIO0_IOF_EN))  |= dest;
200151f0:	fec42783          	lw	a5,-20(s0)
200151f4:	03878793          	addi	a5,a5,56
200151f8:	4398                	lw	a4,0(a5)
200151fa:	fd442783          	lw	a5,-44(s0)
200151fe:	fec42683          	lw	a3,-20(s0)
20015202:	03868693          	addi	a3,a3,56
20015206:	8fd9                	or	a5,a5,a4
20015208:	c29c                	sw	a5,0(a3)
E:/8.AWS-FreeRTOS-HiFive1/Workspace/sifive-hifive1-revb-i2c/freedom-metal/src/drivers/sifive_gpio0.c:98

    return 0;
2001520a:	4781                	li	a5,0
E:/8.AWS-FreeRTOS-HiFive1/Workspace/sifive-hifive1-revb-i2c/freedom-metal/src/drivers/sifive_gpio0.c:99
}
2001520c:	853e                	mv	a0,a5
2001520e:	50b2                	lw	ra,44(sp)
20015210:	5422                	lw	s0,40(sp)
20015212:	6145                	addi	sp,sp,48
20015214:	8082                	ret

20015216 <__metal_driver_sifive_gpio0_disable_io>:
__metal_driver_sifive_gpio0_disable_io():
E:/8.AWS-FreeRTOS-HiFive1/Workspace/sifive-hifive1-revb-i2c/freedom-metal/src/drivers/sifive_gpio0.c:102

int __metal_driver_sifive_gpio0_disable_io(struct metal_gpio *ggpio, long source)
{
20015216:	7179                	addi	sp,sp,-48
20015218:	d606                	sw	ra,44(sp)
2001521a:	d422                	sw	s0,40(sp)
2001521c:	1800                	addi	s0,sp,48
2001521e:	fca42e23          	sw	a0,-36(s0)
20015222:	fcb42c23          	sw	a1,-40(s0)
E:/8.AWS-FreeRTOS-HiFive1/Workspace/sifive-hifive1-revb-i2c/freedom-metal/src/drivers/sifive_gpio0.c:103
    long base = __metal_driver_sifive_gpio0_base(ggpio);
20015226:	fdc42503          	lw	a0,-36(s0)
2001522a:	9afff0ef          	jal	ra,20014bd8 <__metal_driver_sifive_gpio0_base>
2001522e:	87aa                	mv	a5,a0
20015230:	fef42623          	sw	a5,-20(s0)
E:/8.AWS-FreeRTOS-HiFive1/Workspace/sifive-hifive1-revb-i2c/freedom-metal/src/drivers/sifive_gpio0.c:105

    __METAL_ACCESS_ONCE((__metal_io_u32 *)(base + METAL_SIFIVE_GPIO0_IOF_EN))  &= ~source;
20015234:	fec42783          	lw	a5,-20(s0)
20015238:	03878793          	addi	a5,a5,56
2001523c:	439c                	lw	a5,0(a5)
2001523e:	fd842703          	lw	a4,-40(s0)
20015242:	fff74713          	not	a4,a4
20015246:	86ba                	mv	a3,a4
20015248:	fec42703          	lw	a4,-20(s0)
2001524c:	03870713          	addi	a4,a4,56
20015250:	8ff5                	and	a5,a5,a3
20015252:	c31c                	sw	a5,0(a4)
E:/8.AWS-FreeRTOS-HiFive1/Workspace/sifive-hifive1-revb-i2c/freedom-metal/src/drivers/sifive_gpio0.c:107

    return 0;
20015254:	4781                	li	a5,0
E:/8.AWS-FreeRTOS-HiFive1/Workspace/sifive-hifive1-revb-i2c/freedom-metal/src/drivers/sifive_gpio0.c:108
}
20015256:	853e                	mv	a0,a5
20015258:	50b2                	lw	ra,44(sp)
2001525a:	5422                	lw	s0,40(sp)
2001525c:	6145                	addi	sp,sp,48
2001525e:	8082                	ret

20015260 <__metal_driver_sifive_gpio0_config_int>:
__metal_driver_sifive_gpio0_config_int():
E:/8.AWS-FreeRTOS-HiFive1/Workspace/sifive-hifive1-revb-i2c/freedom-metal/src/drivers/sifive_gpio0.c:111

int __metal_driver_sifive_gpio0_config_int(struct metal_gpio *ggpio, long source, int intr_type)
{
20015260:	7179                	addi	sp,sp,-48
20015262:	d606                	sw	ra,44(sp)
20015264:	d422                	sw	s0,40(sp)
20015266:	1800                	addi	s0,sp,48
20015268:	fca42e23          	sw	a0,-36(s0)
2001526c:	fcb42c23          	sw	a1,-40(s0)
20015270:	fcc42a23          	sw	a2,-44(s0)
E:/8.AWS-FreeRTOS-HiFive1/Workspace/sifive-hifive1-revb-i2c/freedom-metal/src/drivers/sifive_gpio0.c:112
    long base = __metal_driver_sifive_gpio0_base(ggpio);
20015274:	fdc42503          	lw	a0,-36(s0)
20015278:	961ff0ef          	jal	ra,20014bd8 <__metal_driver_sifive_gpio0_base>
2001527c:	87aa                	mv	a5,a0
2001527e:	fef42623          	sw	a5,-20(s0)
E:/8.AWS-FreeRTOS-HiFive1/Workspace/sifive-hifive1-revb-i2c/freedom-metal/src/drivers/sifive_gpio0.c:114

    switch (intr_type)
20015282:	fd442703          	lw	a4,-44(s0)
20015286:	479d                	li	a5,7
20015288:	1ce7e963          	bltu	a5,a4,2001545a <__metal_driver_sifive_gpio0_config_int+0x1fa>
2001528c:	fd442783          	lw	a5,-44(s0)
20015290:	00279713          	slli	a4,a5,0x2
20015294:	200187b7          	lui	a5,0x20018
20015298:	b0878793          	addi	a5,a5,-1272 # 20017b08 <__metal_driver_vtable_sifive_fe310_g000_pll+0xc>
2001529c:	97ba                	add	a5,a5,a4
2001529e:	439c                	lw	a5,0(a5)
200152a0:	8782                	jr	a5
E:/8.AWS-FreeRTOS-HiFive1/Workspace/sifive-hifive1-revb-i2c/freedom-metal/src/drivers/sifive_gpio0.c:117
    {
        case METAL_GPIO_INT_DISABLE:
            __METAL_ACCESS_ONCE((__metal_io_u32 *)(base + METAL_SIFIVE_GPIO0_RISE_IE))  &= ~source;
200152a2:	fec42783          	lw	a5,-20(s0)
200152a6:	07e1                	addi	a5,a5,24
200152a8:	439c                	lw	a5,0(a5)
200152aa:	fd842703          	lw	a4,-40(s0)
200152ae:	fff74713          	not	a4,a4
200152b2:	86ba                	mv	a3,a4
200152b4:	fec42703          	lw	a4,-20(s0)
200152b8:	0761                	addi	a4,a4,24
200152ba:	8ff5                	and	a5,a5,a3
200152bc:	c31c                	sw	a5,0(a4)
E:/8.AWS-FreeRTOS-HiFive1/Workspace/sifive-hifive1-revb-i2c/freedom-metal/src/drivers/sifive_gpio0.c:118
            __METAL_ACCESS_ONCE((__metal_io_u32 *)(base + METAL_SIFIVE_GPIO0_FALL_IE))  &= ~source;
200152be:	fec42783          	lw	a5,-20(s0)
200152c2:	02078793          	addi	a5,a5,32
200152c6:	439c                	lw	a5,0(a5)
200152c8:	fd842703          	lw	a4,-40(s0)
200152cc:	fff74713          	not	a4,a4
200152d0:	86ba                	mv	a3,a4
200152d2:	fec42703          	lw	a4,-20(s0)
200152d6:	02070713          	addi	a4,a4,32
200152da:	8ff5                	and	a5,a5,a3
200152dc:	c31c                	sw	a5,0(a4)
E:/8.AWS-FreeRTOS-HiFive1/Workspace/sifive-hifive1-revb-i2c/freedom-metal/src/drivers/sifive_gpio0.c:119
            __METAL_ACCESS_ONCE((__metal_io_u32 *)(base + METAL_SIFIVE_GPIO0_HIGH_IE))  &= ~source;
200152de:	fec42783          	lw	a5,-20(s0)
200152e2:	02878793          	addi	a5,a5,40
200152e6:	439c                	lw	a5,0(a5)
200152e8:	fd842703          	lw	a4,-40(s0)
200152ec:	fff74713          	not	a4,a4
200152f0:	86ba                	mv	a3,a4
200152f2:	fec42703          	lw	a4,-20(s0)
200152f6:	02870713          	addi	a4,a4,40
200152fa:	8ff5                	and	a5,a5,a3
200152fc:	c31c                	sw	a5,0(a4)
E:/8.AWS-FreeRTOS-HiFive1/Workspace/sifive-hifive1-revb-i2c/freedom-metal/src/drivers/sifive_gpio0.c:120
            __METAL_ACCESS_ONCE((__metal_io_u32 *)(base + METAL_SIFIVE_GPIO0_LOW_IE))  &= ~source;
200152fe:	fec42783          	lw	a5,-20(s0)
20015302:	03078793          	addi	a5,a5,48
20015306:	439c                	lw	a5,0(a5)
20015308:	fd842703          	lw	a4,-40(s0)
2001530c:	fff74713          	not	a4,a4
20015310:	86ba                	mv	a3,a4
20015312:	fec42703          	lw	a4,-20(s0)
20015316:	03070713          	addi	a4,a4,48
2001531a:	8ff5                	and	a5,a5,a3
2001531c:	c31c                	sw	a5,0(a4)
E:/8.AWS-FreeRTOS-HiFive1/Workspace/sifive-hifive1-revb-i2c/freedom-metal/src/drivers/sifive_gpio0.c:121
            break;
2001531e:	aa35                	j	2001545a <__metal_driver_sifive_gpio0_config_int+0x1fa>
E:/8.AWS-FreeRTOS-HiFive1/Workspace/sifive-hifive1-revb-i2c/freedom-metal/src/drivers/sifive_gpio0.c:123
        case METAL_GPIO_INT_RISING:
            __METAL_ACCESS_ONCE((__metal_io_u32 *)(base + METAL_SIFIVE_GPIO0_RISE_IE))  |= source;
20015320:	fec42783          	lw	a5,-20(s0)
20015324:	07e1                	addi	a5,a5,24
20015326:	4398                	lw	a4,0(a5)
20015328:	fd842783          	lw	a5,-40(s0)
2001532c:	fec42683          	lw	a3,-20(s0)
20015330:	06e1                	addi	a3,a3,24
20015332:	8fd9                	or	a5,a5,a4
20015334:	c29c                	sw	a5,0(a3)
E:/8.AWS-FreeRTOS-HiFive1/Workspace/sifive-hifive1-revb-i2c/freedom-metal/src/drivers/sifive_gpio0.c:124
            break;
20015336:	a215                	j	2001545a <__metal_driver_sifive_gpio0_config_int+0x1fa>
E:/8.AWS-FreeRTOS-HiFive1/Workspace/sifive-hifive1-revb-i2c/freedom-metal/src/drivers/sifive_gpio0.c:126
        case METAL_GPIO_INT_FALLING:
            __METAL_ACCESS_ONCE((__metal_io_u32 *)(base + METAL_SIFIVE_GPIO0_FALL_IE))  |= source;
20015338:	fec42783          	lw	a5,-20(s0)
2001533c:	02078793          	addi	a5,a5,32
20015340:	4398                	lw	a4,0(a5)
20015342:	fd842783          	lw	a5,-40(s0)
20015346:	fec42683          	lw	a3,-20(s0)
2001534a:	02068693          	addi	a3,a3,32
2001534e:	8fd9                	or	a5,a5,a4
20015350:	c29c                	sw	a5,0(a3)
E:/8.AWS-FreeRTOS-HiFive1/Workspace/sifive-hifive1-revb-i2c/freedom-metal/src/drivers/sifive_gpio0.c:127
            break;
20015352:	a221                	j	2001545a <__metal_driver_sifive_gpio0_config_int+0x1fa>
E:/8.AWS-FreeRTOS-HiFive1/Workspace/sifive-hifive1-revb-i2c/freedom-metal/src/drivers/sifive_gpio0.c:129
        case METAL_GPIO_INT_BOTH_EDGE:
            __METAL_ACCESS_ONCE((__metal_io_u32 *)(base + METAL_SIFIVE_GPIO0_RISE_IE))  |= source;
20015354:	fec42783          	lw	a5,-20(s0)
20015358:	07e1                	addi	a5,a5,24
2001535a:	4398                	lw	a4,0(a5)
2001535c:	fd842783          	lw	a5,-40(s0)
20015360:	fec42683          	lw	a3,-20(s0)
20015364:	06e1                	addi	a3,a3,24
20015366:	8fd9                	or	a5,a5,a4
20015368:	c29c                	sw	a5,0(a3)
E:/8.AWS-FreeRTOS-HiFive1/Workspace/sifive-hifive1-revb-i2c/freedom-metal/src/drivers/sifive_gpio0.c:130
            __METAL_ACCESS_ONCE((__metal_io_u32 *)(base + METAL_SIFIVE_GPIO0_FALL_IE))  |= source;
2001536a:	fec42783          	lw	a5,-20(s0)
2001536e:	02078793          	addi	a5,a5,32
20015372:	4398                	lw	a4,0(a5)
20015374:	fd842783          	lw	a5,-40(s0)
20015378:	fec42683          	lw	a3,-20(s0)
2001537c:	02068693          	addi	a3,a3,32
20015380:	8fd9                	or	a5,a5,a4
20015382:	c29c                	sw	a5,0(a3)
E:/8.AWS-FreeRTOS-HiFive1/Workspace/sifive-hifive1-revb-i2c/freedom-metal/src/drivers/sifive_gpio0.c:131
            break;
20015384:	a8d9                	j	2001545a <__metal_driver_sifive_gpio0_config_int+0x1fa>
E:/8.AWS-FreeRTOS-HiFive1/Workspace/sifive-hifive1-revb-i2c/freedom-metal/src/drivers/sifive_gpio0.c:133
        case METAL_GPIO_INT_HIGH:
            __METAL_ACCESS_ONCE((__metal_io_u32 *)(base + METAL_SIFIVE_GPIO0_HIGH_IE))  |= source;
20015386:	fec42783          	lw	a5,-20(s0)
2001538a:	02878793          	addi	a5,a5,40
2001538e:	4398                	lw	a4,0(a5)
20015390:	fd842783          	lw	a5,-40(s0)
20015394:	fec42683          	lw	a3,-20(s0)
20015398:	02868693          	addi	a3,a3,40
2001539c:	8fd9                	or	a5,a5,a4
2001539e:	c29c                	sw	a5,0(a3)
E:/8.AWS-FreeRTOS-HiFive1/Workspace/sifive-hifive1-revb-i2c/freedom-metal/src/drivers/sifive_gpio0.c:134
            break;
200153a0:	a86d                	j	2001545a <__metal_driver_sifive_gpio0_config_int+0x1fa>
E:/8.AWS-FreeRTOS-HiFive1/Workspace/sifive-hifive1-revb-i2c/freedom-metal/src/drivers/sifive_gpio0.c:136
        case METAL_GPIO_INT_LOW:
            __METAL_ACCESS_ONCE((__metal_io_u32 *)(base + METAL_SIFIVE_GPIO0_LOW_IE))  |= source;
200153a2:	fec42783          	lw	a5,-20(s0)
200153a6:	03078793          	addi	a5,a5,48
200153aa:	4398                	lw	a4,0(a5)
200153ac:	fd842783          	lw	a5,-40(s0)
200153b0:	fec42683          	lw	a3,-20(s0)
200153b4:	03068693          	addi	a3,a3,48
200153b8:	8fd9                	or	a5,a5,a4
200153ba:	c29c                	sw	a5,0(a3)
E:/8.AWS-FreeRTOS-HiFive1/Workspace/sifive-hifive1-revb-i2c/freedom-metal/src/drivers/sifive_gpio0.c:137
            break;
200153bc:	a879                	j	2001545a <__metal_driver_sifive_gpio0_config_int+0x1fa>
E:/8.AWS-FreeRTOS-HiFive1/Workspace/sifive-hifive1-revb-i2c/freedom-metal/src/drivers/sifive_gpio0.c:139
        case METAL_GPIO_INT_BOTH_LEVEL:
            __METAL_ACCESS_ONCE((__metal_io_u32 *)(base + METAL_SIFIVE_GPIO0_HIGH_IE))  |= source;
200153be:	fec42783          	lw	a5,-20(s0)
200153c2:	02878793          	addi	a5,a5,40
200153c6:	4398                	lw	a4,0(a5)
200153c8:	fd842783          	lw	a5,-40(s0)
200153cc:	fec42683          	lw	a3,-20(s0)
200153d0:	02868693          	addi	a3,a3,40
200153d4:	8fd9                	or	a5,a5,a4
200153d6:	c29c                	sw	a5,0(a3)
E:/8.AWS-FreeRTOS-HiFive1/Workspace/sifive-hifive1-revb-i2c/freedom-metal/src/drivers/sifive_gpio0.c:140
            __METAL_ACCESS_ONCE((__metal_io_u32 *)(base + METAL_SIFIVE_GPIO0_LOW_IE))  |= source;
200153d8:	fec42783          	lw	a5,-20(s0)
200153dc:	03078793          	addi	a5,a5,48
200153e0:	4398                	lw	a4,0(a5)
200153e2:	fd842783          	lw	a5,-40(s0)
200153e6:	fec42683          	lw	a3,-20(s0)
200153ea:	03068693          	addi	a3,a3,48
200153ee:	8fd9                	or	a5,a5,a4
200153f0:	c29c                	sw	a5,0(a3)
E:/8.AWS-FreeRTOS-HiFive1/Workspace/sifive-hifive1-revb-i2c/freedom-metal/src/drivers/sifive_gpio0.c:141
            break;
200153f2:	a0a5                	j	2001545a <__metal_driver_sifive_gpio0_config_int+0x1fa>
E:/8.AWS-FreeRTOS-HiFive1/Workspace/sifive-hifive1-revb-i2c/freedom-metal/src/drivers/sifive_gpio0.c:143
        case METAL_GPIO_INT_MAX:
            __METAL_ACCESS_ONCE((__metal_io_u32 *)(base + METAL_SIFIVE_GPIO0_RISE_IE))  |= source;
200153f4:	fec42783          	lw	a5,-20(s0)
200153f8:	07e1                	addi	a5,a5,24
200153fa:	4398                	lw	a4,0(a5)
200153fc:	fd842783          	lw	a5,-40(s0)
20015400:	fec42683          	lw	a3,-20(s0)
20015404:	06e1                	addi	a3,a3,24
20015406:	8fd9                	or	a5,a5,a4
20015408:	c29c                	sw	a5,0(a3)
E:/8.AWS-FreeRTOS-HiFive1/Workspace/sifive-hifive1-revb-i2c/freedom-metal/src/drivers/sifive_gpio0.c:144
            __METAL_ACCESS_ONCE((__metal_io_u32 *)(base + METAL_SIFIVE_GPIO0_FALL_IE))  |= source;
2001540a:	fec42783          	lw	a5,-20(s0)
2001540e:	02078793          	addi	a5,a5,32
20015412:	4398                	lw	a4,0(a5)
20015414:	fd842783          	lw	a5,-40(s0)
20015418:	fec42683          	lw	a3,-20(s0)
2001541c:	02068693          	addi	a3,a3,32
20015420:	8fd9                	or	a5,a5,a4
20015422:	c29c                	sw	a5,0(a3)
E:/8.AWS-FreeRTOS-HiFive1/Workspace/sifive-hifive1-revb-i2c/freedom-metal/src/drivers/sifive_gpio0.c:145
            __METAL_ACCESS_ONCE((__metal_io_u32 *)(base + METAL_SIFIVE_GPIO0_HIGH_IE))  |= source;
20015424:	fec42783          	lw	a5,-20(s0)
20015428:	02878793          	addi	a5,a5,40
2001542c:	4398                	lw	a4,0(a5)
2001542e:	fd842783          	lw	a5,-40(s0)
20015432:	fec42683          	lw	a3,-20(s0)
20015436:	02868693          	addi	a3,a3,40
2001543a:	8fd9                	or	a5,a5,a4
2001543c:	c29c                	sw	a5,0(a3)
E:/8.AWS-FreeRTOS-HiFive1/Workspace/sifive-hifive1-revb-i2c/freedom-metal/src/drivers/sifive_gpio0.c:146
            __METAL_ACCESS_ONCE((__metal_io_u32 *)(base + METAL_SIFIVE_GPIO0_LOW_IE))  |= source;
2001543e:	fec42783          	lw	a5,-20(s0)
20015442:	03078793          	addi	a5,a5,48
20015446:	4398                	lw	a4,0(a5)
20015448:	fd842783          	lw	a5,-40(s0)
2001544c:	fec42683          	lw	a3,-20(s0)
20015450:	03068693          	addi	a3,a3,48
20015454:	8fd9                	or	a5,a5,a4
20015456:	c29c                	sw	a5,0(a3)
E:/8.AWS-FreeRTOS-HiFive1/Workspace/sifive-hifive1-revb-i2c/freedom-metal/src/drivers/sifive_gpio0.c:147
            break;
20015458:	0001                	nop
E:/8.AWS-FreeRTOS-HiFive1/Workspace/sifive-hifive1-revb-i2c/freedom-metal/src/drivers/sifive_gpio0.c:149
    }
    return 0;
2001545a:	4781                	li	a5,0
E:/8.AWS-FreeRTOS-HiFive1/Workspace/sifive-hifive1-revb-i2c/freedom-metal/src/drivers/sifive_gpio0.c:150
}
2001545c:	853e                	mv	a0,a5
2001545e:	50b2                	lw	ra,44(sp)
20015460:	5422                	lw	s0,40(sp)
20015462:	6145                	addi	sp,sp,48
20015464:	8082                	ret

20015466 <__metal_driver_sifive_gpio0_clear_int>:
__metal_driver_sifive_gpio0_clear_int():
E:/8.AWS-FreeRTOS-HiFive1/Workspace/sifive-hifive1-revb-i2c/freedom-metal/src/drivers/sifive_gpio0.c:153

int __metal_driver_sifive_gpio0_clear_int(struct metal_gpio *ggpio, long source, int intr_type)
{
20015466:	7179                	addi	sp,sp,-48
20015468:	d606                	sw	ra,44(sp)
2001546a:	d422                	sw	s0,40(sp)
2001546c:	1800                	addi	s0,sp,48
2001546e:	fca42e23          	sw	a0,-36(s0)
20015472:	fcb42c23          	sw	a1,-40(s0)
20015476:	fcc42a23          	sw	a2,-44(s0)
E:/8.AWS-FreeRTOS-HiFive1/Workspace/sifive-hifive1-revb-i2c/freedom-metal/src/drivers/sifive_gpio0.c:154
    long base = __metal_driver_sifive_gpio0_base(ggpio);
2001547a:	fdc42503          	lw	a0,-36(s0)
2001547e:	f5aff0ef          	jal	ra,20014bd8 <__metal_driver_sifive_gpio0_base>
20015482:	87aa                	mv	a5,a0
20015484:	fef42623          	sw	a5,-20(s0)
E:/8.AWS-FreeRTOS-HiFive1/Workspace/sifive-hifive1-revb-i2c/freedom-metal/src/drivers/sifive_gpio0.c:156

    switch (intr_type)
20015488:	fd442703          	lw	a4,-44(s0)
2001548c:	479d                	li	a5,7
2001548e:	14e7ea63          	bltu	a5,a4,200155e2 <__metal_driver_sifive_gpio0_clear_int+0x17c>
20015492:	fd442783          	lw	a5,-44(s0)
20015496:	00279713          	slli	a4,a5,0x2
2001549a:	200187b7          	lui	a5,0x20018
2001549e:	b2878793          	addi	a5,a5,-1240 # 20017b28 <__metal_driver_vtable_sifive_fe310_g000_pll+0x2c>
200154a2:	97ba                	add	a5,a5,a4
200154a4:	439c                	lw	a5,0(a5)
200154a6:	8782                	jr	a5
E:/8.AWS-FreeRTOS-HiFive1/Workspace/sifive-hifive1-revb-i2c/freedom-metal/src/drivers/sifive_gpio0.c:159
    {
        case METAL_GPIO_INT_RISING:
            __METAL_ACCESS_ONCE((__metal_io_u32 *)(base + METAL_SIFIVE_GPIO0_RISE_IP))  |= source;
200154a8:	fec42783          	lw	a5,-20(s0)
200154ac:	07f1                	addi	a5,a5,28
200154ae:	4398                	lw	a4,0(a5)
200154b0:	fd842783          	lw	a5,-40(s0)
200154b4:	fec42683          	lw	a3,-20(s0)
200154b8:	06f1                	addi	a3,a3,28
200154ba:	8fd9                	or	a5,a5,a4
200154bc:	c29c                	sw	a5,0(a3)
E:/8.AWS-FreeRTOS-HiFive1/Workspace/sifive-hifive1-revb-i2c/freedom-metal/src/drivers/sifive_gpio0.c:160
            break;
200154be:	a215                	j	200155e2 <__metal_driver_sifive_gpio0_clear_int+0x17c>
E:/8.AWS-FreeRTOS-HiFive1/Workspace/sifive-hifive1-revb-i2c/freedom-metal/src/drivers/sifive_gpio0.c:162
        case METAL_GPIO_INT_FALLING:
            __METAL_ACCESS_ONCE((__metal_io_u32 *)(base + METAL_SIFIVE_GPIO0_FALL_IP))  |= source;
200154c0:	fec42783          	lw	a5,-20(s0)
200154c4:	02478793          	addi	a5,a5,36
200154c8:	4398                	lw	a4,0(a5)
200154ca:	fd842783          	lw	a5,-40(s0)
200154ce:	fec42683          	lw	a3,-20(s0)
200154d2:	02468693          	addi	a3,a3,36
200154d6:	8fd9                	or	a5,a5,a4
200154d8:	c29c                	sw	a5,0(a3)
E:/8.AWS-FreeRTOS-HiFive1/Workspace/sifive-hifive1-revb-i2c/freedom-metal/src/drivers/sifive_gpio0.c:163
            break;
200154da:	a221                	j	200155e2 <__metal_driver_sifive_gpio0_clear_int+0x17c>
E:/8.AWS-FreeRTOS-HiFive1/Workspace/sifive-hifive1-revb-i2c/freedom-metal/src/drivers/sifive_gpio0.c:165
        case METAL_GPIO_INT_BOTH_EDGE:
            __METAL_ACCESS_ONCE((__metal_io_u32 *)(base + METAL_SIFIVE_GPIO0_RISE_IP))  |= source;
200154dc:	fec42783          	lw	a5,-20(s0)
200154e0:	07f1                	addi	a5,a5,28
200154e2:	4398                	lw	a4,0(a5)
200154e4:	fd842783          	lw	a5,-40(s0)
200154e8:	fec42683          	lw	a3,-20(s0)
200154ec:	06f1                	addi	a3,a3,28
200154ee:	8fd9                	or	a5,a5,a4
200154f0:	c29c                	sw	a5,0(a3)
E:/8.AWS-FreeRTOS-HiFive1/Workspace/sifive-hifive1-revb-i2c/freedom-metal/src/drivers/sifive_gpio0.c:166
            __METAL_ACCESS_ONCE((__metal_io_u32 *)(base + METAL_SIFIVE_GPIO0_FALL_IP))  |= source;
200154f2:	fec42783          	lw	a5,-20(s0)
200154f6:	02478793          	addi	a5,a5,36
200154fa:	4398                	lw	a4,0(a5)
200154fc:	fd842783          	lw	a5,-40(s0)
20015500:	fec42683          	lw	a3,-20(s0)
20015504:	02468693          	addi	a3,a3,36
20015508:	8fd9                	or	a5,a5,a4
2001550a:	c29c                	sw	a5,0(a3)
E:/8.AWS-FreeRTOS-HiFive1/Workspace/sifive-hifive1-revb-i2c/freedom-metal/src/drivers/sifive_gpio0.c:167
            break;
2001550c:	a8d9                	j	200155e2 <__metal_driver_sifive_gpio0_clear_int+0x17c>
E:/8.AWS-FreeRTOS-HiFive1/Workspace/sifive-hifive1-revb-i2c/freedom-metal/src/drivers/sifive_gpio0.c:169
        case METAL_GPIO_INT_HIGH:
            __METAL_ACCESS_ONCE((__metal_io_u32 *)(base + METAL_SIFIVE_GPIO0_HIGH_IP))  |= source;
2001550e:	fec42783          	lw	a5,-20(s0)
20015512:	02c78793          	addi	a5,a5,44
20015516:	4398                	lw	a4,0(a5)
20015518:	fd842783          	lw	a5,-40(s0)
2001551c:	fec42683          	lw	a3,-20(s0)
20015520:	02c68693          	addi	a3,a3,44
20015524:	8fd9                	or	a5,a5,a4
20015526:	c29c                	sw	a5,0(a3)
E:/8.AWS-FreeRTOS-HiFive1/Workspace/sifive-hifive1-revb-i2c/freedom-metal/src/drivers/sifive_gpio0.c:170
            break;
20015528:	a86d                	j	200155e2 <__metal_driver_sifive_gpio0_clear_int+0x17c>
E:/8.AWS-FreeRTOS-HiFive1/Workspace/sifive-hifive1-revb-i2c/freedom-metal/src/drivers/sifive_gpio0.c:172
        case METAL_GPIO_INT_LOW:
            __METAL_ACCESS_ONCE((__metal_io_u32 *)(base + METAL_SIFIVE_GPIO0_LOW_IP))  |= source;
2001552a:	fec42783          	lw	a5,-20(s0)
2001552e:	03478793          	addi	a5,a5,52
20015532:	4398                	lw	a4,0(a5)
20015534:	fd842783          	lw	a5,-40(s0)
20015538:	fec42683          	lw	a3,-20(s0)
2001553c:	03468693          	addi	a3,a3,52
20015540:	8fd9                	or	a5,a5,a4
20015542:	c29c                	sw	a5,0(a3)
E:/8.AWS-FreeRTOS-HiFive1/Workspace/sifive-hifive1-revb-i2c/freedom-metal/src/drivers/sifive_gpio0.c:173
            break;
20015544:	a879                	j	200155e2 <__metal_driver_sifive_gpio0_clear_int+0x17c>
E:/8.AWS-FreeRTOS-HiFive1/Workspace/sifive-hifive1-revb-i2c/freedom-metal/src/drivers/sifive_gpio0.c:175
        case METAL_GPIO_INT_BOTH_LEVEL:
            __METAL_ACCESS_ONCE((__metal_io_u32 *)(base + METAL_SIFIVE_GPIO0_HIGH_IP))  |= source;
20015546:	fec42783          	lw	a5,-20(s0)
2001554a:	02c78793          	addi	a5,a5,44
2001554e:	4398                	lw	a4,0(a5)
20015550:	fd842783          	lw	a5,-40(s0)
20015554:	fec42683          	lw	a3,-20(s0)
20015558:	02c68693          	addi	a3,a3,44
2001555c:	8fd9                	or	a5,a5,a4
2001555e:	c29c                	sw	a5,0(a3)
E:/8.AWS-FreeRTOS-HiFive1/Workspace/sifive-hifive1-revb-i2c/freedom-metal/src/drivers/sifive_gpio0.c:176
            __METAL_ACCESS_ONCE((__metal_io_u32 *)(base + METAL_SIFIVE_GPIO0_LOW_IP))  |= source;
20015560:	fec42783          	lw	a5,-20(s0)
20015564:	03478793          	addi	a5,a5,52
20015568:	4398                	lw	a4,0(a5)
2001556a:	fd842783          	lw	a5,-40(s0)
2001556e:	fec42683          	lw	a3,-20(s0)
20015572:	03468693          	addi	a3,a3,52
20015576:	8fd9                	or	a5,a5,a4
20015578:	c29c                	sw	a5,0(a3)
E:/8.AWS-FreeRTOS-HiFive1/Workspace/sifive-hifive1-revb-i2c/freedom-metal/src/drivers/sifive_gpio0.c:177
            break;
2001557a:	a0a5                	j	200155e2 <__metal_driver_sifive_gpio0_clear_int+0x17c>
E:/8.AWS-FreeRTOS-HiFive1/Workspace/sifive-hifive1-revb-i2c/freedom-metal/src/drivers/sifive_gpio0.c:179
        case METAL_GPIO_INT_MAX:
            __METAL_ACCESS_ONCE((__metal_io_u32 *)(base + METAL_SIFIVE_GPIO0_RISE_IP))  |= source;
2001557c:	fec42783          	lw	a5,-20(s0)
20015580:	07f1                	addi	a5,a5,28
20015582:	4398                	lw	a4,0(a5)
20015584:	fd842783          	lw	a5,-40(s0)
20015588:	fec42683          	lw	a3,-20(s0)
2001558c:	06f1                	addi	a3,a3,28
2001558e:	8fd9                	or	a5,a5,a4
20015590:	c29c                	sw	a5,0(a3)
E:/8.AWS-FreeRTOS-HiFive1/Workspace/sifive-hifive1-revb-i2c/freedom-metal/src/drivers/sifive_gpio0.c:180
            __METAL_ACCESS_ONCE((__metal_io_u32 *)(base + METAL_SIFIVE_GPIO0_FALL_IP))  |= source;
20015592:	fec42783          	lw	a5,-20(s0)
20015596:	02478793          	addi	a5,a5,36
2001559a:	4398                	lw	a4,0(a5)
2001559c:	fd842783          	lw	a5,-40(s0)
200155a0:	fec42683          	lw	a3,-20(s0)
200155a4:	02468693          	addi	a3,a3,36
200155a8:	8fd9                	or	a5,a5,a4
200155aa:	c29c                	sw	a5,0(a3)
E:/8.AWS-FreeRTOS-HiFive1/Workspace/sifive-hifive1-revb-i2c/freedom-metal/src/drivers/sifive_gpio0.c:181
            __METAL_ACCESS_ONCE((__metal_io_u32 *)(base + METAL_SIFIVE_GPIO0_HIGH_IP))  |= source;
200155ac:	fec42783          	lw	a5,-20(s0)
200155b0:	02c78793          	addi	a5,a5,44
200155b4:	4398                	lw	a4,0(a5)
200155b6:	fd842783          	lw	a5,-40(s0)
200155ba:	fec42683          	lw	a3,-20(s0)
200155be:	02c68693          	addi	a3,a3,44
200155c2:	8fd9                	or	a5,a5,a4
200155c4:	c29c                	sw	a5,0(a3)
E:/8.AWS-FreeRTOS-HiFive1/Workspace/sifive-hifive1-revb-i2c/freedom-metal/src/drivers/sifive_gpio0.c:182
            __METAL_ACCESS_ONCE((__metal_io_u32 *)(base + METAL_SIFIVE_GPIO0_LOW_IP))  |= source;
200155c6:	fec42783          	lw	a5,-20(s0)
200155ca:	03478793          	addi	a5,a5,52
200155ce:	4398                	lw	a4,0(a5)
200155d0:	fd842783          	lw	a5,-40(s0)
200155d4:	fec42683          	lw	a3,-20(s0)
200155d8:	03468693          	addi	a3,a3,52
200155dc:	8fd9                	or	a5,a5,a4
200155de:	c29c                	sw	a5,0(a3)
E:/8.AWS-FreeRTOS-HiFive1/Workspace/sifive-hifive1-revb-i2c/freedom-metal/src/drivers/sifive_gpio0.c:183
            break;
200155e0:	0001                	nop
E:/8.AWS-FreeRTOS-HiFive1/Workspace/sifive-hifive1-revb-i2c/freedom-metal/src/drivers/sifive_gpio0.c:185
    }
    return 0;
200155e2:	4781                	li	a5,0
E:/8.AWS-FreeRTOS-HiFive1/Workspace/sifive-hifive1-revb-i2c/freedom-metal/src/drivers/sifive_gpio0.c:186
}
200155e4:	853e                	mv	a0,a5
200155e6:	50b2                	lw	ra,44(sp)
200155e8:	5422                	lw	s0,40(sp)
200155ea:	6145                	addi	sp,sp,48
200155ec:	8082                	ret

200155ee <__metal_driver_gpio_interrupt_controller>:
__metal_driver_gpio_interrupt_controller():
E:/8.AWS-FreeRTOS-HiFive1/Workspace/sifive-hifive1-revb-i2c/freedom-metal/src/drivers/sifive_gpio0.c:190

struct metal_interrupt *
__metal_driver_gpio_interrupt_controller(struct metal_gpio *gpio)
{
200155ee:	1101                	addi	sp,sp,-32
200155f0:	ce06                	sw	ra,28(sp)
200155f2:	cc22                	sw	s0,24(sp)
200155f4:	1000                	addi	s0,sp,32
200155f6:	fea42623          	sw	a0,-20(s0)
E:/8.AWS-FreeRTOS-HiFive1/Workspace/sifive-hifive1-revb-i2c/freedom-metal/src/drivers/sifive_gpio0.c:191
    return __metal_driver_sifive_gpio0_interrupt_parent(gpio);
200155fa:	fec42503          	lw	a0,-20(s0)
200155fe:	e00ff0ef          	jal	ra,20014bfe <__metal_driver_sifive_gpio0_interrupt_parent>
20015602:	87aa                	mv	a5,a0
E:/8.AWS-FreeRTOS-HiFive1/Workspace/sifive-hifive1-revb-i2c/freedom-metal/src/drivers/sifive_gpio0.c:192
}
20015604:	853e                	mv	a0,a5
20015606:	40f2                	lw	ra,28(sp)
20015608:	4462                	lw	s0,24(sp)
2001560a:	6105                	addi	sp,sp,32
2001560c:	8082                	ret

2001560e <__metal_driver_gpio_get_interrupt_id>:
__metal_driver_gpio_get_interrupt_id():
E:/8.AWS-FreeRTOS-HiFive1/Workspace/sifive-hifive1-revb-i2c/freedom-metal/src/drivers/sifive_gpio0.c:195

int __metal_driver_gpio_get_interrupt_id(struct metal_gpio *gpio, int pin)
{
2001560e:	7179                	addi	sp,sp,-48
20015610:	d606                	sw	ra,44(sp)
20015612:	d422                	sw	s0,40(sp)
20015614:	1800                	addi	s0,sp,48
20015616:	fca42e23          	sw	a0,-36(s0)
2001561a:	fcb42c23          	sw	a1,-40(s0)
E:/8.AWS-FreeRTOS-HiFive1/Workspace/sifive-hifive1-revb-i2c/freedom-metal/src/drivers/sifive_gpio0.c:197
    int irq;
    irq = __metal_driver_sifive_gpio0_interrupt_lines(gpio, pin);
2001561e:	fd842583          	lw	a1,-40(s0)
20015622:	fdc42503          	lw	a0,-36(s0)
20015626:	e02ff0ef          	jal	ra,20014c28 <__metal_driver_sifive_gpio0_interrupt_lines>
2001562a:	fea42623          	sw	a0,-20(s0)
E:/8.AWS-FreeRTOS-HiFive1/Workspace/sifive-hifive1-revb-i2c/freedom-metal/src/drivers/sifive_gpio0.c:198
    return irq;
2001562e:	fec42783          	lw	a5,-20(s0)
E:/8.AWS-FreeRTOS-HiFive1/Workspace/sifive-hifive1-revb-i2c/freedom-metal/src/drivers/sifive_gpio0.c:199
}
20015632:	853e                	mv	a0,a5
20015634:	50b2                	lw	ra,44(sp)
20015636:	5422                	lw	s0,40(sp)
20015638:	6145                	addi	sp,sp,48
2001563a:	8082                	ret

2001563c <__metal_driver_sifive_uart0_control_base>:
__metal_driver_sifive_uart0_control_base():
E:\8.AWS-FreeRTOS-HiFive1\Workspace\sifive-hifive1-revb-i2c\bsp\build\debug/./metal/machine.h:738
{
2001563c:	1101                	addi	sp,sp,-32
2001563e:	ce22                	sw	s0,28(sp)
20015640:	1000                	addi	s0,sp,32
20015642:	fea42623          	sw	a0,-20(s0)
E:\8.AWS-FreeRTOS-HiFive1\Workspace\sifive-hifive1-revb-i2c\bsp\build\debug/./metal/machine.h:739
	if ((uintptr_t)uart == (uintptr_t)&__metal_dt_serial_10013000) {
20015646:	fec42703          	lw	a4,-20(s0)
2001564a:	800017b7          	lui	a5,0x80001
2001564e:	a2078793          	addi	a5,a5,-1504 # 80000a20 <metal_segment_heap_target_end+0xfffff2b0>
20015652:	00f71563          	bne	a4,a5,2001565c <__metal_driver_sifive_uart0_control_base+0x20>
E:\8.AWS-FreeRTOS-HiFive1\Workspace\sifive-hifive1-revb-i2c\bsp\build\debug/./metal/machine.h:740
		return METAL_SIFIVE_UART0_10013000_BASE_ADDRESS;
20015656:	100137b7          	lui	a5,0x10013
2001565a:	a829                	j	20015674 <__metal_driver_sifive_uart0_control_base+0x38>
E:\8.AWS-FreeRTOS-HiFive1\Workspace\sifive-hifive1-revb-i2c\bsp\build\debug/./metal/machine.h:742
	else if ((uintptr_t)uart == (uintptr_t)&__metal_dt_serial_10023000) {
2001565c:	fec42703          	lw	a4,-20(s0)
20015660:	800017b7          	lui	a5,0x80001
20015664:	a4078793          	addi	a5,a5,-1472 # 80000a40 <metal_segment_heap_target_end+0xfffff2d0>
20015668:	00f71563          	bne	a4,a5,20015672 <__metal_driver_sifive_uart0_control_base+0x36>
E:\8.AWS-FreeRTOS-HiFive1\Workspace\sifive-hifive1-revb-i2c\bsp\build\debug/./metal/machine.h:743
		return METAL_SIFIVE_UART0_10023000_BASE_ADDRESS;
2001566c:	100237b7          	lui	a5,0x10023
20015670:	a011                	j	20015674 <__metal_driver_sifive_uart0_control_base+0x38>
E:\8.AWS-FreeRTOS-HiFive1\Workspace\sifive-hifive1-revb-i2c\bsp\build\debug/./metal/machine.h:746
		return 0;
20015672:	4781                	li	a5,0
E:\8.AWS-FreeRTOS-HiFive1\Workspace\sifive-hifive1-revb-i2c\bsp\build\debug/./metal/machine.h:748
}
20015674:	853e                	mv	a0,a5
20015676:	4472                	lw	s0,28(sp)
20015678:	6105                	addi	sp,sp,32
2001567a:	8082                	ret

2001567c <__metal_driver_sifive_uart0_interrupt_parent>:
__metal_driver_sifive_uart0_interrupt_parent():
E:\8.AWS-FreeRTOS-HiFive1\Workspace\sifive-hifive1-revb-i2c\bsp\build\debug/./metal/machine.h:777
{
2001567c:	1101                	addi	sp,sp,-32
2001567e:	ce22                	sw	s0,28(sp)
20015680:	1000                	addi	s0,sp,32
20015682:	fea42623          	sw	a0,-20(s0)
E:\8.AWS-FreeRTOS-HiFive1\Workspace\sifive-hifive1-revb-i2c\bsp\build\debug/./metal/machine.h:778
	if ((uintptr_t)uart == (uintptr_t)&__metal_dt_serial_10013000) {
20015686:	fec42703          	lw	a4,-20(s0)
2001568a:	800017b7          	lui	a5,0x80001
2001568e:	a2078793          	addi	a5,a5,-1504 # 80000a20 <metal_segment_heap_target_end+0xfffff2b0>
20015692:	00f71763          	bne	a4,a5,200156a0 <__metal_driver_sifive_uart0_interrupt_parent+0x24>
E:\8.AWS-FreeRTOS-HiFive1\Workspace\sifive-hifive1-revb-i2c\bsp\build\debug/./metal/machine.h:779
		return (struct metal_interrupt *)&__metal_dt_interrupt_controller_c000000.controller;
20015696:	800007b7          	lui	a5,0x80000
2001569a:	44878793          	addi	a5,a5,1096 # 80000448 <metal_segment_heap_target_end+0xffffecd8>
2001569e:	a821                	j	200156b6 <__metal_driver_sifive_uart0_interrupt_parent+0x3a>
E:\8.AWS-FreeRTOS-HiFive1\Workspace\sifive-hifive1-revb-i2c\bsp\build\debug/./metal/machine.h:781
	else if ((uintptr_t)uart == (uintptr_t)&__metal_dt_serial_10023000) {
200156a0:	fec42703          	lw	a4,-20(s0)
200156a4:	800017b7          	lui	a5,0x80001
200156a8:	a4078793          	addi	a5,a5,-1472 # 80000a40 <metal_segment_heap_target_end+0xfffff2d0>
200156ac:	00f71463          	bne	a4,a5,200156b4 <__metal_driver_sifive_uart0_interrupt_parent+0x38>
E:\8.AWS-FreeRTOS-HiFive1\Workspace\sifive-hifive1-revb-i2c\bsp\build\debug/./metal/machine.h:782
		return NULL;
200156b0:	4781                	li	a5,0
200156b2:	a011                	j	200156b6 <__metal_driver_sifive_uart0_interrupt_parent+0x3a>
E:\8.AWS-FreeRTOS-HiFive1\Workspace\sifive-hifive1-revb-i2c\bsp\build\debug/./metal/machine.h:785
		return 0;
200156b4:	4781                	li	a5,0
E:\8.AWS-FreeRTOS-HiFive1\Workspace\sifive-hifive1-revb-i2c\bsp\build\debug/./metal/machine.h:787
}
200156b6:	853e                	mv	a0,a5
200156b8:	4472                	lw	s0,28(sp)
200156ba:	6105                	addi	sp,sp,32
200156bc:	8082                	ret

200156be <__metal_driver_sifive_uart0_interrupt_line>:
__metal_driver_sifive_uart0_interrupt_line():
E:\8.AWS-FreeRTOS-HiFive1\Workspace\sifive-hifive1-revb-i2c\bsp\build\debug/./metal/machine.h:790
{
200156be:	1101                	addi	sp,sp,-32
200156c0:	ce22                	sw	s0,28(sp)
200156c2:	1000                	addi	s0,sp,32
200156c4:	fea42623          	sw	a0,-20(s0)
E:\8.AWS-FreeRTOS-HiFive1\Workspace\sifive-hifive1-revb-i2c\bsp\build\debug/./metal/machine.h:791
	if ((uintptr_t)uart == (uintptr_t)&__metal_dt_serial_10013000) {
200156c8:	fec42703          	lw	a4,-20(s0)
200156cc:	800017b7          	lui	a5,0x80001
200156d0:	a2078793          	addi	a5,a5,-1504 # 80000a20 <metal_segment_heap_target_end+0xfffff2b0>
200156d4:	00f71463          	bne	a4,a5,200156dc <__metal_driver_sifive_uart0_interrupt_line+0x1e>
E:\8.AWS-FreeRTOS-HiFive1\Workspace\sifive-hifive1-revb-i2c\bsp\build\debug/./metal/machine.h:792
		return 3;
200156d8:	478d                	li	a5,3
200156da:	a821                	j	200156f2 <__metal_driver_sifive_uart0_interrupt_line+0x34>
E:\8.AWS-FreeRTOS-HiFive1\Workspace\sifive-hifive1-revb-i2c\bsp\build\debug/./metal/machine.h:794
	else if ((uintptr_t)uart == (uintptr_t)&__metal_dt_serial_10023000) {
200156dc:	fec42703          	lw	a4,-20(s0)
200156e0:	800017b7          	lui	a5,0x80001
200156e4:	a4078793          	addi	a5,a5,-1472 # 80000a40 <metal_segment_heap_target_end+0xfffff2d0>
200156e8:	00f71463          	bne	a4,a5,200156f0 <__metal_driver_sifive_uart0_interrupt_line+0x32>
E:\8.AWS-FreeRTOS-HiFive1\Workspace\sifive-hifive1-revb-i2c\bsp\build\debug/./metal/machine.h:795
		return 4;
200156ec:	4791                	li	a5,4
200156ee:	a011                	j	200156f2 <__metal_driver_sifive_uart0_interrupt_line+0x34>
E:\8.AWS-FreeRTOS-HiFive1\Workspace\sifive-hifive1-revb-i2c\bsp\build\debug/./metal/machine.h:798
		return 0;
200156f0:	4781                	li	a5,0
E:\8.AWS-FreeRTOS-HiFive1\Workspace\sifive-hifive1-revb-i2c\bsp\build\debug/./metal/machine.h:800
}
200156f2:	853e                	mv	a0,a5
200156f4:	4472                	lw	s0,28(sp)
200156f6:	6105                	addi	sp,sp,32
200156f8:	8082                	ret

200156fa <__metal_driver_sifive_uart0_clock>:
__metal_driver_sifive_uart0_clock():
E:\8.AWS-FreeRTOS-HiFive1\Workspace\sifive-hifive1-revb-i2c\bsp\build\debug/./metal/machine.h:803
{
200156fa:	1101                	addi	sp,sp,-32
200156fc:	ce22                	sw	s0,28(sp)
200156fe:	1000                	addi	s0,sp,32
20015700:	fea42623          	sw	a0,-20(s0)
E:\8.AWS-FreeRTOS-HiFive1\Workspace\sifive-hifive1-revb-i2c\bsp\build\debug/./metal/machine.h:804
	if ((uintptr_t)uart == (uintptr_t)&__metal_dt_serial_10013000) {
20015704:	fec42703          	lw	a4,-20(s0)
20015708:	800017b7          	lui	a5,0x80001
2001570c:	a2078793          	addi	a5,a5,-1504 # 80000a20 <metal_segment_heap_target_end+0xfffff2b0>
20015710:	00f71763          	bne	a4,a5,2001571e <__metal_driver_sifive_uart0_clock+0x24>
E:\8.AWS-FreeRTOS-HiFive1\Workspace\sifive-hifive1-revb-i2c\bsp\build\debug/./metal/machine.h:805
		return (struct metal_clock *)&__metal_dt_clock_4.clock;
20015714:	800017b7          	lui	a5,0x80001
20015718:	a7878793          	addi	a5,a5,-1416 # 80000a78 <metal_segment_heap_target_end+0xfffff308>
2001571c:	a839                	j	2001573a <__metal_driver_sifive_uart0_clock+0x40>
E:\8.AWS-FreeRTOS-HiFive1\Workspace\sifive-hifive1-revb-i2c\bsp\build\debug/./metal/machine.h:807
	else if ((uintptr_t)uart == (uintptr_t)&__metal_dt_serial_10023000) {
2001571e:	fec42703          	lw	a4,-20(s0)
20015722:	800017b7          	lui	a5,0x80001
20015726:	a4078793          	addi	a5,a5,-1472 # 80000a40 <metal_segment_heap_target_end+0xfffff2d0>
2001572a:	00f71763          	bne	a4,a5,20015738 <__metal_driver_sifive_uart0_clock+0x3e>
E:\8.AWS-FreeRTOS-HiFive1\Workspace\sifive-hifive1-revb-i2c\bsp\build\debug/./metal/machine.h:808
		return (struct metal_clock *)&__metal_dt_clock_4.clock;
2001572e:	800017b7          	lui	a5,0x80001
20015732:	a7878793          	addi	a5,a5,-1416 # 80000a78 <metal_segment_heap_target_end+0xfffff308>
20015736:	a011                	j	2001573a <__metal_driver_sifive_uart0_clock+0x40>
E:\8.AWS-FreeRTOS-HiFive1\Workspace\sifive-hifive1-revb-i2c\bsp\build\debug/./metal/machine.h:811
		return 0;
20015738:	4781                	li	a5,0
E:\8.AWS-FreeRTOS-HiFive1\Workspace\sifive-hifive1-revb-i2c\bsp\build\debug/./metal/machine.h:813
}
2001573a:	853e                	mv	a0,a5
2001573c:	4472                	lw	s0,28(sp)
2001573e:	6105                	addi	sp,sp,32
20015740:	8082                	ret

20015742 <__metal_driver_sifive_uart0_pinmux>:
__metal_driver_sifive_uart0_pinmux():
E:\8.AWS-FreeRTOS-HiFive1\Workspace\sifive-hifive1-revb-i2c\bsp\build\debug/./metal/machine.h:816
{
20015742:	1101                	addi	sp,sp,-32
20015744:	ce22                	sw	s0,28(sp)
20015746:	1000                	addi	s0,sp,32
20015748:	fea42623          	sw	a0,-20(s0)
E:\8.AWS-FreeRTOS-HiFive1\Workspace\sifive-hifive1-revb-i2c\bsp\build\debug/./metal/machine.h:817
	if ((uintptr_t)uart == (uintptr_t)&__metal_dt_serial_10013000) {
2001574c:	fec42703          	lw	a4,-20(s0)
20015750:	800017b7          	lui	a5,0x80001
20015754:	a2078793          	addi	a5,a5,-1504 # 80000a20 <metal_segment_heap_target_end+0xfffff2b0>
20015758:	00f71563          	bne	a4,a5,20015762 <__metal_driver_sifive_uart0_pinmux+0x20>
E:\8.AWS-FreeRTOS-HiFive1\Workspace\sifive-hifive1-revb-i2c\bsp\build\debug/./metal/machine.h:818
		return (struct __metal_driver_sifive_gpio0 *)&__metal_dt_gpio_10012000;
2001575c:	81818793          	addi	a5,gp,-2024 # 80000aa0 <__metal_dt_gpio_10012000>
20015760:	a829                	j	2001577a <__metal_driver_sifive_uart0_pinmux+0x38>
E:\8.AWS-FreeRTOS-HiFive1\Workspace\sifive-hifive1-revb-i2c\bsp\build\debug/./metal/machine.h:820
	else if ((uintptr_t)uart == (uintptr_t)&__metal_dt_serial_10023000) {
20015762:	fec42703          	lw	a4,-20(s0)
20015766:	800017b7          	lui	a5,0x80001
2001576a:	a4078793          	addi	a5,a5,-1472 # 80000a40 <metal_segment_heap_target_end+0xfffff2d0>
2001576e:	00f71563          	bne	a4,a5,20015778 <__metal_driver_sifive_uart0_pinmux+0x36>
E:\8.AWS-FreeRTOS-HiFive1\Workspace\sifive-hifive1-revb-i2c\bsp\build\debug/./metal/machine.h:821
		return (struct __metal_driver_sifive_gpio0 *)&__metal_dt_gpio_10012000;
20015772:	81818793          	addi	a5,gp,-2024 # 80000aa0 <__metal_dt_gpio_10012000>
20015776:	a011                	j	2001577a <__metal_driver_sifive_uart0_pinmux+0x38>
E:\8.AWS-FreeRTOS-HiFive1\Workspace\sifive-hifive1-revb-i2c\bsp\build\debug/./metal/machine.h:824
		return 0;
20015778:	4781                	li	a5,0
E:\8.AWS-FreeRTOS-HiFive1\Workspace\sifive-hifive1-revb-i2c\bsp\build\debug/./metal/machine.h:826
}
2001577a:	853e                	mv	a0,a5
2001577c:	4472                	lw	s0,28(sp)
2001577e:	6105                	addi	sp,sp,32
20015780:	8082                	ret

20015782 <__metal_driver_sifive_uart0_pinmux_output_selector>:
__metal_driver_sifive_uart0_pinmux_output_selector():
E:\8.AWS-FreeRTOS-HiFive1\Workspace\sifive-hifive1-revb-i2c\bsp\build\debug/./metal/machine.h:829
{
20015782:	1101                	addi	sp,sp,-32
20015784:	ce22                	sw	s0,28(sp)
20015786:	1000                	addi	s0,sp,32
20015788:	fea42623          	sw	a0,-20(s0)
E:\8.AWS-FreeRTOS-HiFive1\Workspace\sifive-hifive1-revb-i2c\bsp\build\debug/./metal/machine.h:830
	if ((uintptr_t)uart == (uintptr_t)&__metal_dt_serial_10013000) {
2001578c:	fec42703          	lw	a4,-20(s0)
20015790:	800017b7          	lui	a5,0x80001
20015794:	a2078793          	addi	a5,a5,-1504 # 80000a20 <metal_segment_heap_target_end+0xfffff2b0>
20015798:	00f71563          	bne	a4,a5,200157a2 <__metal_driver_sifive_uart0_pinmux_output_selector+0x20>
E:\8.AWS-FreeRTOS-HiFive1\Workspace\sifive-hifive1-revb-i2c\bsp\build\debug/./metal/machine.h:831
		return 196608;
2001579c:	000307b7          	lui	a5,0x30
200157a0:	a829                	j	200157ba <__metal_driver_sifive_uart0_pinmux_output_selector+0x38>
E:\8.AWS-FreeRTOS-HiFive1\Workspace\sifive-hifive1-revb-i2c\bsp\build\debug/./metal/machine.h:833
	else if ((uintptr_t)uart == (uintptr_t)&__metal_dt_serial_10023000) {
200157a2:	fec42703          	lw	a4,-20(s0)
200157a6:	800017b7          	lui	a5,0x80001
200157aa:	a4078793          	addi	a5,a5,-1472 # 80000a40 <metal_segment_heap_target_end+0xfffff2d0>
200157ae:	00f71563          	bne	a4,a5,200157b8 <__metal_driver_sifive_uart0_pinmux_output_selector+0x36>
E:\8.AWS-FreeRTOS-HiFive1\Workspace\sifive-hifive1-revb-i2c\bsp\build\debug/./metal/machine.h:834
		return 8650752;
200157b2:	008407b7          	lui	a5,0x840
200157b6:	a011                	j	200157ba <__metal_driver_sifive_uart0_pinmux_output_selector+0x38>
E:\8.AWS-FreeRTOS-HiFive1\Workspace\sifive-hifive1-revb-i2c\bsp\build\debug/./metal/machine.h:837
		return 0;
200157b8:	4781                	li	a5,0
E:\8.AWS-FreeRTOS-HiFive1\Workspace\sifive-hifive1-revb-i2c\bsp\build\debug/./metal/machine.h:839
}
200157ba:	853e                	mv	a0,a5
200157bc:	4472                	lw	s0,28(sp)
200157be:	6105                	addi	sp,sp,32
200157c0:	8082                	ret

200157c2 <__metal_driver_sifive_uart0_pinmux_source_selector>:
__metal_driver_sifive_uart0_pinmux_source_selector():
E:\8.AWS-FreeRTOS-HiFive1\Workspace\sifive-hifive1-revb-i2c\bsp\build\debug/./metal/machine.h:842
{
200157c2:	1101                	addi	sp,sp,-32
200157c4:	ce22                	sw	s0,28(sp)
200157c6:	1000                	addi	s0,sp,32
200157c8:	fea42623          	sw	a0,-20(s0)
E:\8.AWS-FreeRTOS-HiFive1\Workspace\sifive-hifive1-revb-i2c\bsp\build\debug/./metal/machine.h:843
	if ((uintptr_t)uart == (uintptr_t)&__metal_dt_serial_10013000) {
200157cc:	fec42703          	lw	a4,-20(s0)
200157d0:	800017b7          	lui	a5,0x80001
200157d4:	a2078793          	addi	a5,a5,-1504 # 80000a20 <metal_segment_heap_target_end+0xfffff2b0>
200157d8:	00f71563          	bne	a4,a5,200157e2 <__metal_driver_sifive_uart0_pinmux_source_selector+0x20>
E:\8.AWS-FreeRTOS-HiFive1\Workspace\sifive-hifive1-revb-i2c\bsp\build\debug/./metal/machine.h:844
		return 196608;
200157dc:	000307b7          	lui	a5,0x30
200157e0:	a829                	j	200157fa <__metal_driver_sifive_uart0_pinmux_source_selector+0x38>
E:\8.AWS-FreeRTOS-HiFive1\Workspace\sifive-hifive1-revb-i2c\bsp\build\debug/./metal/machine.h:846
	else if ((uintptr_t)uart == (uintptr_t)&__metal_dt_serial_10023000) {
200157e2:	fec42703          	lw	a4,-20(s0)
200157e6:	800017b7          	lui	a5,0x80001
200157ea:	a4078793          	addi	a5,a5,-1472 # 80000a40 <metal_segment_heap_target_end+0xfffff2d0>
200157ee:	00f71563          	bne	a4,a5,200157f8 <__metal_driver_sifive_uart0_pinmux_source_selector+0x36>
E:\8.AWS-FreeRTOS-HiFive1\Workspace\sifive-hifive1-revb-i2c\bsp\build\debug/./metal/machine.h:847
		return 8650752;
200157f2:	008407b7          	lui	a5,0x840
200157f6:	a011                	j	200157fa <__metal_driver_sifive_uart0_pinmux_source_selector+0x38>
E:\8.AWS-FreeRTOS-HiFive1\Workspace\sifive-hifive1-revb-i2c\bsp\build\debug/./metal/machine.h:850
		return 0;
200157f8:	4781                	li	a5,0
E:\8.AWS-FreeRTOS-HiFive1\Workspace\sifive-hifive1-revb-i2c\bsp\build\debug/./metal/machine.h:852
}
200157fa:	853e                	mv	a0,a5
200157fc:	4472                	lw	s0,28(sp)
200157fe:	6105                	addi	sp,sp,32
20015800:	8082                	ret

20015802 <__metal_driver_sifive_uart0_interrupt_controller>:
__metal_driver_sifive_uart0_interrupt_controller():
E:/8.AWS-FreeRTOS-HiFive1/Workspace/sifive-hifive1-revb-i2c/freedom-metal/src/drivers/sifive_uart0.c:32
#define UART_REGB(offset)  (__METAL_ACCESS_ONCE((__metal_io_u8  *)UART_REG(offset)))
#define UART_REGW(offset)  (__METAL_ACCESS_ONCE((__metal_io_u32 *)UART_REG(offset)))

struct metal_interrupt *
__metal_driver_sifive_uart0_interrupt_controller(struct metal_uart *uart)
{
20015802:	1101                	addi	sp,sp,-32
20015804:	ce06                	sw	ra,28(sp)
20015806:	cc22                	sw	s0,24(sp)
20015808:	1000                	addi	s0,sp,32
2001580a:	fea42623          	sw	a0,-20(s0)
E:/8.AWS-FreeRTOS-HiFive1/Workspace/sifive-hifive1-revb-i2c/freedom-metal/src/drivers/sifive_uart0.c:33
    return __metal_driver_sifive_uart0_interrupt_parent(uart);
2001580e:	fec42503          	lw	a0,-20(s0)
20015812:	e6bff0ef          	jal	ra,2001567c <__metal_driver_sifive_uart0_interrupt_parent>
20015816:	87aa                	mv	a5,a0
E:/8.AWS-FreeRTOS-HiFive1/Workspace/sifive-hifive1-revb-i2c/freedom-metal/src/drivers/sifive_uart0.c:34
}
20015818:	853e                	mv	a0,a5
2001581a:	40f2                	lw	ra,28(sp)
2001581c:	4462                	lw	s0,24(sp)
2001581e:	6105                	addi	sp,sp,32
20015820:	8082                	ret

20015822 <__metal_driver_sifive_uart0_get_interrupt_id>:
__metal_driver_sifive_uart0_get_interrupt_id():
E:/8.AWS-FreeRTOS-HiFive1/Workspace/sifive-hifive1-revb-i2c/freedom-metal/src/drivers/sifive_uart0.c:37

int __metal_driver_sifive_uart0_get_interrupt_id(struct metal_uart *uart)
{
20015822:	1101                	addi	sp,sp,-32
20015824:	ce06                	sw	ra,28(sp)
20015826:	cc22                	sw	s0,24(sp)
20015828:	1000                	addi	s0,sp,32
2001582a:	fea42623          	sw	a0,-20(s0)
E:/8.AWS-FreeRTOS-HiFive1/Workspace/sifive-hifive1-revb-i2c/freedom-metal/src/drivers/sifive_uart0.c:38
    return (__metal_driver_sifive_uart0_interrupt_line(uart) + METAL_INTERRUPT_ID_GL0);
2001582e:	fec42503          	lw	a0,-20(s0)
20015832:	e8dff0ef          	jal	ra,200156be <__metal_driver_sifive_uart0_interrupt_line>
20015836:	87aa                	mv	a5,a0
20015838:	02078793          	addi	a5,a5,32 # 840020 <__heap_size+0x83f820>
E:/8.AWS-FreeRTOS-HiFive1/Workspace/sifive-hifive1-revb-i2c/freedom-metal/src/drivers/sifive_uart0.c:39
}
2001583c:	853e                	mv	a0,a5
2001583e:	40f2                	lw	ra,28(sp)
20015840:	4462                	lw	s0,24(sp)
20015842:	6105                	addi	sp,sp,32
20015844:	8082                	ret

20015846 <__metal_driver_sifive_uart0_txready>:
__metal_driver_sifive_uart0_txready():
E:/8.AWS-FreeRTOS-HiFive1/Workspace/sifive-hifive1-revb-i2c/freedom-metal/src/drivers/sifive_uart0.c:43


int __metal_driver_sifive_uart0_txready(struct metal_uart *uart)
{
20015846:	7179                	addi	sp,sp,-48
20015848:	d606                	sw	ra,44(sp)
2001584a:	d422                	sw	s0,40(sp)
2001584c:	1800                	addi	s0,sp,48
2001584e:	fca42e23          	sw	a0,-36(s0)
E:/8.AWS-FreeRTOS-HiFive1/Workspace/sifive-hifive1-revb-i2c/freedom-metal/src/drivers/sifive_uart0.c:44
  long control_base = __metal_driver_sifive_uart0_control_base(uart);
20015852:	fdc42503          	lw	a0,-36(s0)
20015856:	de7ff0ef          	jal	ra,2001563c <__metal_driver_sifive_uart0_control_base>
2001585a:	87aa                	mv	a5,a0
2001585c:	fef42623          	sw	a5,-20(s0)
E:/8.AWS-FreeRTOS-HiFive1/Workspace/sifive-hifive1-revb-i2c/freedom-metal/src/drivers/sifive_uart0.c:46

  return !((UART_REGW(METAL_SIFIVE_UART0_TXDATA) & UART_TXFULL));
20015860:	fec42783          	lw	a5,-20(s0)
20015864:	439c                	lw	a5,0(a5)
20015866:	fff7c793          	not	a5,a5
2001586a:	83fd                	srli	a5,a5,0x1f
2001586c:	0ff7f793          	andi	a5,a5,255
E:/8.AWS-FreeRTOS-HiFive1/Workspace/sifive-hifive1-revb-i2c/freedom-metal/src/drivers/sifive_uart0.c:47
}
20015870:	853e                	mv	a0,a5
20015872:	50b2                	lw	ra,44(sp)
20015874:	5422                	lw	s0,40(sp)
20015876:	6145                	addi	sp,sp,48
20015878:	8082                	ret

2001587a <__metal_driver_sifive_uart0_putc>:
__metal_driver_sifive_uart0_putc():
E:/8.AWS-FreeRTOS-HiFive1/Workspace/sifive-hifive1-revb-i2c/freedom-metal/src/drivers/sifive_uart0.c:51


int __metal_driver_sifive_uart0_putc(struct metal_uart *uart, int c)
{
2001587a:	7179                	addi	sp,sp,-48
2001587c:	d606                	sw	ra,44(sp)
2001587e:	d422                	sw	s0,40(sp)
20015880:	1800                	addi	s0,sp,48
20015882:	fca42e23          	sw	a0,-36(s0)
20015886:	fcb42c23          	sw	a1,-40(s0)
E:/8.AWS-FreeRTOS-HiFive1/Workspace/sifive-hifive1-revb-i2c/freedom-metal/src/drivers/sifive_uart0.c:52
    long control_base = __metal_driver_sifive_uart0_control_base(uart);
2001588a:	fdc42503          	lw	a0,-36(s0)
2001588e:	dafff0ef          	jal	ra,2001563c <__metal_driver_sifive_uart0_control_base>
20015892:	87aa                	mv	a5,a0
20015894:	fef42623          	sw	a5,-20(s0)
E:/8.AWS-FreeRTOS-HiFive1/Workspace/sifive-hifive1-revb-i2c/freedom-metal/src/drivers/sifive_uart0.c:54

    while (!__metal_driver_sifive_uart0_txready(uart)) {
20015898:	0001                	nop
E:/8.AWS-FreeRTOS-HiFive1/Workspace/sifive-hifive1-revb-i2c/freedom-metal/src/drivers/sifive_uart0.c:54 (discriminator 1)
2001589a:	fdc42503          	lw	a0,-36(s0)
2001589e:	3765                	jal	20015846 <__metal_driver_sifive_uart0_txready>
200158a0:	87aa                	mv	a5,a0
200158a2:	dfe5                	beqz	a5,2001589a <__metal_driver_sifive_uart0_putc+0x20>
E:/8.AWS-FreeRTOS-HiFive1/Workspace/sifive-hifive1-revb-i2c/freedom-metal/src/drivers/sifive_uart0.c:57
		/* wait */
    }
    UART_REGW(METAL_SIFIVE_UART0_TXDATA) = c;
200158a4:	fec42783          	lw	a5,-20(s0)
200158a8:	fd842703          	lw	a4,-40(s0)
200158ac:	c398                	sw	a4,0(a5)
E:/8.AWS-FreeRTOS-HiFive1/Workspace/sifive-hifive1-revb-i2c/freedom-metal/src/drivers/sifive_uart0.c:58
    return 0;
200158ae:	4781                	li	a5,0
E:/8.AWS-FreeRTOS-HiFive1/Workspace/sifive-hifive1-revb-i2c/freedom-metal/src/drivers/sifive_uart0.c:59
}
200158b0:	853e                	mv	a0,a5
200158b2:	50b2                	lw	ra,44(sp)
200158b4:	5422                	lw	s0,40(sp)
200158b6:	6145                	addi	sp,sp,48
200158b8:	8082                	ret

200158ba <__metal_driver_sifive_uart0_getc>:
__metal_driver_sifive_uart0_getc():
E:/8.AWS-FreeRTOS-HiFive1/Workspace/sifive-hifive1-revb-i2c/freedom-metal/src/drivers/sifive_uart0.c:63


int __metal_driver_sifive_uart0_getc(struct metal_uart *uart, int *c)
{
200158ba:	7179                	addi	sp,sp,-48
200158bc:	d606                	sw	ra,44(sp)
200158be:	d422                	sw	s0,40(sp)
200158c0:	1800                	addi	s0,sp,48
200158c2:	fca42e23          	sw	a0,-36(s0)
200158c6:	fcb42c23          	sw	a1,-40(s0)
E:/8.AWS-FreeRTOS-HiFive1/Workspace/sifive-hifive1-revb-i2c/freedom-metal/src/drivers/sifive_uart0.c:65
    uint32_t ch;
    long control_base = __metal_driver_sifive_uart0_control_base(uart);
200158ca:	fdc42503          	lw	a0,-36(s0)
200158ce:	d6fff0ef          	jal	ra,2001563c <__metal_driver_sifive_uart0_control_base>
200158d2:	87aa                	mv	a5,a0
200158d4:	fef42623          	sw	a5,-20(s0)
E:/8.AWS-FreeRTOS-HiFive1/Workspace/sifive-hifive1-revb-i2c/freedom-metal/src/drivers/sifive_uart0.c:67
    /* No seperate status register, we get status and the byte at same time */
    ch = UART_REGW(METAL_SIFIVE_UART0_RXDATA);;
200158d8:	fec42783          	lw	a5,-20(s0)
200158dc:	0791                	addi	a5,a5,4
200158de:	439c                	lw	a5,0(a5)
200158e0:	fef42423          	sw	a5,-24(s0)
E:/8.AWS-FreeRTOS-HiFive1/Workspace/sifive-hifive1-revb-i2c/freedom-metal/src/drivers/sifive_uart0.c:68
    if( ch & UART_RXEMPTY ){
200158e4:	fe842783          	lw	a5,-24(s0)
200158e8:	0007d763          	bgez	a5,200158f6 <__metal_driver_sifive_uart0_getc+0x3c>
E:/8.AWS-FreeRTOS-HiFive1/Workspace/sifive-hifive1-revb-i2c/freedom-metal/src/drivers/sifive_uart0.c:69
      *c = -1; /* aka: EOF in most of the world */
200158ec:	fd842783          	lw	a5,-40(s0)
200158f0:	577d                	li	a4,-1
200158f2:	c398                	sw	a4,0(a5)
200158f4:	a801                	j	20015904 <__metal_driver_sifive_uart0_getc+0x4a>
E:/8.AWS-FreeRTOS-HiFive1/Workspace/sifive-hifive1-revb-i2c/freedom-metal/src/drivers/sifive_uart0.c:71
    } else {
      *c = ch & 0x0ff;
200158f6:	fe842783          	lw	a5,-24(s0)
200158fa:	0ff7f713          	andi	a4,a5,255
200158fe:	fd842783          	lw	a5,-40(s0)
20015902:	c398                	sw	a4,0(a5)
E:/8.AWS-FreeRTOS-HiFive1/Workspace/sifive-hifive1-revb-i2c/freedom-metal/src/drivers/sifive_uart0.c:73
    }
    return 0;
20015904:	4781                	li	a5,0
E:/8.AWS-FreeRTOS-HiFive1/Workspace/sifive-hifive1-revb-i2c/freedom-metal/src/drivers/sifive_uart0.c:74
}
20015906:	853e                	mv	a0,a5
20015908:	50b2                	lw	ra,44(sp)
2001590a:	5422                	lw	s0,40(sp)
2001590c:	6145                	addi	sp,sp,48
2001590e:	8082                	ret

20015910 <__metal_driver_sifive_uart0_get_baud_rate>:
__metal_driver_sifive_uart0_get_baud_rate():
E:/8.AWS-FreeRTOS-HiFive1/Workspace/sifive-hifive1-revb-i2c/freedom-metal/src/drivers/sifive_uart0.c:78


int __metal_driver_sifive_uart0_get_baud_rate(struct metal_uart *guart)
{
20015910:	7179                	addi	sp,sp,-48
20015912:	d622                	sw	s0,44(sp)
20015914:	1800                	addi	s0,sp,48
20015916:	fca42e23          	sw	a0,-36(s0)
E:/8.AWS-FreeRTOS-HiFive1/Workspace/sifive-hifive1-revb-i2c/freedom-metal/src/drivers/sifive_uart0.c:79
    struct __metal_driver_sifive_uart0 *uart = (void *)guart;
2001591a:	fdc42783          	lw	a5,-36(s0)
2001591e:	fef42623          	sw	a5,-20(s0)
E:/8.AWS-FreeRTOS-HiFive1/Workspace/sifive-hifive1-revb-i2c/freedom-metal/src/drivers/sifive_uart0.c:80
    return uart->baud_rate;
20015922:	fec42783          	lw	a5,-20(s0)
20015926:	43dc                	lw	a5,4(a5)
E:/8.AWS-FreeRTOS-HiFive1/Workspace/sifive-hifive1-revb-i2c/freedom-metal/src/drivers/sifive_uart0.c:81
}
20015928:	853e                	mv	a0,a5
2001592a:	5432                	lw	s0,44(sp)
2001592c:	6145                	addi	sp,sp,48
2001592e:	8082                	ret

20015930 <__metal_driver_sifive_uart0_set_baud_rate>:
__metal_driver_sifive_uart0_set_baud_rate():
E:/8.AWS-FreeRTOS-HiFive1/Workspace/sifive-hifive1-revb-i2c/freedom-metal/src/drivers/sifive_uart0.c:84

int __metal_driver_sifive_uart0_set_baud_rate(struct metal_uart *guart, int baud_rate)
{
20015930:	7179                	addi	sp,sp,-48
20015932:	d606                	sw	ra,44(sp)
20015934:	d422                	sw	s0,40(sp)
20015936:	1800                	addi	s0,sp,48
20015938:	fca42e23          	sw	a0,-36(s0)
2001593c:	fcb42c23          	sw	a1,-40(s0)
E:/8.AWS-FreeRTOS-HiFive1/Workspace/sifive-hifive1-revb-i2c/freedom-metal/src/drivers/sifive_uart0.c:85
    struct __metal_driver_sifive_uart0 *uart = (void *)guart;
20015940:	fdc42783          	lw	a5,-36(s0)
20015944:	fef42623          	sw	a5,-20(s0)
E:/8.AWS-FreeRTOS-HiFive1/Workspace/sifive-hifive1-revb-i2c/freedom-metal/src/drivers/sifive_uart0.c:86
    long control_base = __metal_driver_sifive_uart0_control_base(guart);
20015948:	fdc42503          	lw	a0,-36(s0)
2001594c:	cf1ff0ef          	jal	ra,2001563c <__metal_driver_sifive_uart0_control_base>
20015950:	87aa                	mv	a5,a0
20015952:	fef42423          	sw	a5,-24(s0)
E:/8.AWS-FreeRTOS-HiFive1/Workspace/sifive-hifive1-revb-i2c/freedom-metal/src/drivers/sifive_uart0.c:87
    struct metal_clock *clock = __metal_driver_sifive_uart0_clock(guart);
20015956:	fdc42503          	lw	a0,-36(s0)
2001595a:	da1ff0ef          	jal	ra,200156fa <__metal_driver_sifive_uart0_clock>
2001595e:	fea42223          	sw	a0,-28(s0)
E:/8.AWS-FreeRTOS-HiFive1/Workspace/sifive-hifive1-revb-i2c/freedom-metal/src/drivers/sifive_uart0.c:89

    uart->baud_rate = baud_rate;
20015962:	fd842703          	lw	a4,-40(s0)
20015966:	fec42783          	lw	a5,-20(s0)
2001596a:	c3d8                	sw	a4,4(a5)
E:/8.AWS-FreeRTOS-HiFive1/Workspace/sifive-hifive1-revb-i2c/freedom-metal/src/drivers/sifive_uart0.c:91

    if (clock != NULL) {
2001596c:	fe442783          	lw	a5,-28(s0)
20015970:	cbb1                	beqz	a5,200159c4 <__metal_driver_sifive_uart0_set_baud_rate+0x94>
E:/8.AWS-FreeRTOS-HiFive1/Workspace/sifive-hifive1-revb-i2c/freedom-metal/src/drivers/sifive_uart0.c:92
        long clock_rate = clock->vtable->get_rate_hz(clock);
20015972:	fe442783          	lw	a5,-28(s0)
20015976:	439c                	lw	a5,0(a5)
20015978:	439c                	lw	a5,0(a5)
2001597a:	fe442503          	lw	a0,-28(s0)
2001597e:	9782                	jalr	a5
20015980:	fea42023          	sw	a0,-32(s0)
E:/8.AWS-FreeRTOS-HiFive1/Workspace/sifive-hifive1-revb-i2c/freedom-metal/src/drivers/sifive_uart0.c:93
        UART_REGW(METAL_SIFIVE_UART0_DIV) = clock_rate / baud_rate - 1;
20015984:	fe042703          	lw	a4,-32(s0)
20015988:	fd842783          	lw	a5,-40(s0)
2001598c:	02f747b3          	div	a5,a4,a5
20015990:	fff78713          	addi	a4,a5,-1
20015994:	fe842783          	lw	a5,-24(s0)
20015998:	07e1                	addi	a5,a5,24
2001599a:	c398                	sw	a4,0(a5)
E:/8.AWS-FreeRTOS-HiFive1/Workspace/sifive-hifive1-revb-i2c/freedom-metal/src/drivers/sifive_uart0.c:94
        UART_REGW(METAL_SIFIVE_UART0_TXCTRL) |= UART_TXEN;
2001599c:	fe842783          	lw	a5,-24(s0)
200159a0:	07a1                	addi	a5,a5,8
200159a2:	439c                	lw	a5,0(a5)
200159a4:	fe842703          	lw	a4,-24(s0)
200159a8:	0721                	addi	a4,a4,8
200159aa:	0017e793          	ori	a5,a5,1
200159ae:	c31c                	sw	a5,0(a4)
E:/8.AWS-FreeRTOS-HiFive1/Workspace/sifive-hifive1-revb-i2c/freedom-metal/src/drivers/sifive_uart0.c:95
        UART_REGW(METAL_SIFIVE_UART0_RXCTRL) |= UART_RXEN;
200159b0:	fe842783          	lw	a5,-24(s0)
200159b4:	07b1                	addi	a5,a5,12
200159b6:	439c                	lw	a5,0(a5)
200159b8:	fe842703          	lw	a4,-24(s0)
200159bc:	0731                	addi	a4,a4,12
200159be:	0017e793          	ori	a5,a5,1
200159c2:	c31c                	sw	a5,0(a4)
E:/8.AWS-FreeRTOS-HiFive1/Workspace/sifive-hifive1-revb-i2c/freedom-metal/src/drivers/sifive_uart0.c:97
    }
    return 0;
200159c4:	4781                	li	a5,0
E:/8.AWS-FreeRTOS-HiFive1/Workspace/sifive-hifive1-revb-i2c/freedom-metal/src/drivers/sifive_uart0.c:98
}
200159c6:	853e                	mv	a0,a5
200159c8:	50b2                	lw	ra,44(sp)
200159ca:	5422                	lw	s0,40(sp)
200159cc:	6145                	addi	sp,sp,48
200159ce:	8082                	ret

200159d0 <pre_rate_change_callback_func>:
pre_rate_change_callback_func():
E:/8.AWS-FreeRTOS-HiFive1/Workspace/sifive-hifive1-revb-i2c/freedom-metal/src/drivers/sifive_uart0.c:101

static void pre_rate_change_callback_func(void *priv)
{
200159d0:	7139                	addi	sp,sp,-64
200159d2:	de06                	sw	ra,60(sp)
200159d4:	dc22                	sw	s0,56(sp)
200159d6:	0080                	addi	s0,sp,64
200159d8:	fca42623          	sw	a0,-52(s0)
E:/8.AWS-FreeRTOS-HiFive1/Workspace/sifive-hifive1-revb-i2c/freedom-metal/src/drivers/sifive_uart0.c:102
    struct __metal_driver_sifive_uart0 *uart = priv;
200159dc:	fcc42783          	lw	a5,-52(s0)
200159e0:	fef42623          	sw	a5,-20(s0)
E:/8.AWS-FreeRTOS-HiFive1/Workspace/sifive-hifive1-revb-i2c/freedom-metal/src/drivers/sifive_uart0.c:103
    long control_base = __metal_driver_sifive_uart0_control_base((struct metal_uart *)priv);
200159e4:	fcc42503          	lw	a0,-52(s0)
200159e8:	c55ff0ef          	jal	ra,2001563c <__metal_driver_sifive_uart0_control_base>
200159ec:	87aa                	mv	a5,a0
200159ee:	fef42423          	sw	a5,-24(s0)
E:/8.AWS-FreeRTOS-HiFive1/Workspace/sifive-hifive1-revb-i2c/freedom-metal/src/drivers/sifive_uart0.c:104
    struct metal_clock *clock = __metal_driver_sifive_uart0_clock((struct metal_uart *)priv);
200159f2:	fcc42503          	lw	a0,-52(s0)
200159f6:	d05ff0ef          	jal	ra,200156fa <__metal_driver_sifive_uart0_clock>
200159fa:	fea42223          	sw	a0,-28(s0)
E:/8.AWS-FreeRTOS-HiFive1/Workspace/sifive-hifive1-revb-i2c/freedom-metal/src/drivers/sifive_uart0.c:109

    /* Detect when the TXDATA is empty by setting the transmit watermark count
     * to one and waiting until an interrupt is pending */

    UART_REGW(METAL_SIFIVE_UART0_TXCTRL) &= ~(UART_TXCNT(0x7));
200159fe:	fe842783          	lw	a5,-24(s0)
20015a02:	07a1                	addi	a5,a5,8
20015a04:	4398                	lw	a4,0(a5)
20015a06:	fe842783          	lw	a5,-24(s0)
20015a0a:	07a1                	addi	a5,a5,8
20015a0c:	86be                	mv	a3,a5
20015a0e:	fff907b7          	lui	a5,0xfff90
20015a12:	17fd                	addi	a5,a5,-1
20015a14:	8ff9                	and	a5,a5,a4
20015a16:	c29c                	sw	a5,0(a3)
E:/8.AWS-FreeRTOS-HiFive1/Workspace/sifive-hifive1-revb-i2c/freedom-metal/src/drivers/sifive_uart0.c:110
    UART_REGW(METAL_SIFIVE_UART0_TXCTRL) |= UART_TXCNT(1);
20015a18:	fe842783          	lw	a5,-24(s0)
20015a1c:	07a1                	addi	a5,a5,8
20015a1e:	4398                	lw	a4,0(a5)
20015a20:	fe842783          	lw	a5,-24(s0)
20015a24:	07a1                	addi	a5,a5,8
20015a26:	86be                	mv	a3,a5
20015a28:	67c1                	lui	a5,0x10
20015a2a:	8fd9                	or	a5,a5,a4
20015a2c:	c29c                	sw	a5,0(a3)
E:/8.AWS-FreeRTOS-HiFive1/Workspace/sifive-hifive1-revb-i2c/freedom-metal/src/drivers/sifive_uart0.c:112

    while((UART_REGW(METAL_SIFIVE_UART0_IP) & UART_TXWM) == 0) ;
20015a2e:	0001                	nop
E:/8.AWS-FreeRTOS-HiFive1/Workspace/sifive-hifive1-revb-i2c/freedom-metal/src/drivers/sifive_uart0.c:112 (discriminator 1)
20015a30:	fe842783          	lw	a5,-24(s0)
20015a34:	07d1                	addi	a5,a5,20
20015a36:	439c                	lw	a5,0(a5)
20015a38:	8b85                	andi	a5,a5,1
20015a3a:	dbfd                	beqz	a5,20015a30 <pre_rate_change_callback_func+0x60>
E:/8.AWS-FreeRTOS-HiFive1/Workspace/sifive-hifive1-revb-i2c/freedom-metal/src/drivers/sifive_uart0.c:118

    /* When the TXDATA clears, the UART is still shifting out the last byte.
     * Calculate the time we must drain to finish transmitting and then wait
     * that long. */

    long bits_per_symbol = (UART_REGW(METAL_SIFIVE_UART0_TXCTRL) & (1 << 1)) ? 9 : 10;
20015a3c:	fe842783          	lw	a5,-24(s0)
20015a40:	07a1                	addi	a5,a5,8
20015a42:	439c                	lw	a5,0(a5)
20015a44:	8b89                	andi	a5,a5,2
20015a46:	c399                	beqz	a5,20015a4c <pre_rate_change_callback_func+0x7c>
E:/8.AWS-FreeRTOS-HiFive1/Workspace/sifive-hifive1-revb-i2c/freedom-metal/src/drivers/sifive_uart0.c:118 (discriminator 1)
20015a48:	47a5                	li	a5,9
20015a4a:	a011                	j	20015a4e <pre_rate_change_callback_func+0x7e>
E:/8.AWS-FreeRTOS-HiFive1/Workspace/sifive-hifive1-revb-i2c/freedom-metal/src/drivers/sifive_uart0.c:118 (discriminator 2)
20015a4c:	47a9                	li	a5,10
E:/8.AWS-FreeRTOS-HiFive1/Workspace/sifive-hifive1-revb-i2c/freedom-metal/src/drivers/sifive_uart0.c:118 (discriminator 4)
20015a4e:	fef42023          	sw	a5,-32(s0)
E:/8.AWS-FreeRTOS-HiFive1/Workspace/sifive-hifive1-revb-i2c/freedom-metal/src/drivers/sifive_uart0.c:119 (discriminator 4)
    long clk_freq = clock->vtable->get_rate_hz(clock);
20015a52:	fe442783          	lw	a5,-28(s0)
20015a56:	439c                	lw	a5,0(a5)
20015a58:	439c                	lw	a5,0(a5)
20015a5a:	fe442503          	lw	a0,-28(s0)
20015a5e:	9782                	jalr	a5
20015a60:	fca42e23          	sw	a0,-36(s0)
E:/8.AWS-FreeRTOS-HiFive1/Workspace/sifive-hifive1-revb-i2c/freedom-metal/src/drivers/sifive_uart0.c:120 (discriminator 4)
    long cycles_to_wait = bits_per_symbol * clk_freq / uart->baud_rate;
20015a64:	fe042703          	lw	a4,-32(s0)
20015a68:	fdc42783          	lw	a5,-36(s0)
20015a6c:	02f707b3          	mul	a5,a4,a5
20015a70:	873e                	mv	a4,a5
20015a72:	fec42783          	lw	a5,-20(s0)
20015a76:	43dc                	lw	a5,4(a5)
20015a78:	02f757b3          	divu	a5,a4,a5
20015a7c:	fcf42c23          	sw	a5,-40(s0)
E:/8.AWS-FreeRTOS-HiFive1/Workspace/sifive-hifive1-revb-i2c/freedom-metal/src/drivers/sifive_uart0.c:122 (discriminator 4)

    for(volatile long x = 0; x < cycles_to_wait; x++)
20015a80:	fc042a23          	sw	zero,-44(s0)
20015a84:	a039                	j	20015a92 <pre_rate_change_callback_func+0xc2>
E:/8.AWS-FreeRTOS-HiFive1/Workspace/sifive-hifive1-revb-i2c/freedom-metal/src/drivers/sifive_uart0.c:123 (discriminator 3)
        __asm__("nop");
20015a86:	0001                	nop
E:/8.AWS-FreeRTOS-HiFive1/Workspace/sifive-hifive1-revb-i2c/freedom-metal/src/drivers/sifive_uart0.c:122 (discriminator 3)
    for(volatile long x = 0; x < cycles_to_wait; x++)
20015a88:	fd442783          	lw	a5,-44(s0)
20015a8c:	0785                	addi	a5,a5,1
20015a8e:	fcf42a23          	sw	a5,-44(s0)
E:/8.AWS-FreeRTOS-HiFive1/Workspace/sifive-hifive1-revb-i2c/freedom-metal/src/drivers/sifive_uart0.c:122 (discriminator 1)
20015a92:	fd442783          	lw	a5,-44(s0)
20015a96:	fd842703          	lw	a4,-40(s0)
20015a9a:	fee7c6e3          	blt	a5,a4,20015a86 <pre_rate_change_callback_func+0xb6>
E:/8.AWS-FreeRTOS-HiFive1/Workspace/sifive-hifive1-revb-i2c/freedom-metal/src/drivers/sifive_uart0.c:124
}
20015a9e:	0001                	nop
20015aa0:	50f2                	lw	ra,60(sp)
20015aa2:	5462                	lw	s0,56(sp)
20015aa4:	6121                	addi	sp,sp,64
20015aa6:	8082                	ret

20015aa8 <post_rate_change_callback_func>:
post_rate_change_callback_func():
E:/8.AWS-FreeRTOS-HiFive1/Workspace/sifive-hifive1-revb-i2c/freedom-metal/src/drivers/sifive_uart0.c:127

static void post_rate_change_callback_func(void *priv)
{
20015aa8:	7179                	addi	sp,sp,-48
20015aaa:	d606                	sw	ra,44(sp)
20015aac:	d422                	sw	s0,40(sp)
20015aae:	1800                	addi	s0,sp,48
20015ab0:	fca42e23          	sw	a0,-36(s0)
E:/8.AWS-FreeRTOS-HiFive1/Workspace/sifive-hifive1-revb-i2c/freedom-metal/src/drivers/sifive_uart0.c:128
    struct __metal_driver_sifive_uart0 *uart = priv;
20015ab4:	fdc42783          	lw	a5,-36(s0)
20015ab8:	fef42623          	sw	a5,-20(s0)
E:/8.AWS-FreeRTOS-HiFive1/Workspace/sifive-hifive1-revb-i2c/freedom-metal/src/drivers/sifive_uart0.c:129
    metal_uart_set_baud_rate(&uart->uart, uart->baud_rate);
20015abc:	fec42703          	lw	a4,-20(s0)
20015ac0:	fec42783          	lw	a5,-20(s0)
20015ac4:	43dc                	lw	a5,4(a5)
20015ac6:	85be                	mv	a1,a5
20015ac8:	853a                	mv	a0,a4
20015aca:	2949                	jal	20015f5c <metal_uart_set_baud_rate>
E:/8.AWS-FreeRTOS-HiFive1/Workspace/sifive-hifive1-revb-i2c/freedom-metal/src/drivers/sifive_uart0.c:130
}
20015acc:	0001                	nop
20015ace:	50b2                	lw	ra,44(sp)
20015ad0:	5422                	lw	s0,40(sp)
20015ad2:	6145                	addi	sp,sp,48
20015ad4:	8082                	ret

20015ad6 <__metal_driver_sifive_uart0_init>:
__metal_driver_sifive_uart0_init():
E:/8.AWS-FreeRTOS-HiFive1/Workspace/sifive-hifive1-revb-i2c/freedom-metal/src/drivers/sifive_uart0.c:133

void __metal_driver_sifive_uart0_init(struct metal_uart *guart, int baud_rate)
{
20015ad6:	7139                	addi	sp,sp,-64
20015ad8:	de06                	sw	ra,60(sp)
20015ada:	dc22                	sw	s0,56(sp)
20015adc:	0080                	addi	s0,sp,64
20015ade:	fca42623          	sw	a0,-52(s0)
20015ae2:	fcb42423          	sw	a1,-56(s0)
E:/8.AWS-FreeRTOS-HiFive1/Workspace/sifive-hifive1-revb-i2c/freedom-metal/src/drivers/sifive_uart0.c:134
    struct __metal_driver_sifive_uart0 *uart = (void *)(guart);
20015ae6:	fcc42783          	lw	a5,-52(s0)
20015aea:	fef42623          	sw	a5,-20(s0)
E:/8.AWS-FreeRTOS-HiFive1/Workspace/sifive-hifive1-revb-i2c/freedom-metal/src/drivers/sifive_uart0.c:135
    struct metal_clock *clock = __metal_driver_sifive_uart0_clock(guart);
20015aee:	fcc42503          	lw	a0,-52(s0)
20015af2:	c09ff0ef          	jal	ra,200156fa <__metal_driver_sifive_uart0_clock>
20015af6:	fea42423          	sw	a0,-24(s0)
E:/8.AWS-FreeRTOS-HiFive1/Workspace/sifive-hifive1-revb-i2c/freedom-metal/src/drivers/sifive_uart0.c:136
    struct __metal_driver_sifive_gpio0 *pinmux = __metal_driver_sifive_uart0_pinmux(guart);
20015afa:	fcc42503          	lw	a0,-52(s0)
20015afe:	c45ff0ef          	jal	ra,20015742 <__metal_driver_sifive_uart0_pinmux>
20015b02:	fea42223          	sw	a0,-28(s0)
E:/8.AWS-FreeRTOS-HiFive1/Workspace/sifive-hifive1-revb-i2c/freedom-metal/src/drivers/sifive_uart0.c:138

    if(clock != NULL) {
20015b06:	fe842783          	lw	a5,-24(s0)
20015b0a:	c7b9                	beqz	a5,20015b58 <__metal_driver_sifive_uart0_init+0x82>
E:/8.AWS-FreeRTOS-HiFive1/Workspace/sifive-hifive1-revb-i2c/freedom-metal/src/drivers/sifive_uart0.c:139
        uart->pre_rate_change_callback.callback = &pre_rate_change_callback_func;
20015b0c:	fec42783          	lw	a5,-20(s0)
20015b10:	20016737          	lui	a4,0x20016
20015b14:	9d070713          	addi	a4,a4,-1584 # 200159d0 <pre_rate_change_callback_func>
20015b18:	c798                	sw	a4,8(a5)
E:/8.AWS-FreeRTOS-HiFive1/Workspace/sifive-hifive1-revb-i2c/freedom-metal/src/drivers/sifive_uart0.c:140
        uart->pre_rate_change_callback.priv = guart;
20015b1a:	fec42783          	lw	a5,-20(s0)
20015b1e:	fcc42703          	lw	a4,-52(s0)
20015b22:	c7d8                	sw	a4,12(a5)
E:/8.AWS-FreeRTOS-HiFive1/Workspace/sifive-hifive1-revb-i2c/freedom-metal/src/drivers/sifive_uart0.c:141
        metal_clock_register_pre_rate_change_callback(clock, &(uart->pre_rate_change_callback));
20015b24:	fec42783          	lw	a5,-20(s0)
20015b28:	07a1                	addi	a5,a5,8
20015b2a:	85be                	mv	a1,a5
20015b2c:	fe842503          	lw	a0,-24(s0)
20015b30:	2aad                	jal	20015caa <metal_clock_register_pre_rate_change_callback>
E:/8.AWS-FreeRTOS-HiFive1/Workspace/sifive-hifive1-revb-i2c/freedom-metal/src/drivers/sifive_uart0.c:143

        uart->post_rate_change_callback.callback = &post_rate_change_callback_func;
20015b32:	fec42783          	lw	a5,-20(s0)
20015b36:	20016737          	lui	a4,0x20016
20015b3a:	aa870713          	addi	a4,a4,-1368 # 20015aa8 <post_rate_change_callback_func>
20015b3e:	cbd8                	sw	a4,20(a5)
E:/8.AWS-FreeRTOS-HiFive1/Workspace/sifive-hifive1-revb-i2c/freedom-metal/src/drivers/sifive_uart0.c:144
        uart->post_rate_change_callback.priv = guart;
20015b40:	fec42783          	lw	a5,-20(s0)
20015b44:	fcc42703          	lw	a4,-52(s0)
20015b48:	cf98                	sw	a4,24(a5)
E:/8.AWS-FreeRTOS-HiFive1/Workspace/sifive-hifive1-revb-i2c/freedom-metal/src/drivers/sifive_uart0.c:145
        metal_clock_register_post_rate_change_callback(clock, &(uart->post_rate_change_callback));
20015b4a:	fec42783          	lw	a5,-20(s0)
20015b4e:	07d1                	addi	a5,a5,20
20015b50:	85be                	mv	a1,a5
20015b52:	fe842503          	lw	a0,-24(s0)
20015b56:	2259                	jal	20015cdc <metal_clock_register_post_rate_change_callback>
E:/8.AWS-FreeRTOS-HiFive1/Workspace/sifive-hifive1-revb-i2c/freedom-metal/src/drivers/sifive_uart0.c:148
    }

    metal_uart_set_baud_rate(&(uart->uart), baud_rate);
20015b58:	fec42783          	lw	a5,-20(s0)
20015b5c:	fc842583          	lw	a1,-56(s0)
20015b60:	853e                	mv	a0,a5
20015b62:	2eed                	jal	20015f5c <metal_uart_set_baud_rate>
E:/8.AWS-FreeRTOS-HiFive1/Workspace/sifive-hifive1-revb-i2c/freedom-metal/src/drivers/sifive_uart0.c:150

    if (pinmux != NULL) {
20015b64:	fe442783          	lw	a5,-28(s0)
20015b68:	cb95                	beqz	a5,20015b9c <__metal_driver_sifive_uart0_init+0xc6>
E:/8.AWS-FreeRTOS-HiFive1/Workspace/sifive-hifive1-revb-i2c/freedom-metal/src/drivers/sifive_uart0.c:151
        long pinmux_output_selector = __metal_driver_sifive_uart0_pinmux_output_selector(guart);
20015b6a:	fcc42503          	lw	a0,-52(s0)
20015b6e:	c15ff0ef          	jal	ra,20015782 <__metal_driver_sifive_uart0_pinmux_output_selector>
20015b72:	87aa                	mv	a5,a0
20015b74:	fef42023          	sw	a5,-32(s0)
E:/8.AWS-FreeRTOS-HiFive1/Workspace/sifive-hifive1-revb-i2c/freedom-metal/src/drivers/sifive_uart0.c:152
        long pinmux_source_selector = __metal_driver_sifive_uart0_pinmux_source_selector(guart);
20015b78:	fcc42503          	lw	a0,-52(s0)
20015b7c:	c47ff0ef          	jal	ra,200157c2 <__metal_driver_sifive_uart0_pinmux_source_selector>
20015b80:	87aa                	mv	a5,a0
20015b82:	fcf42e23          	sw	a5,-36(s0)
E:/8.AWS-FreeRTOS-HiFive1/Workspace/sifive-hifive1-revb-i2c/freedom-metal/src/drivers/sifive_uart0.c:153
        pinmux->gpio.vtable->enable_io(
20015b86:	fe442783          	lw	a5,-28(s0)
20015b8a:	439c                	lw	a5,0(a5)
20015b8c:	53dc                	lw	a5,36(a5)
20015b8e:	fdc42603          	lw	a2,-36(s0)
20015b92:	fe042583          	lw	a1,-32(s0)
20015b96:	fe442503          	lw	a0,-28(s0)
20015b9a:	9782                	jalr	a5
E:/8.AWS-FreeRTOS-HiFive1/Workspace/sifive-hifive1-revb-i2c/freedom-metal/src/drivers/sifive_uart0.c:159
            (struct metal_gpio *) pinmux,
            pinmux_output_selector,
            pinmux_source_selector
        );
    }
}
20015b9c:	0001                	nop
20015b9e:	50f2                	lw	ra,60(sp)
20015ba0:	5462                	lw	s0,56(sp)
20015ba2:	6121                	addi	sp,sp,64
20015ba4:	8082                	ret

20015ba6 <_metal_clock_call_all_callbacks>:
_metal_clock_call_all_callbacks():
E:/8.AWS-FreeRTOS-HiFive1/Workspace/sifive-hifive1-revb-i2c/freedom-metal/metal/clock.h:48
typedef struct _metal_clock_callback_t metal_clock_callback;

/*!
 * @brief Call all callbacks in the linked list, if any are registered
 */
__inline__ void _metal_clock_call_all_callbacks(const metal_clock_callback *const list) {
20015ba6:	7179                	addi	sp,sp,-48
20015ba8:	d606                	sw	ra,44(sp)
20015baa:	d422                	sw	s0,40(sp)
20015bac:	1800                	addi	s0,sp,48
20015bae:	fca42e23          	sw	a0,-36(s0)
E:/8.AWS-FreeRTOS-HiFive1/Workspace/sifive-hifive1-revb-i2c/freedom-metal/metal/clock.h:49
    const metal_clock_callback *current = list;
20015bb2:	fdc42783          	lw	a5,-36(s0)
20015bb6:	fef42623          	sw	a5,-20(s0)
E:/8.AWS-FreeRTOS-HiFive1/Workspace/sifive-hifive1-revb-i2c/freedom-metal/metal/clock.h:50
    while (current) {
20015bba:	a831                	j	20015bd6 <_metal_clock_call_all_callbacks+0x30>
E:/8.AWS-FreeRTOS-HiFive1/Workspace/sifive-hifive1-revb-i2c/freedom-metal/metal/clock.h:51
        current->callback(current->priv);
20015bbc:	fec42783          	lw	a5,-20(s0)
20015bc0:	4398                	lw	a4,0(a5)
20015bc2:	fec42783          	lw	a5,-20(s0)
20015bc6:	43dc                	lw	a5,4(a5)
20015bc8:	853e                	mv	a0,a5
20015bca:	9702                	jalr	a4
E:/8.AWS-FreeRTOS-HiFive1/Workspace/sifive-hifive1-revb-i2c/freedom-metal/metal/clock.h:52
        current = current->_next;
20015bcc:	fec42783          	lw	a5,-20(s0)
20015bd0:	479c                	lw	a5,8(a5)
20015bd2:	fef42623          	sw	a5,-20(s0)
E:/8.AWS-FreeRTOS-HiFive1/Workspace/sifive-hifive1-revb-i2c/freedom-metal/metal/clock.h:50
    while (current) {
20015bd6:	fec42783          	lw	a5,-20(s0)
20015bda:	f3ed                	bnez	a5,20015bbc <_metal_clock_call_all_callbacks+0x16>
E:/8.AWS-FreeRTOS-HiFive1/Workspace/sifive-hifive1-revb-i2c/freedom-metal/metal/clock.h:54
    }
}
20015bdc:	0001                	nop
20015bde:	50b2                	lw	ra,44(sp)
20015be0:	5422                	lw	s0,40(sp)
20015be2:	6145                	addi	sp,sp,48
20015be4:	8082                	ret

20015be6 <_metal_clock_append_to_callbacks>:
_metal_clock_append_to_callbacks():
E:/8.AWS-FreeRTOS-HiFive1/Workspace/sifive-hifive1-revb-i2c/freedom-metal/metal/clock.h:59

/*!
 * @brief Append a callback to the linked list and return the head of the list
 */
__inline__ metal_clock_callback *_metal_clock_append_to_callbacks(metal_clock_callback *list, metal_clock_callback *const cb) {
20015be6:	7179                	addi	sp,sp,-48
20015be8:	d622                	sw	s0,44(sp)
20015bea:	1800                	addi	s0,sp,48
20015bec:	fca42e23          	sw	a0,-36(s0)
20015bf0:	fcb42c23          	sw	a1,-40(s0)
E:/8.AWS-FreeRTOS-HiFive1/Workspace/sifive-hifive1-revb-i2c/freedom-metal/metal/clock.h:60
    cb->_next = NULL;
20015bf4:	fd842783          	lw	a5,-40(s0)
20015bf8:	0007a423          	sw	zero,8(a5) # 10008 <__heap_size+0xf808>
E:/8.AWS-FreeRTOS-HiFive1/Workspace/sifive-hifive1-revb-i2c/freedom-metal/metal/clock.h:62

    if (!list) {
20015bfc:	fdc42783          	lw	a5,-36(s0)
20015c00:	e781                	bnez	a5,20015c08 <_metal_clock_append_to_callbacks+0x22>
E:/8.AWS-FreeRTOS-HiFive1/Workspace/sifive-hifive1-revb-i2c/freedom-metal/metal/clock.h:63
        return cb;
20015c02:	fd842783          	lw	a5,-40(s0)
20015c06:	a035                	j	20015c32 <_metal_clock_append_to_callbacks+0x4c>
E:/8.AWS-FreeRTOS-HiFive1/Workspace/sifive-hifive1-revb-i2c/freedom-metal/metal/clock.h:66
    }

    metal_clock_callback *current = list;
20015c08:	fdc42783          	lw	a5,-36(s0)
20015c0c:	fef42623          	sw	a5,-20(s0)
E:/8.AWS-FreeRTOS-HiFive1/Workspace/sifive-hifive1-revb-i2c/freedom-metal/metal/clock.h:68

    while ((current->_next) != NULL) {
20015c10:	a031                	j	20015c1c <_metal_clock_append_to_callbacks+0x36>
E:/8.AWS-FreeRTOS-HiFive1/Workspace/sifive-hifive1-revb-i2c/freedom-metal/metal/clock.h:69
        current = current->_next;
20015c12:	fec42783          	lw	a5,-20(s0)
20015c16:	479c                	lw	a5,8(a5)
20015c18:	fef42623          	sw	a5,-20(s0)
E:/8.AWS-FreeRTOS-HiFive1/Workspace/sifive-hifive1-revb-i2c/freedom-metal/metal/clock.h:68
    while ((current->_next) != NULL) {
20015c1c:	fec42783          	lw	a5,-20(s0)
20015c20:	479c                	lw	a5,8(a5)
20015c22:	fbe5                	bnez	a5,20015c12 <_metal_clock_append_to_callbacks+0x2c>
E:/8.AWS-FreeRTOS-HiFive1/Workspace/sifive-hifive1-revb-i2c/freedom-metal/metal/clock.h:72
    }

    current->_next = cb;
20015c24:	fec42783          	lw	a5,-20(s0)
20015c28:	fd842703          	lw	a4,-40(s0)
20015c2c:	c798                	sw	a4,8(a5)
E:/8.AWS-FreeRTOS-HiFive1/Workspace/sifive-hifive1-revb-i2c/freedom-metal/metal/clock.h:74

    return list;
20015c2e:	fdc42783          	lw	a5,-36(s0)
E:/8.AWS-FreeRTOS-HiFive1/Workspace/sifive-hifive1-revb-i2c/freedom-metal/metal/clock.h:75
}
20015c32:	853e                	mv	a0,a5
20015c34:	5432                	lw	s0,44(sp)
20015c36:	6145                	addi	sp,sp,48
20015c38:	8082                	ret

20015c3a <metal_clock_get_rate_hz>:
metal_clock_get_rate_hz():
E:/8.AWS-FreeRTOS-HiFive1/Workspace/sifive-hifive1-revb-i2c/freedom-metal/metal/clock.h:105
 * @brief Returns the current rate of the given clock
 *
 * @param clk The handle for the clock
 * @return The current rate of the clock in Hz
 */
__inline__ long metal_clock_get_rate_hz(const struct metal_clock *clk) { return clk->vtable->get_rate_hz(clk); }
20015c3a:	1101                	addi	sp,sp,-32
20015c3c:	ce06                	sw	ra,28(sp)
20015c3e:	cc22                	sw	s0,24(sp)
20015c40:	1000                	addi	s0,sp,32
20015c42:	fea42623          	sw	a0,-20(s0)
20015c46:	fec42783          	lw	a5,-20(s0)
20015c4a:	439c                	lw	a5,0(a5)
20015c4c:	439c                	lw	a5,0(a5)
20015c4e:	fec42503          	lw	a0,-20(s0)
20015c52:	9782                	jalr	a5
20015c54:	87aa                	mv	a5,a0
20015c56:	853e                	mv	a0,a5
20015c58:	40f2                	lw	ra,28(sp)
20015c5a:	4462                	lw	s0,24(sp)
20015c5c:	6105                	addi	sp,sp,32
20015c5e:	8082                	ret

20015c60 <metal_clock_set_rate_hz>:
metal_clock_set_rate_hz():
E:/8.AWS-FreeRTOS-HiFive1/Workspace/sifive-hifive1-revb-i2c/freedom-metal/metal/clock.h:122
 *
 * Prior to and after the rate change of the clock, this will call the registered
 * pre- and post-rate change callbacks.
 */
__inline__ long metal_clock_set_rate_hz(struct metal_clock *clk, long hz)
{
20015c60:	7179                	addi	sp,sp,-48
20015c62:	d606                	sw	ra,44(sp)
20015c64:	d422                	sw	s0,40(sp)
20015c66:	1800                	addi	s0,sp,48
20015c68:	fca42e23          	sw	a0,-36(s0)
20015c6c:	fcb42c23          	sw	a1,-40(s0)
E:/8.AWS-FreeRTOS-HiFive1/Workspace/sifive-hifive1-revb-i2c/freedom-metal/metal/clock.h:123
    _metal_clock_call_all_callbacks(clk->_pre_rate_change_callback);
20015c70:	fdc42783          	lw	a5,-36(s0)
20015c74:	43dc                	lw	a5,4(a5)
20015c76:	853e                	mv	a0,a5
20015c78:	373d                	jal	20015ba6 <_metal_clock_call_all_callbacks>
E:/8.AWS-FreeRTOS-HiFive1/Workspace/sifive-hifive1-revb-i2c/freedom-metal/metal/clock.h:125

    long out = clk->vtable->set_rate_hz(clk, hz);
20015c7a:	fdc42783          	lw	a5,-36(s0)
20015c7e:	439c                	lw	a5,0(a5)
20015c80:	43dc                	lw	a5,4(a5)
20015c82:	fd842583          	lw	a1,-40(s0)
20015c86:	fdc42503          	lw	a0,-36(s0)
20015c8a:	9782                	jalr	a5
20015c8c:	fea42623          	sw	a0,-20(s0)
E:/8.AWS-FreeRTOS-HiFive1/Workspace/sifive-hifive1-revb-i2c/freedom-metal/metal/clock.h:127

    _metal_clock_call_all_callbacks(clk->_post_rate_change_callback);
20015c90:	fdc42783          	lw	a5,-36(s0)
20015c94:	479c                	lw	a5,8(a5)
20015c96:	853e                	mv	a0,a5
20015c98:	f0fff0ef          	jal	ra,20015ba6 <_metal_clock_call_all_callbacks>
E:/8.AWS-FreeRTOS-HiFive1/Workspace/sifive-hifive1-revb-i2c/freedom-metal/metal/clock.h:129

    return out;
20015c9c:	fec42783          	lw	a5,-20(s0)
E:/8.AWS-FreeRTOS-HiFive1/Workspace/sifive-hifive1-revb-i2c/freedom-metal/metal/clock.h:130
}
20015ca0:	853e                	mv	a0,a5
20015ca2:	50b2                	lw	ra,44(sp)
20015ca4:	5422                	lw	s0,40(sp)
20015ca6:	6145                	addi	sp,sp,48
20015ca8:	8082                	ret

20015caa <metal_clock_register_pre_rate_change_callback>:
metal_clock_register_pre_rate_change_callback():
E:/8.AWS-FreeRTOS-HiFive1/Workspace/sifive-hifive1-revb-i2c/freedom-metal/metal/clock.h:139
 *
 * @param clk The handle for the clock
 * @param cb The callback to be registered
 */
__inline__ void metal_clock_register_pre_rate_change_callback(struct metal_clock *clk, metal_clock_callback *cb)
{
20015caa:	1101                	addi	sp,sp,-32
20015cac:	ce06                	sw	ra,28(sp)
20015cae:	cc22                	sw	s0,24(sp)
20015cb0:	1000                	addi	s0,sp,32
20015cb2:	fea42623          	sw	a0,-20(s0)
20015cb6:	feb42423          	sw	a1,-24(s0)
E:/8.AWS-FreeRTOS-HiFive1/Workspace/sifive-hifive1-revb-i2c/freedom-metal/metal/clock.h:140
    clk->_pre_rate_change_callback = _metal_clock_append_to_callbacks(clk->_pre_rate_change_callback, cb);
20015cba:	fec42783          	lw	a5,-20(s0)
20015cbe:	43dc                	lw	a5,4(a5)
20015cc0:	fe842583          	lw	a1,-24(s0)
20015cc4:	853e                	mv	a0,a5
20015cc6:	f21ff0ef          	jal	ra,20015be6 <_metal_clock_append_to_callbacks>
20015cca:	872a                	mv	a4,a0
20015ccc:	fec42783          	lw	a5,-20(s0)
20015cd0:	c3d8                	sw	a4,4(a5)
E:/8.AWS-FreeRTOS-HiFive1/Workspace/sifive-hifive1-revb-i2c/freedom-metal/metal/clock.h:141
}
20015cd2:	0001                	nop
20015cd4:	40f2                	lw	ra,28(sp)
20015cd6:	4462                	lw	s0,24(sp)
20015cd8:	6105                	addi	sp,sp,32
20015cda:	8082                	ret

20015cdc <metal_clock_register_post_rate_change_callback>:
metal_clock_register_post_rate_change_callback():
E:/8.AWS-FreeRTOS-HiFive1/Workspace/sifive-hifive1-revb-i2c/freedom-metal/metal/clock.h:150
 *
 * @param clk The handle for the clock
 * @param cb The callback to be registered
 */
__inline__ void metal_clock_register_post_rate_change_callback(struct metal_clock *clk, metal_clock_callback *cb)
{
20015cdc:	1101                	addi	sp,sp,-32
20015cde:	ce06                	sw	ra,28(sp)
20015ce0:	cc22                	sw	s0,24(sp)
20015ce2:	1000                	addi	s0,sp,32
20015ce4:	fea42623          	sw	a0,-20(s0)
20015ce8:	feb42423          	sw	a1,-24(s0)
E:/8.AWS-FreeRTOS-HiFive1/Workspace/sifive-hifive1-revb-i2c/freedom-metal/metal/clock.h:151
    clk->_post_rate_change_callback = _metal_clock_append_to_callbacks(clk->_post_rate_change_callback, cb);
20015cec:	fec42783          	lw	a5,-20(s0)
20015cf0:	479c                	lw	a5,8(a5)
20015cf2:	fe842583          	lw	a1,-24(s0)
20015cf6:	853e                	mv	a0,a5
20015cf8:	eefff0ef          	jal	ra,20015be6 <_metal_clock_append_to_callbacks>
20015cfc:	872a                	mv	a4,a0
20015cfe:	fec42783          	lw	a5,-20(s0)
20015d02:	c798                	sw	a4,8(a5)
E:/8.AWS-FreeRTOS-HiFive1/Workspace/sifive-hifive1-revb-i2c/freedom-metal/metal/clock.h:152
}
20015d04:	0001                	nop
20015d06:	40f2                	lw	ra,28(sp)
20015d08:	4462                	lw	s0,24(sp)
20015d0a:	6105                	addi	sp,sp,32
20015d0c:	8082                	ret

20015d0e <metal_cpu_get_timer>:
metal_cpu_get_timer():
E:/8.AWS-FreeRTOS-HiFive1/Workspace/sifive-hifive1-revb-i2c/freedom-metal/metal/cpu.h:72
 *
 * @param cpu The CPU device handle
 * @return The value of the CPU cycle count timer
 */
__inline__ unsigned long long metal_cpu_get_timer(struct metal_cpu *cpu)
{ return cpu->vtable->mcycle_get(cpu); }
20015d0e:	1101                	addi	sp,sp,-32
20015d10:	ce06                	sw	ra,28(sp)
20015d12:	cc22                	sw	s0,24(sp)
20015d14:	1000                	addi	s0,sp,32
20015d16:	fea42623          	sw	a0,-20(s0)
20015d1a:	fec42783          	lw	a5,-20(s0)
20015d1e:	439c                	lw	a5,0(a5)
20015d20:	439c                	lw	a5,0(a5)
20015d22:	fec42503          	lw	a0,-20(s0)
20015d26:	9782                	jalr	a5
20015d28:	87aa                	mv	a5,a0
20015d2a:	882e                	mv	a6,a1
20015d2c:	853e                	mv	a0,a5
20015d2e:	85c2                	mv	a1,a6
20015d30:	40f2                	lw	ra,28(sp)
20015d32:	4462                	lw	s0,24(sp)
20015d34:	6105                	addi	sp,sp,32
20015d36:	8082                	ret

20015d38 <metal_cpu_get_timebase>:
metal_cpu_get_timebase():
E:/8.AWS-FreeRTOS-HiFive1/Workspace/sifive-hifive1-revb-i2c/freedom-metal/metal/cpu.h:82
 *
 * @param cpu The CPU device handle
 * @return The value of the cycle count timer timebase
 */
__inline__ unsigned long long metal_cpu_get_timebase(struct metal_cpu *cpu)
{ return cpu->vtable->timebase_get(cpu); }
20015d38:	1101                	addi	sp,sp,-32
20015d3a:	ce06                	sw	ra,28(sp)
20015d3c:	cc22                	sw	s0,24(sp)
20015d3e:	1000                	addi	s0,sp,32
20015d40:	fea42623          	sw	a0,-20(s0)
20015d44:	fec42783          	lw	a5,-20(s0)
20015d48:	439c                	lw	a5,0(a5)
20015d4a:	43dc                	lw	a5,4(a5)
20015d4c:	fec42503          	lw	a0,-20(s0)
20015d50:	9782                	jalr	a5
20015d52:	87aa                	mv	a5,a0
20015d54:	882e                	mv	a6,a1
20015d56:	853e                	mv	a0,a5
20015d58:	85c2                	mv	a1,a6
20015d5a:	40f2                	lw	ra,28(sp)
20015d5c:	4462                	lw	s0,24(sp)
20015d5e:	6105                	addi	sp,sp,32
20015d60:	8082                	ret

20015d62 <metal_cpu_interrupt_controller>:
metal_cpu_interrupt_controller():
E:/8.AWS-FreeRTOS-HiFive1/Workspace/sifive-hifive1-revb-i2c/freedom-metal/metal/cpu.h:208
 *
 * @param cpu The CPU device handle
 * @return The handle for the CPU interrupt controller
 */
__inline__ struct metal_interrupt* metal_cpu_interrupt_controller(struct metal_cpu *cpu)
{ return cpu->vtable->controller_interrupt(cpu); }
20015d62:	1101                	addi	sp,sp,-32
20015d64:	ce06                	sw	ra,28(sp)
20015d66:	cc22                	sw	s0,24(sp)
20015d68:	1000                	addi	s0,sp,32
20015d6a:	fea42623          	sw	a0,-20(s0)
20015d6e:	fec42783          	lw	a5,-20(s0)
20015d72:	439c                	lw	a5,0(a5)
20015d74:	57dc                	lw	a5,44(a5)
20015d76:	fec42503          	lw	a0,-20(s0)
20015d7a:	9782                	jalr	a5
20015d7c:	87aa                	mv	a5,a0
20015d7e:	853e                	mv	a0,a5
20015d80:	40f2                	lw	ra,28(sp)
20015d82:	4462                	lw	s0,24(sp)
20015d84:	6105                	addi	sp,sp,32
20015d86:	8082                	ret

20015d88 <metal_cpu_get>:
metal_cpu_get():
E:/8.AWS-FreeRTOS-HiFive1/Workspace/sifive-hifive1-revb-i2c/freedom-metal/src/cpu.c:8

#include <metal/cpu.h>
#include <metal/machine.h>

struct metal_cpu* metal_cpu_get(unsigned int hartid)
{
20015d88:	1101                	addi	sp,sp,-32
20015d8a:	ce22                	sw	s0,28(sp)
20015d8c:	1000                	addi	s0,sp,32
20015d8e:	fea42623          	sw	a0,-20(s0)
E:/8.AWS-FreeRTOS-HiFive1/Workspace/sifive-hifive1-revb-i2c/freedom-metal/src/cpu.c:9
    if (hartid < __METAL_DT_MAX_HARTS) {
20015d92:	fec42783          	lw	a5,-20(s0)
20015d96:	eb99                	bnez	a5,20015dac <metal_cpu_get+0x24>
E:/8.AWS-FreeRTOS-HiFive1/Workspace/sifive-hifive1-revb-i2c/freedom-metal/src/cpu.c:10
        return (struct metal_cpu *)__metal_cpu_table[hartid];
20015d98:	800017b7          	lui	a5,0x80001
20015d9c:	fec42703          	lw	a4,-20(s0)
20015da0:	070a                	slli	a4,a4,0x2
20015da2:	a8878793          	addi	a5,a5,-1400 # 80000a88 <metal_segment_heap_target_end+0xfffff318>
20015da6:	97ba                	add	a5,a5,a4
20015da8:	439c                	lw	a5,0(a5)
20015daa:	a011                	j	20015dae <metal_cpu_get+0x26>
E:/8.AWS-FreeRTOS-HiFive1/Workspace/sifive-hifive1-revb-i2c/freedom-metal/src/cpu.c:12
    }   
    return NULL;
20015dac:	4781                	li	a5,0
E:/8.AWS-FreeRTOS-HiFive1/Workspace/sifive-hifive1-revb-i2c/freedom-metal/src/cpu.c:13
}
20015dae:	853e                	mv	a0,a5
20015db0:	4472                	lw	s0,28(sp)
20015db2:	6105                	addi	sp,sp,32
20015db4:	8082                	ret

20015db6 <metal_cpu_get_current_hartid>:
metal_cpu_get_current_hartid():
E:/8.AWS-FreeRTOS-HiFive1/Workspace/sifive-hifive1-revb-i2c/freedom-metal/src/cpu.c:16

int metal_cpu_get_current_hartid()
{
20015db6:	1101                	addi	sp,sp,-32
20015db8:	ce22                	sw	s0,28(sp)
20015dba:	1000                	addi	s0,sp,32
E:/8.AWS-FreeRTOS-HiFive1/Workspace/sifive-hifive1-revb-i2c/freedom-metal/src/cpu.c:19
#ifdef __riscv
    int mhartid;
    __asm__ volatile("csrr %0, mhartid" : "=r" (mhartid));
20015dbc:	f14027f3          	csrr	a5,mhartid
20015dc0:	fef42623          	sw	a5,-20(s0)
E:/8.AWS-FreeRTOS-HiFive1/Workspace/sifive-hifive1-revb-i2c/freedom-metal/src/cpu.c:20
    return mhartid;
20015dc4:	fec42783          	lw	a5,-20(s0)
E:/8.AWS-FreeRTOS-HiFive1/Workspace/sifive-hifive1-revb-i2c/freedom-metal/src/cpu.c:22
#endif
}
20015dc8:	853e                	mv	a0,a5
20015dca:	4472                	lw	s0,28(sp)
20015dcc:	6105                	addi	sp,sp,32
20015dce:	8082                	ret

20015dd0 <metal_shutdown>:
metal_shutdown():
E:/8.AWS-FreeRTOS-HiFive1/Workspace/sifive-hifive1-revb-i2c/freedom-metal/src/shutdown.c:17
    __metal_shutdown_exit(__METAL_DT_SHUTDOWN_HANDLE, code);
}
#else
#pragma message("There is no defined shutdown mechanism, metal_shutdown() will spin.")
void metal_shutdown(int code)
{
20015dd0:	1101                	addi	sp,sp,-32
20015dd2:	ce22                	sw	s0,28(sp)
20015dd4:	1000                	addi	s0,sp,32
20015dd6:	fea42623          	sw	a0,-20(s0)
E:/8.AWS-FreeRTOS-HiFive1/Workspace/sifive-hifive1-revb-i2c/freedom-metal/src/shutdown.c:19 (discriminator 1)
    while (1) {
      __asm__ volatile ("nop");
20015dda:	0001                	nop
20015ddc:	bffd                	j	20015dda <metal_shutdown+0xa>

20015dde <metal_gettimeofday>:
metal_gettimeofday():
E:/8.AWS-FreeRTOS-HiFive1/Workspace/sifive-hifive1-revb-i2c/freedom-metal/src/time.c:8

#include <metal/time.h>
#include <metal/timer.h>

int metal_gettimeofday(struct timeval *tp, void *tzp)
{
20015dde:	7139                	addi	sp,sp,-64
20015de0:	de06                	sw	ra,60(sp)
20015de2:	dc22                	sw	s0,56(sp)
20015de4:	da4a                	sw	s2,52(sp)
20015de6:	d84e                	sw	s3,48(sp)
20015de8:	0080                	addi	s0,sp,64
20015dea:	fca42623          	sw	a0,-52(s0)
20015dee:	fcb42423          	sw	a1,-56(s0)
E:/8.AWS-FreeRTOS-HiFive1/Workspace/sifive-hifive1-revb-i2c/freedom-metal/src/time.c:11
    int rv;
    unsigned long long mcc, timebase;
    if (rv = metal_timer_get_cyclecount(0, &mcc)) {
20015df2:	fe040793          	addi	a5,s0,-32
20015df6:	85be                	mv	a1,a5
20015df8:	4501                	li	a0,0
20015dfa:	2e1d                	jal	20016130 <metal_timer_get_cyclecount>
20015dfc:	fea42623          	sw	a0,-20(s0)
20015e00:	fec42783          	lw	a5,-20(s0)
20015e04:	c399                	beqz	a5,20015e0a <metal_gettimeofday+0x2c>
E:/8.AWS-FreeRTOS-HiFive1/Workspace/sifive-hifive1-revb-i2c/freedom-metal/src/time.c:12
        return -1;
20015e06:	57fd                	li	a5,-1
20015e08:	a84d                	j	20015eba <metal_gettimeofday+0xdc>
E:/8.AWS-FreeRTOS-HiFive1/Workspace/sifive-hifive1-revb-i2c/freedom-metal/src/time.c:14
    }
    if (rv = metal_timer_get_timebase_frequency(0, &timebase)) {
20015e0a:	fd840793          	addi	a5,s0,-40
20015e0e:	85be                	mv	a1,a5
20015e10:	4501                	li	a0,0
20015e12:	26a5                	jal	2001617a <metal_timer_get_timebase_frequency>
20015e14:	fea42623          	sw	a0,-20(s0)
20015e18:	fec42783          	lw	a5,-20(s0)
20015e1c:	c399                	beqz	a5,20015e22 <metal_gettimeofday+0x44>
E:/8.AWS-FreeRTOS-HiFive1/Workspace/sifive-hifive1-revb-i2c/freedom-metal/src/time.c:15
        return -1;
20015e1e:	57fd                	li	a5,-1
20015e20:	a869                	j	20015eba <metal_gettimeofday+0xdc>
E:/8.AWS-FreeRTOS-HiFive1/Workspace/sifive-hifive1-revb-i2c/freedom-metal/src/time.c:17
    }
    tp->tv_sec = mcc / timebase;
20015e22:	fe042783          	lw	a5,-32(s0)
20015e26:	fe442803          	lw	a6,-28(s0)
20015e2a:	fd842683          	lw	a3,-40(s0)
20015e2e:	fdc42703          	lw	a4,-36(s0)
20015e32:	8636                	mv	a2,a3
20015e34:	86ba                	mv	a3,a4
20015e36:	853e                	mv	a0,a5
20015e38:	85c2                	mv	a1,a6
20015e3a:	02b000ef          	jal	ra,20016664 <__udivdi3>
20015e3e:	87aa                	mv	a5,a0
20015e40:	882e                	mv	a6,a1
20015e42:	fcc42703          	lw	a4,-52(s0)
20015e46:	c31c                	sw	a5,0(a4)
20015e48:	01072223          	sw	a6,4(a4)
E:/8.AWS-FreeRTOS-HiFive1/Workspace/sifive-hifive1-revb-i2c/freedom-metal/src/time.c:18
    tp->tv_usec = mcc % timebase * 1000000 / timebase;
20015e4c:	fe042783          	lw	a5,-32(s0)
20015e50:	fe442803          	lw	a6,-28(s0)
20015e54:	fd842683          	lw	a3,-40(s0)
20015e58:	fdc42703          	lw	a4,-36(s0)
20015e5c:	8636                	mv	a2,a3
20015e5e:	86ba                	mv	a3,a4
20015e60:	853e                	mv	a0,a5
20015e62:	85c2                	mv	a1,a6
20015e64:	35f000ef          	jal	ra,200169c2 <__umoddi3>
20015e68:	87aa                	mv	a5,a0
20015e6a:	882e                	mv	a6,a1
20015e6c:	000f4737          	lui	a4,0xf4
20015e70:	24070713          	addi	a4,a4,576 # f4240 <__heap_size+0xf3a40>
20015e74:	02e806b3          	mul	a3,a6,a4
20015e78:	4701                	li	a4,0
20015e7a:	02e78733          	mul	a4,a5,a4
20015e7e:	96ba                	add	a3,a3,a4
20015e80:	000f4737          	lui	a4,0xf4
20015e84:	24070713          	addi	a4,a4,576 # f4240 <__heap_size+0xf3a40>
20015e88:	02e78633          	mul	a2,a5,a4
20015e8c:	02e7b9b3          	mulhu	s3,a5,a4
20015e90:	8932                	mv	s2,a2
20015e92:	013687b3          	add	a5,a3,s3
20015e96:	89be                	mv	s3,a5
20015e98:	fd842783          	lw	a5,-40(s0)
20015e9c:	fdc42803          	lw	a6,-36(s0)
20015ea0:	863e                	mv	a2,a5
20015ea2:	86c2                	mv	a3,a6
20015ea4:	854a                	mv	a0,s2
20015ea6:	85ce                	mv	a1,s3
20015ea8:	7bc000ef          	jal	ra,20016664 <__udivdi3>
20015eac:	87aa                	mv	a5,a0
20015eae:	882e                	mv	a6,a1
20015eb0:	873e                	mv	a4,a5
20015eb2:	fcc42783          	lw	a5,-52(s0)
20015eb6:	c798                	sw	a4,8(a5)
E:/8.AWS-FreeRTOS-HiFive1/Workspace/sifive-hifive1-revb-i2c/freedom-metal/src/time.c:19
    return 0;
20015eb8:	4781                	li	a5,0
E:/8.AWS-FreeRTOS-HiFive1/Workspace/sifive-hifive1-revb-i2c/freedom-metal/src/time.c:20 (discriminator 1)
}
20015eba:	853e                	mv	a0,a5
20015ebc:	50f2                	lw	ra,60(sp)
20015ebe:	5462                	lw	s0,56(sp)
20015ec0:	5952                	lw	s2,52(sp)
20015ec2:	59c2                	lw	s3,48(sp)
20015ec4:	6121                	addi	sp,sp,64
20015ec6:	8082                	ret

20015ec8 <metal_time>:
metal_time():
E:/8.AWS-FreeRTOS-HiFive1/Workspace/sifive-hifive1-revb-i2c/freedom-metal/src/time.c:23

time_t metal_time (void)
{
20015ec8:	1101                	addi	sp,sp,-32
20015eca:	ce06                	sw	ra,28(sp)
20015ecc:	cc22                	sw	s0,24(sp)
20015ece:	1000                	addi	s0,sp,32
E:/8.AWS-FreeRTOS-HiFive1/Workspace/sifive-hifive1-revb-i2c/freedom-metal/src/time.c:26
    struct timeval now;

    if (metal_gettimeofday(&now, NULL) < 0)
20015ed0:	fe040793          	addi	a5,s0,-32
20015ed4:	4581                	li	a1,0
20015ed6:	853e                	mv	a0,a5
20015ed8:	f07ff0ef          	jal	ra,20015dde <metal_gettimeofday>
20015edc:	87aa                	mv	a5,a0
20015ede:	0007d863          	bgez	a5,20015eee <metal_time+0x26>
E:/8.AWS-FreeRTOS-HiFive1/Workspace/sifive-hifive1-revb-i2c/freedom-metal/src/time.c:27
      now.tv_sec = (time_t) -1;
20015ee2:	57fd                	li	a5,-1
20015ee4:	587d                	li	a6,-1
20015ee6:	fef42023          	sw	a5,-32(s0)
20015eea:	ff042223          	sw	a6,-28(s0)
E:/8.AWS-FreeRTOS-HiFive1/Workspace/sifive-hifive1-revb-i2c/freedom-metal/src/time.c:29

  return now.tv_sec;
20015eee:	fe042783          	lw	a5,-32(s0)
20015ef2:	fe442803          	lw	a6,-28(s0)
E:/8.AWS-FreeRTOS-HiFive1/Workspace/sifive-hifive1-revb-i2c/freedom-metal/src/time.c:30
}
20015ef6:	853e                	mv	a0,a5
20015ef8:	85c2                	mv	a1,a6
20015efa:	40f2                	lw	ra,28(sp)
20015efc:	4462                	lw	s0,24(sp)
20015efe:	6105                	addi	sp,sp,32
20015f00:	8082                	ret

20015f02 <metal_uart_init>:
metal_uart_init():
E:/8.AWS-FreeRTOS-HiFive1/Workspace/sifive-hifive1-revb-i2c/freedom-metal/metal/uart.h:44
 * other method on the UART can be invoked. It is invalid to initialize a UART more than once.
 *
 * @param uart The UART device handle
 * @param baud_rate the baud rate to set the UART to
 */
__inline__ void metal_uart_init(struct metal_uart *uart, int baud_rate) { uart->vtable->init(uart, baud_rate); }
20015f02:	1101                	addi	sp,sp,-32
20015f04:	ce06                	sw	ra,28(sp)
20015f06:	cc22                	sw	s0,24(sp)
20015f08:	1000                	addi	s0,sp,32
20015f0a:	fea42623          	sw	a0,-20(s0)
20015f0e:	feb42423          	sw	a1,-24(s0)
20015f12:	fec42783          	lw	a5,-20(s0)
20015f16:	439c                	lw	a5,0(a5)
20015f18:	439c                	lw	a5,0(a5)
20015f1a:	fe842583          	lw	a1,-24(s0)
20015f1e:	fec42503          	lw	a0,-20(s0)
20015f22:	9782                	jalr	a5
20015f24:	0001                	nop
20015f26:	40f2                	lw	ra,28(sp)
20015f28:	4462                	lw	s0,24(sp)
20015f2a:	6105                	addi	sp,sp,32
20015f2c:	8082                	ret

20015f2e <metal_uart_putc>:
metal_uart_putc():
E:/8.AWS-FreeRTOS-HiFive1/Workspace/sifive-hifive1-revb-i2c/freedom-metal/metal/uart.h:52
 * @brief Output a character over the UART
 * @param uart The UART device handle
 * @param c The character to send over the UART
 * @return 0 upon success
 */
__inline__ int metal_uart_putc(struct metal_uart *uart, int c) { return uart->vtable->putc(uart, c); }
20015f2e:	1101                	addi	sp,sp,-32
20015f30:	ce06                	sw	ra,28(sp)
20015f32:	cc22                	sw	s0,24(sp)
20015f34:	1000                	addi	s0,sp,32
20015f36:	fea42623          	sw	a0,-20(s0)
20015f3a:	feb42423          	sw	a1,-24(s0)
20015f3e:	fec42783          	lw	a5,-20(s0)
20015f42:	439c                	lw	a5,0(a5)
20015f44:	43dc                	lw	a5,4(a5)
20015f46:	fe842583          	lw	a1,-24(s0)
20015f4a:	fec42503          	lw	a0,-20(s0)
20015f4e:	9782                	jalr	a5
20015f50:	87aa                	mv	a5,a0
20015f52:	853e                	mv	a0,a5
20015f54:	40f2                	lw	ra,28(sp)
20015f56:	4462                	lw	s0,24(sp)
20015f58:	6105                	addi	sp,sp,32
20015f5a:	8082                	ret

20015f5c <metal_uart_set_baud_rate>:
metal_uart_set_baud_rate():
E:/8.AWS-FreeRTOS-HiFive1/Workspace/sifive-hifive1-revb-i2c/freedom-metal/metal/uart.h:85
 * @brief Set the baud rate of the UART peripheral
 * @param uart The UART device handle
 * @param baud_rate The baud rate to configure
 * @return the new baud rate of the UART
 */
__inline__ int metal_uart_set_baud_rate(struct metal_uart *uart, int baud_rate) { return uart->vtable->set_baud_rate(uart, baud_rate); }
20015f5c:	1101                	addi	sp,sp,-32
20015f5e:	ce06                	sw	ra,28(sp)
20015f60:	cc22                	sw	s0,24(sp)
20015f62:	1000                	addi	s0,sp,32
20015f64:	fea42623          	sw	a0,-20(s0)
20015f68:	feb42423          	sw	a1,-24(s0)
20015f6c:	fec42783          	lw	a5,-20(s0)
20015f70:	439c                	lw	a5,0(a5)
20015f72:	4bdc                	lw	a5,20(a5)
20015f74:	fe842583          	lw	a1,-24(s0)
20015f78:	fec42503          	lw	a0,-20(s0)
20015f7c:	9782                	jalr	a5
20015f7e:	87aa                	mv	a5,a0
20015f80:	853e                	mv	a0,a5
20015f82:	40f2                	lw	ra,28(sp)
20015f84:	4462                	lw	s0,24(sp)
20015f86:	6105                	addi	sp,sp,32
20015f88:	8082                	ret
	...

20016000 <__metal_vector_table>:
IRQ_0():
E:/8.AWS-FreeRTOS-HiFive1/Workspace/sifive-hifive1-revb-i2c/freedom-metal/src/vector.S:96
#endif
.option norvc
.global __metal_vector_table
__metal_vector_table:
IRQ_0:
        j metal_interrupt_vector_handler
20016000:	e06fc06f          	j	20012606 <metal_interrupt_vector_handler>

20016004 <IRQ_1>:
IRQ_1():
E:/8.AWS-FreeRTOS-HiFive1/Workspace/sifive-hifive1-revb-i2c/freedom-metal/src/vector.S:98
IRQ_1:
        j metal_interrupt_vector_handler
20016004:	e02fc06f          	j	20012606 <metal_interrupt_vector_handler>

20016008 <IRQ_2>:
IRQ_2():
E:/8.AWS-FreeRTOS-HiFive1/Workspace/sifive-hifive1-revb-i2c/freedom-metal/src/vector.S:100
IRQ_2:
        j metal_interrupt_vector_handler
20016008:	dfefc06f          	j	20012606 <metal_interrupt_vector_handler>

2001600c <IRQ_3>:
IRQ_3():
E:/8.AWS-FreeRTOS-HiFive1/Workspace/sifive-hifive1-revb-i2c/freedom-metal/src/vector.S:102
IRQ_3:
        j metal_software_interrupt_vector_handler
2001600c:	e28fc06f          	j	20012634 <metal_software_interrupt_vector_handler>

20016010 <IRQ_4>:
IRQ_4():
E:/8.AWS-FreeRTOS-HiFive1/Workspace/sifive-hifive1-revb-i2c/freedom-metal/src/vector.S:104
IRQ_4:
        j metal_interrupt_vector_handler
20016010:	df6fc06f          	j	20012606 <metal_interrupt_vector_handler>

20016014 <IRQ_5>:
IRQ_5():
E:/8.AWS-FreeRTOS-HiFive1/Workspace/sifive-hifive1-revb-i2c/freedom-metal/src/vector.S:106
IRQ_5:
        j metal_interrupt_vector_handler
20016014:	df2fc06f          	j	20012606 <metal_interrupt_vector_handler>

20016018 <IRQ_6>:
IRQ_6():
E:/8.AWS-FreeRTOS-HiFive1/Workspace/sifive-hifive1-revb-i2c/freedom-metal/src/vector.S:108
IRQ_6:
        j metal_interrupt_vector_handler
20016018:	deefc06f          	j	20012606 <metal_interrupt_vector_handler>

2001601c <IRQ_7>:
IRQ_7():
E:/8.AWS-FreeRTOS-HiFive1/Workspace/sifive-hifive1-revb-i2c/freedom-metal/src/vector.S:110
IRQ_7:
        j metal_timer_interrupt_vector_handler
2001601c:	f12fc06f          	j	2001272e <metal_timer_interrupt_vector_handler>

20016020 <IRQ_8>:
IRQ_8():
E:/8.AWS-FreeRTOS-HiFive1/Workspace/sifive-hifive1-revb-i2c/freedom-metal/src/vector.S:112
IRQ_8:
        j metal_interrupt_vector_handler
20016020:	de6fc06f          	j	20012606 <metal_interrupt_vector_handler>

20016024 <IRQ_9>:
IRQ_9():
E:/8.AWS-FreeRTOS-HiFive1/Workspace/sifive-hifive1-revb-i2c/freedom-metal/src/vector.S:114
IRQ_9:
        j metal_interrupt_vector_handler
20016024:	de2fc06f          	j	20012606 <metal_interrupt_vector_handler>

20016028 <IRQ_10>:
IRQ_10():
E:/8.AWS-FreeRTOS-HiFive1/Workspace/sifive-hifive1-revb-i2c/freedom-metal/src/vector.S:116
IRQ_10:
        j metal_interrupt_vector_handler
20016028:	ddefc06f          	j	20012606 <metal_interrupt_vector_handler>

2001602c <IRQ_11>:
IRQ_11():
E:/8.AWS-FreeRTOS-HiFive1/Workspace/sifive-hifive1-revb-i2c/freedom-metal/src/vector.S:118
IRQ_11:
        j metal_interrupt_vector_handler
2001602c:	ddafc06f          	j	20012606 <metal_interrupt_vector_handler>

20016030 <IRQ_12>:
IRQ_12():
E:/8.AWS-FreeRTOS-HiFive1/Workspace/sifive-hifive1-revb-i2c/freedom-metal/src/vector.S:120
IRQ_12:
        j metal_interrupt_vector_handler
20016030:	dd6fc06f          	j	20012606 <metal_interrupt_vector_handler>

20016034 <IRQ_13>:
IRQ_13():
E:/8.AWS-FreeRTOS-HiFive1/Workspace/sifive-hifive1-revb-i2c/freedom-metal/src/vector.S:122
IRQ_13:
        j metal_interrupt_vector_handler
20016034:	dd2fc06f          	j	20012606 <metal_interrupt_vector_handler>

20016038 <IRQ_14>:
IRQ_14():
E:/8.AWS-FreeRTOS-HiFive1/Workspace/sifive-hifive1-revb-i2c/freedom-metal/src/vector.S:124
IRQ_14:
        j metal_interrupt_vector_handler
20016038:	dcefc06f          	j	20012606 <metal_interrupt_vector_handler>

2001603c <IRQ_15>:
IRQ_15():
E:/8.AWS-FreeRTOS-HiFive1/Workspace/sifive-hifive1-revb-i2c/freedom-metal/src/vector.S:126
IRQ_15:
        j metal_interrupt_vector_handler
2001603c:	dcafc06f          	j	20012606 <metal_interrupt_vector_handler>

20016040 <IRQ_LC0>:
IRQ_LC0():
E:/8.AWS-FreeRTOS-HiFive1/Workspace/sifive-hifive1-revb-i2c/freedom-metal/src/vector.S:128
IRQ_LC0:
        j metal_lc0_interrupt_vector_handler
20016040:	9b9fc06f          	j	200129f8 <metal_lc0_interrupt_vector_handler>

20016044 <IRQ_LC1>:
IRQ_LC1():
E:/8.AWS-FreeRTOS-HiFive1/Workspace/sifive-hifive1-revb-i2c/freedom-metal/src/vector.S:130
IRQ_LC1:
        j metal_lc1_interrupt_vector_handler
20016044:	a4bfc06f          	j	20012a8e <metal_lc1_interrupt_vector_handler>

20016048 <IRQ_LC2>:
IRQ_LC2():
E:/8.AWS-FreeRTOS-HiFive1/Workspace/sifive-hifive1-revb-i2c/freedom-metal/src/vector.S:132
IRQ_LC2:
        j metal_lc2_interrupt_vector_handler
20016048:	addfc06f          	j	20012b24 <metal_lc2_interrupt_vector_handler>

2001604c <IRQ_LC3>:
IRQ_LC3():
E:/8.AWS-FreeRTOS-HiFive1/Workspace/sifive-hifive1-revb-i2c/freedom-metal/src/vector.S:134
IRQ_LC3:
        j metal_lc3_interrupt_vector_handler
2001604c:	b6ffc06f          	j	20012bba <metal_lc3_interrupt_vector_handler>

20016050 <IRQ_LC4>:
IRQ_LC4():
E:/8.AWS-FreeRTOS-HiFive1/Workspace/sifive-hifive1-revb-i2c/freedom-metal/src/vector.S:136
IRQ_LC4:
        j metal_lc4_interrupt_vector_handler
20016050:	c01fc06f          	j	20012c50 <metal_lc4_interrupt_vector_handler>

20016054 <IRQ_LC5>:
IRQ_LC5():
E:/8.AWS-FreeRTOS-HiFive1/Workspace/sifive-hifive1-revb-i2c/freedom-metal/src/vector.S:138
IRQ_LC5:
        j metal_lc5_interrupt_vector_handler
20016054:	c93fc06f          	j	20012ce6 <metal_lc5_interrupt_vector_handler>

20016058 <IRQ_LC6>:
IRQ_LC6():
E:/8.AWS-FreeRTOS-HiFive1/Workspace/sifive-hifive1-revb-i2c/freedom-metal/src/vector.S:140
IRQ_LC6:
        j metal_lc6_interrupt_vector_handler
20016058:	d25fc06f          	j	20012d7c <metal_lc6_interrupt_vector_handler>

2001605c <IRQ_LC7>:
IRQ_LC7():
E:/8.AWS-FreeRTOS-HiFive1/Workspace/sifive-hifive1-revb-i2c/freedom-metal/src/vector.S:142
IRQ_LC7:
        j metal_lc7_interrupt_vector_handler
2001605c:	db7fc06f          	j	20012e12 <metal_lc7_interrupt_vector_handler>

20016060 <IRQ_LC8>:
IRQ_LC8():
E:/8.AWS-FreeRTOS-HiFive1/Workspace/sifive-hifive1-revb-i2c/freedom-metal/src/vector.S:144
IRQ_LC8:
        j metal_lc8_interrupt_vector_handler
20016060:	e49fc06f          	j	20012ea8 <metal_lc8_interrupt_vector_handler>

20016064 <IRQ_LC9>:
IRQ_LC9():
E:/8.AWS-FreeRTOS-HiFive1/Workspace/sifive-hifive1-revb-i2c/freedom-metal/src/vector.S:146
IRQ_LC9:
        j metal_lc9_interrupt_vector_handler
20016064:	edbfc06f          	j	20012f3e <metal_lc9_interrupt_vector_handler>

20016068 <IRQ_LC10>:
IRQ_LC10():
E:/8.AWS-FreeRTOS-HiFive1/Workspace/sifive-hifive1-revb-i2c/freedom-metal/src/vector.S:148
IRQ_LC10:
        j metal_lc10_interrupt_vector_handler
20016068:	f6dfc06f          	j	20012fd4 <metal_lc10_interrupt_vector_handler>

2001606c <IRQ_LC11>:
IRQ_LC11():
E:/8.AWS-FreeRTOS-HiFive1/Workspace/sifive-hifive1-revb-i2c/freedom-metal/src/vector.S:150
IRQ_LC11:
        j metal_lc11_interrupt_vector_handler
2001606c:	ffffc06f          	j	2001306a <metal_lc11_interrupt_vector_handler>

20016070 <IRQ_LC12>:
IRQ_LC12():
E:/8.AWS-FreeRTOS-HiFive1/Workspace/sifive-hifive1-revb-i2c/freedom-metal/src/vector.S:152
IRQ_LC12:
        j metal_lc12_interrupt_vector_handler
20016070:	890fd06f          	j	20013100 <metal_lc12_interrupt_vector_handler>

20016074 <IRQ_LC13>:
IRQ_LC13():
E:/8.AWS-FreeRTOS-HiFive1/Workspace/sifive-hifive1-revb-i2c/freedom-metal/src/vector.S:154
IRQ_LC13:
        j metal_lc13_interrupt_vector_handler
20016074:	922fd06f          	j	20013196 <metal_lc13_interrupt_vector_handler>

20016078 <IRQ_LC14>:
IRQ_LC14():
E:/8.AWS-FreeRTOS-HiFive1/Workspace/sifive-hifive1-revb-i2c/freedom-metal/src/vector.S:156
IRQ_LC14:
        j metal_lc14_interrupt_vector_handler
20016078:	9b4fd06f          	j	2001322c <metal_lc14_interrupt_vector_handler>

2001607c <IRQ_LC15>:
IRQ_LC15():
E:/8.AWS-FreeRTOS-HiFive1/Workspace/sifive-hifive1-revb-i2c/freedom-metal/src/vector.S:158
IRQ_LC15:
        j metal_lc15_interrupt_vector_handler
2001607c:	a46fd06f          	j	200132c2 <metal_lc15_interrupt_vector_handler>

20016080 <__metal_driver_fixed_clock_rate>:
__metal_driver_fixed_clock_rate():
E:\8.AWS-FreeRTOS-HiFive1\Workspace\sifive-hifive1-revb-i2c\bsp\build\debug/./metal/machine.h:178
{
20016080:	1101                	addi	sp,sp,-32
20016082:	ce22                	sw	s0,28(sp)
20016084:	1000                	addi	s0,sp,32
20016086:	fea42623          	sw	a0,-20(s0)
E:\8.AWS-FreeRTOS-HiFive1\Workspace\sifive-hifive1-revb-i2c\bsp\build\debug/./metal/machine.h:179
	if ((uintptr_t)clock == (uintptr_t)&__metal_dt_clock_0) {
2001608a:	fec42703          	lw	a4,-20(s0)
2001608e:	800007b7          	lui	a5,0x80000
20016092:	06078793          	addi	a5,a5,96 # 80000060 <metal_segment_heap_target_end+0xffffe8f0>
20016096:	00f71763          	bne	a4,a5,200160a4 <__metal_driver_fixed_clock_rate+0x24>
E:\8.AWS-FreeRTOS-HiFive1\Workspace\sifive-hifive1-revb-i2c\bsp\build\debug/./metal/machine.h:180
		return METAL_FIXED_CLOCK_0_CLOCK_FREQUENCY;
2001609a:	00f427b7          	lui	a5,0xf42
2001609e:	40078793          	addi	a5,a5,1024 # f42400 <__heap_size+0xf41c00>
200160a2:	a099                	j	200160e8 <__metal_driver_fixed_clock_rate+0x68>
E:\8.AWS-FreeRTOS-HiFive1\Workspace\sifive-hifive1-revb-i2c\bsp\build\debug/./metal/machine.h:182
	else if ((uintptr_t)clock == (uintptr_t)&__metal_dt_clock_2) {
200160a4:	fec42703          	lw	a4,-20(s0)
200160a8:	800007b7          	lui	a5,0x80000
200160ac:	06c78793          	addi	a5,a5,108 # 8000006c <metal_segment_heap_target_end+0xffffe8fc>
200160b0:	00f71763          	bne	a4,a5,200160be <__metal_driver_fixed_clock_rate+0x3e>
E:\8.AWS-FreeRTOS-HiFive1\Workspace\sifive-hifive1-revb-i2c\bsp\build\debug/./metal/machine.h:183
		return METAL_FIXED_CLOCK_2_CLOCK_FREQUENCY;
200160b4:	044aa7b7          	lui	a5,0x44aa
200160b8:	20078793          	addi	a5,a5,512 # 44aa200 <__heap_size+0x44a9a00>
200160bc:	a035                	j	200160e8 <__metal_driver_fixed_clock_rate+0x68>
E:\8.AWS-FreeRTOS-HiFive1\Workspace\sifive-hifive1-revb-i2c\bsp\build\debug/./metal/machine.h:185
	else if ((uintptr_t)clock == (uintptr_t)&__metal_dt_clock_5) {
200160be:	fec42703          	lw	a4,-20(s0)
200160c2:	800007b7          	lui	a5,0x80000
200160c6:	07878793          	addi	a5,a5,120 # 80000078 <metal_segment_heap_target_end+0xffffe908>
200160ca:	00f71463          	bne	a4,a5,200160d2 <__metal_driver_fixed_clock_rate+0x52>
E:\8.AWS-FreeRTOS-HiFive1\Workspace\sifive-hifive1-revb-i2c\bsp\build\debug/./metal/machine.h:186
		return METAL_FIXED_CLOCK_5_CLOCK_FREQUENCY;
200160ce:	67a1                	lui	a5,0x8
200160d0:	a821                	j	200160e8 <__metal_driver_fixed_clock_rate+0x68>
E:\8.AWS-FreeRTOS-HiFive1\Workspace\sifive-hifive1-revb-i2c\bsp\build\debug/./metal/machine.h:188
	else if ((uintptr_t)clock == (uintptr_t)&__metal_dt_clock_6) {
200160d2:	fec42703          	lw	a4,-20(s0)
200160d6:	800007b7          	lui	a5,0x80000
200160da:	08478793          	addi	a5,a5,132 # 80000084 <metal_segment_heap_target_end+0xffffe914>
200160de:	00f71463          	bne	a4,a5,200160e6 <__metal_driver_fixed_clock_rate+0x66>
E:\8.AWS-FreeRTOS-HiFive1\Workspace\sifive-hifive1-revb-i2c\bsp\build\debug/./metal/machine.h:189
		return METAL_FIXED_CLOCK_6_CLOCK_FREQUENCY;
200160e2:	67a1                	lui	a5,0x8
200160e4:	a011                	j	200160e8 <__metal_driver_fixed_clock_rate+0x68>
E:\8.AWS-FreeRTOS-HiFive1\Workspace\sifive-hifive1-revb-i2c\bsp\build\debug/./metal/machine.h:192
		return 0;
200160e6:	4781                	li	a5,0
E:\8.AWS-FreeRTOS-HiFive1\Workspace\sifive-hifive1-revb-i2c\bsp\build\debug/./metal/machine.h:194
}
200160e8:	853e                	mv	a0,a5
200160ea:	4472                	lw	s0,28(sp)
200160ec:	6105                	addi	sp,sp,32
200160ee:	8082                	ret

200160f0 <__metal_driver_fixed_clock_get_rate_hz>:
__metal_driver_fixed_clock_get_rate_hz():
E:/8.AWS-FreeRTOS-HiFive1/Workspace/sifive-hifive1-revb-i2c/freedom-metal/src/drivers/fixed-clock.c:13
#include <metal/drivers/fixed-clock.h>
#include <stddef.h>
#include <metal/machine.h>

long __metal_driver_fixed_clock_get_rate_hz(const struct metal_clock *gclk)
{
200160f0:	1101                	addi	sp,sp,-32
200160f2:	ce06                	sw	ra,28(sp)
200160f4:	cc22                	sw	s0,24(sp)
200160f6:	1000                	addi	s0,sp,32
200160f8:	fea42623          	sw	a0,-20(s0)
E:/8.AWS-FreeRTOS-HiFive1/Workspace/sifive-hifive1-revb-i2c/freedom-metal/src/drivers/fixed-clock.c:14
    return __metal_driver_fixed_clock_rate(gclk);
200160fc:	fec42503          	lw	a0,-20(s0)
20016100:	3741                	jal	20016080 <__metal_driver_fixed_clock_rate>
20016102:	87aa                	mv	a5,a0
E:/8.AWS-FreeRTOS-HiFive1/Workspace/sifive-hifive1-revb-i2c/freedom-metal/src/drivers/fixed-clock.c:15
}
20016104:	853e                	mv	a0,a5
20016106:	40f2                	lw	ra,28(sp)
20016108:	4462                	lw	s0,24(sp)
2001610a:	6105                	addi	sp,sp,32
2001610c:	8082                	ret

2001610e <__metal_driver_fixed_clock_set_rate_hz>:
__metal_driver_fixed_clock_set_rate_hz():
E:/8.AWS-FreeRTOS-HiFive1/Workspace/sifive-hifive1-revb-i2c/freedom-metal/src/drivers/fixed-clock.c:18

long __metal_driver_fixed_clock_set_rate_hz(struct metal_clock *gclk, long target_hz)
{
2001610e:	1101                	addi	sp,sp,-32
20016110:	ce06                	sw	ra,28(sp)
20016112:	cc22                	sw	s0,24(sp)
20016114:	1000                	addi	s0,sp,32
20016116:	fea42623          	sw	a0,-20(s0)
2001611a:	feb42423          	sw	a1,-24(s0)
E:/8.AWS-FreeRTOS-HiFive1/Workspace/sifive-hifive1-revb-i2c/freedom-metal/src/drivers/fixed-clock.c:19
    return __metal_driver_fixed_clock_get_rate_hz(gclk);
2001611e:	fec42503          	lw	a0,-20(s0)
20016122:	37f9                	jal	200160f0 <__metal_driver_fixed_clock_get_rate_hz>
20016124:	87aa                	mv	a5,a0
E:/8.AWS-FreeRTOS-HiFive1/Workspace/sifive-hifive1-revb-i2c/freedom-metal/src/drivers/fixed-clock.c:20
}
20016126:	853e                	mv	a0,a5
20016128:	40f2                	lw	ra,28(sp)
2001612a:	4462                	lw	s0,24(sp)
2001612c:	6105                	addi	sp,sp,32
2001612e:	8082                	ret

20016130 <metal_timer_get_cyclecount>:
metal_timer_get_cyclecount():
E:/8.AWS-FreeRTOS-HiFive1/Workspace/sifive-hifive1-revb-i2c/freedom-metal/src/timer.c:14

#if defined(__METAL_DT_MAX_HARTS)
/* This implementation serves as a small shim that interfaces with the first
 * timer on a system. */
int metal_timer_get_cyclecount(int hartid, unsigned long long *mcc)
{
20016130:	7179                	addi	sp,sp,-48
20016132:	d606                	sw	ra,44(sp)
20016134:	d422                	sw	s0,40(sp)
20016136:	1800                	addi	s0,sp,48
20016138:	fca42e23          	sw	a0,-36(s0)
2001613c:	fcb42c23          	sw	a1,-40(s0)
E:/8.AWS-FreeRTOS-HiFive1/Workspace/sifive-hifive1-revb-i2c/freedom-metal/src/timer.c:15
    struct metal_cpu *cpu = metal_cpu_get(hartid);
20016140:	fdc42783          	lw	a5,-36(s0)
20016144:	853e                	mv	a0,a5
20016146:	c43ff0ef          	jal	ra,20015d88 <metal_cpu_get>
2001614a:	fea42623          	sw	a0,-20(s0)
E:/8.AWS-FreeRTOS-HiFive1/Workspace/sifive-hifive1-revb-i2c/freedom-metal/src/timer.c:17

    if ( cpu ) {
2001614e:	fec42783          	lw	a5,-20(s0)
20016152:	cf91                	beqz	a5,2001616e <metal_timer_get_cyclecount+0x3e>
E:/8.AWS-FreeRTOS-HiFive1/Workspace/sifive-hifive1-revb-i2c/freedom-metal/src/timer.c:18
        *mcc = metal_cpu_get_timer(cpu);
20016154:	fec42503          	lw	a0,-20(s0)
20016158:	bb7ff0ef          	jal	ra,20015d0e <metal_cpu_get_timer>
2001615c:	87aa                	mv	a5,a0
2001615e:	882e                	mv	a6,a1
20016160:	fd842703          	lw	a4,-40(s0)
20016164:	c31c                	sw	a5,0(a4)
20016166:	01072223          	sw	a6,4(a4)
E:/8.AWS-FreeRTOS-HiFive1/Workspace/sifive-hifive1-revb-i2c/freedom-metal/src/timer.c:19
        return 0;
2001616a:	4781                	li	a5,0
2001616c:	a011                	j	20016170 <metal_timer_get_cyclecount+0x40>
E:/8.AWS-FreeRTOS-HiFive1/Workspace/sifive-hifive1-revb-i2c/freedom-metal/src/timer.c:21
    }	
    return -1;
2001616e:	57fd                	li	a5,-1
E:/8.AWS-FreeRTOS-HiFive1/Workspace/sifive-hifive1-revb-i2c/freedom-metal/src/timer.c:22
}
20016170:	853e                	mv	a0,a5
20016172:	50b2                	lw	ra,44(sp)
20016174:	5422                	lw	s0,40(sp)
20016176:	6145                	addi	sp,sp,48
20016178:	8082                	ret

2001617a <metal_timer_get_timebase_frequency>:
metal_timer_get_timebase_frequency():
E:/8.AWS-FreeRTOS-HiFive1/Workspace/sifive-hifive1-revb-i2c/freedom-metal/src/timer.c:25

int metal_timer_get_timebase_frequency(int hartid, unsigned long long *timebase)
{
2001617a:	7179                	addi	sp,sp,-48
2001617c:	d606                	sw	ra,44(sp)
2001617e:	d422                	sw	s0,40(sp)
20016180:	1800                	addi	s0,sp,48
20016182:	fca42e23          	sw	a0,-36(s0)
20016186:	fcb42c23          	sw	a1,-40(s0)
E:/8.AWS-FreeRTOS-HiFive1/Workspace/sifive-hifive1-revb-i2c/freedom-metal/src/timer.c:26
    struct metal_cpu *cpu = metal_cpu_get(hartid);
2001618a:	fdc42783          	lw	a5,-36(s0)
2001618e:	853e                	mv	a0,a5
20016190:	bf9ff0ef          	jal	ra,20015d88 <metal_cpu_get>
20016194:	fea42623          	sw	a0,-20(s0)
E:/8.AWS-FreeRTOS-HiFive1/Workspace/sifive-hifive1-revb-i2c/freedom-metal/src/timer.c:28

    if ( cpu ) {
20016198:	fec42783          	lw	a5,-20(s0)
2001619c:	cf91                	beqz	a5,200161b8 <metal_timer_get_timebase_frequency+0x3e>
E:/8.AWS-FreeRTOS-HiFive1/Workspace/sifive-hifive1-revb-i2c/freedom-metal/src/timer.c:29
        *timebase = metal_cpu_get_timebase(cpu);
2001619e:	fec42503          	lw	a0,-20(s0)
200161a2:	b97ff0ef          	jal	ra,20015d38 <metal_cpu_get_timebase>
200161a6:	87aa                	mv	a5,a0
200161a8:	882e                	mv	a6,a1
200161aa:	fd842703          	lw	a4,-40(s0)
200161ae:	c31c                	sw	a5,0(a4)
200161b0:	01072223          	sw	a6,4(a4)
E:/8.AWS-FreeRTOS-HiFive1/Workspace/sifive-hifive1-revb-i2c/freedom-metal/src/timer.c:30
        return 0;
200161b4:	4781                	li	a5,0
200161b6:	a011                	j	200161ba <metal_timer_get_timebase_frequency+0x40>
E:/8.AWS-FreeRTOS-HiFive1/Workspace/sifive-hifive1-revb-i2c/freedom-metal/src/timer.c:32
    } 
    return -1;
200161b8:	57fd                	li	a5,-1
E:/8.AWS-FreeRTOS-HiFive1/Workspace/sifive-hifive1-revb-i2c/freedom-metal/src/timer.c:33
}
200161ba:	853e                	mv	a0,a5
200161bc:	50b2                	lw	ra,44(sp)
200161be:	5422                	lw	s0,40(sp)
200161c0:	6145                	addi	sp,sp,48
200161c2:	8082                	ret

200161c4 <_close>:
_close():
E:/8.AWS-FreeRTOS-HiFive1/Workspace/sifive-hifive1-revb-i2c/freedom-metal/gloss/sys_close.c:5
#include <errno.h>

int
_close(int file)
{
200161c4:	1101                	addi	sp,sp,-32
200161c6:	ce06                	sw	ra,28(sp)
200161c8:	cc22                	sw	s0,24(sp)
200161ca:	1000                	addi	s0,sp,32
200161cc:	fea42623          	sw	a0,-20(s0)
E:/8.AWS-FreeRTOS-HiFive1/Workspace/sifive-hifive1-revb-i2c/freedom-metal/gloss/sys_close.c:6
  errno = ENOSYS;
200161d0:	24ad                	jal	2001643a <__errno>
200161d2:	872a                	mv	a4,a0
200161d4:	05800793          	li	a5,88
200161d8:	c31c                	sw	a5,0(a4)
E:/8.AWS-FreeRTOS-HiFive1/Workspace/sifive-hifive1-revb-i2c/freedom-metal/gloss/sys_close.c:7
  return -1;
200161da:	57fd                	li	a5,-1
E:/8.AWS-FreeRTOS-HiFive1/Workspace/sifive-hifive1-revb-i2c/freedom-metal/gloss/sys_close.c:8
}
200161dc:	853e                	mv	a0,a5
200161de:	40f2                	lw	ra,28(sp)
200161e0:	4462                	lw	s0,24(sp)
200161e2:	6105                	addi	sp,sp,32
200161e4:	8082                	ret

200161e6 <_fstat>:
_fstat():
E:/8.AWS-FreeRTOS-HiFive1/Workspace/sifive-hifive1-revb-i2c/freedom-metal/gloss/sys_fstat.c:6
#include <errno.h>
#include <sys/stat.h>

int
_fstat(int file, struct stat *st)
{
200161e6:	1101                	addi	sp,sp,-32
200161e8:	ce06                	sw	ra,28(sp)
200161ea:	cc22                	sw	s0,24(sp)
200161ec:	1000                	addi	s0,sp,32
200161ee:	fea42623          	sw	a0,-20(s0)
200161f2:	feb42423          	sw	a1,-24(s0)
E:/8.AWS-FreeRTOS-HiFive1/Workspace/sifive-hifive1-revb-i2c/freedom-metal/gloss/sys_fstat.c:7
  errno = -ENOSYS;
200161f6:	2491                	jal	2001643a <__errno>
200161f8:	872a                	mv	a4,a0
200161fa:	fa800793          	li	a5,-88
200161fe:	c31c                	sw	a5,0(a4)
E:/8.AWS-FreeRTOS-HiFive1/Workspace/sifive-hifive1-revb-i2c/freedom-metal/gloss/sys_fstat.c:8
  return -1;
20016200:	57fd                	li	a5,-1
E:/8.AWS-FreeRTOS-HiFive1/Workspace/sifive-hifive1-revb-i2c/freedom-metal/gloss/sys_fstat.c:9
}
20016202:	853e                	mv	a0,a5
20016204:	40f2                	lw	ra,28(sp)
20016206:	4462                	lw	s0,24(sp)
20016208:	6105                	addi	sp,sp,32
2001620a:	8082                	ret

2001620c <_gettimeofday>:
_gettimeofday():
E:/8.AWS-FreeRTOS-HiFive1/Workspace/sifive-hifive1-revb-i2c/freedom-metal/gloss/sys_gettimeofday.c:7
#include <metal/timer.h>
#include <sys/time.h>

int
_gettimeofday(struct timeval *tp, void *tzp)
{
2001620c:	7139                	addi	sp,sp,-64
2001620e:	de06                	sw	ra,60(sp)
20016210:	dc22                	sw	s0,56(sp)
20016212:	da4a                	sw	s2,52(sp)
20016214:	d84e                	sw	s3,48(sp)
20016216:	0080                	addi	s0,sp,64
20016218:	fca42623          	sw	a0,-52(s0)
2001621c:	fcb42423          	sw	a1,-56(s0)
E:/8.AWS-FreeRTOS-HiFive1/Workspace/sifive-hifive1-revb-i2c/freedom-metal/gloss/sys_gettimeofday.c:10
    int rv;
    unsigned long long mcc, timebase;
    rv = metal_timer_get_cyclecount(0, &mcc);
20016220:	fe040793          	addi	a5,s0,-32
20016224:	85be                	mv	a1,a5
20016226:	4501                	li	a0,0
20016228:	f09ff0ef          	jal	ra,20016130 <metal_timer_get_cyclecount>
2001622c:	fea42623          	sw	a0,-20(s0)
E:/8.AWS-FreeRTOS-HiFive1/Workspace/sifive-hifive1-revb-i2c/freedom-metal/gloss/sys_gettimeofday.c:11
    if (rv != 0) {
20016230:	fec42783          	lw	a5,-20(s0)
20016234:	c399                	beqz	a5,2001623a <_gettimeofday+0x2e>
E:/8.AWS-FreeRTOS-HiFive1/Workspace/sifive-hifive1-revb-i2c/freedom-metal/gloss/sys_gettimeofday.c:12
        return -1;
20016236:	57fd                	li	a5,-1
20016238:	a075                	j	200162e4 <_gettimeofday+0xd8>
E:/8.AWS-FreeRTOS-HiFive1/Workspace/sifive-hifive1-revb-i2c/freedom-metal/gloss/sys_gettimeofday.c:14
    }
    rv = metal_timer_get_timebase_frequency(0, &timebase);
2001623a:	fd840793          	addi	a5,s0,-40
2001623e:	85be                	mv	a1,a5
20016240:	4501                	li	a0,0
20016242:	3f25                	jal	2001617a <metal_timer_get_timebase_frequency>
20016244:	fea42623          	sw	a0,-20(s0)
E:/8.AWS-FreeRTOS-HiFive1/Workspace/sifive-hifive1-revb-i2c/freedom-metal/gloss/sys_gettimeofday.c:15
    if (rv != 0) {
20016248:	fec42783          	lw	a5,-20(s0)
2001624c:	c399                	beqz	a5,20016252 <_gettimeofday+0x46>
E:/8.AWS-FreeRTOS-HiFive1/Workspace/sifive-hifive1-revb-i2c/freedom-metal/gloss/sys_gettimeofday.c:16
        return -1;
2001624e:	57fd                	li	a5,-1
20016250:	a851                	j	200162e4 <_gettimeofday+0xd8>
E:/8.AWS-FreeRTOS-HiFive1/Workspace/sifive-hifive1-revb-i2c/freedom-metal/gloss/sys_gettimeofday.c:18
    }
    tp->tv_sec = mcc / timebase;
20016252:	fe042783          	lw	a5,-32(s0)
20016256:	fe442803          	lw	a6,-28(s0)
2001625a:	fd842683          	lw	a3,-40(s0)
2001625e:	fdc42703          	lw	a4,-36(s0)
20016262:	8636                	mv	a2,a3
20016264:	86ba                	mv	a3,a4
20016266:	853e                	mv	a0,a5
20016268:	85c2                	mv	a1,a6
2001626a:	2eed                	jal	20016664 <__udivdi3>
2001626c:	87aa                	mv	a5,a0
2001626e:	882e                	mv	a6,a1
20016270:	fcc42703          	lw	a4,-52(s0)
20016274:	c31c                	sw	a5,0(a4)
20016276:	01072223          	sw	a6,4(a4)
E:/8.AWS-FreeRTOS-HiFive1/Workspace/sifive-hifive1-revb-i2c/freedom-metal/gloss/sys_gettimeofday.c:19
    tp->tv_usec = mcc % timebase * 1000000 / timebase;
2001627a:	fe042783          	lw	a5,-32(s0)
2001627e:	fe442803          	lw	a6,-28(s0)
20016282:	fd842683          	lw	a3,-40(s0)
20016286:	fdc42703          	lw	a4,-36(s0)
2001628a:	8636                	mv	a2,a3
2001628c:	86ba                	mv	a3,a4
2001628e:	853e                	mv	a0,a5
20016290:	85c2                	mv	a1,a6
20016292:	2f05                	jal	200169c2 <__umoddi3>
20016294:	87aa                	mv	a5,a0
20016296:	882e                	mv	a6,a1
20016298:	000f4737          	lui	a4,0xf4
2001629c:	24070713          	addi	a4,a4,576 # f4240 <__heap_size+0xf3a40>
200162a0:	02e806b3          	mul	a3,a6,a4
200162a4:	4701                	li	a4,0
200162a6:	02e78733          	mul	a4,a5,a4
200162aa:	96ba                	add	a3,a3,a4
200162ac:	000f4737          	lui	a4,0xf4
200162b0:	24070713          	addi	a4,a4,576 # f4240 <__heap_size+0xf3a40>
200162b4:	02e78633          	mul	a2,a5,a4
200162b8:	02e7b9b3          	mulhu	s3,a5,a4
200162bc:	8932                	mv	s2,a2
200162be:	013687b3          	add	a5,a3,s3
200162c2:	89be                	mv	s3,a5
200162c4:	fd842783          	lw	a5,-40(s0)
200162c8:	fdc42803          	lw	a6,-36(s0)
200162cc:	863e                	mv	a2,a5
200162ce:	86c2                	mv	a3,a6
200162d0:	854a                	mv	a0,s2
200162d2:	85ce                	mv	a1,s3
200162d4:	2e41                	jal	20016664 <__udivdi3>
200162d6:	87aa                	mv	a5,a0
200162d8:	882e                	mv	a6,a1
200162da:	873e                	mv	a4,a5
200162dc:	fcc42783          	lw	a5,-52(s0)
200162e0:	c798                	sw	a4,8(a5)
E:/8.AWS-FreeRTOS-HiFive1/Workspace/sifive-hifive1-revb-i2c/freedom-metal/gloss/sys_gettimeofday.c:20
    return 0;
200162e2:	4781                	li	a5,0
E:/8.AWS-FreeRTOS-HiFive1/Workspace/sifive-hifive1-revb-i2c/freedom-metal/gloss/sys_gettimeofday.c:21 (discriminator 1)
}
200162e4:	853e                	mv	a0,a5
200162e6:	50f2                	lw	ra,60(sp)
200162e8:	5462                	lw	s0,56(sp)
200162ea:	5952                	lw	s2,52(sp)
200162ec:	59c2                	lw	s3,48(sp)
200162ee:	6121                	addi	sp,sp,64
200162f0:	8082                	ret

200162f2 <_isatty>:
_isatty():
E:/8.AWS-FreeRTOS-HiFive1/Workspace/sifive-hifive1-revb-i2c/freedom-metal/gloss/sys_isatty.c:5
#include <unistd.h>

int
_isatty(int file)
{
200162f2:	1101                	addi	sp,sp,-32
200162f4:	ce22                	sw	s0,28(sp)
200162f6:	1000                	addi	s0,sp,32
200162f8:	fea42623          	sw	a0,-20(s0)
E:/8.AWS-FreeRTOS-HiFive1/Workspace/sifive-hifive1-revb-i2c/freedom-metal/gloss/sys_isatty.c:6
  return (file == STDOUT_FILENO);
200162fc:	fec42783          	lw	a5,-20(s0)
20016300:	17fd                	addi	a5,a5,-1
20016302:	0017b793          	seqz	a5,a5
20016306:	0ff7f793          	andi	a5,a5,255
E:/8.AWS-FreeRTOS-HiFive1/Workspace/sifive-hifive1-revb-i2c/freedom-metal/gloss/sys_isatty.c:7
}
2001630a:	853e                	mv	a0,a5
2001630c:	4472                	lw	s0,28(sp)
2001630e:	6105                	addi	sp,sp,32
20016310:	8082                	ret

20016312 <_lseek>:
_lseek():
E:/8.AWS-FreeRTOS-HiFive1/Workspace/sifive-hifive1-revb-i2c/freedom-metal/gloss/sys_lseek.c:6
#include <sys/types.h>
#include <errno.h>

off_t
_lseek(int file, off_t ptr, int dir)
{
20016312:	1101                	addi	sp,sp,-32
20016314:	ce06                	sw	ra,28(sp)
20016316:	cc22                	sw	s0,24(sp)
20016318:	1000                	addi	s0,sp,32
2001631a:	fea42623          	sw	a0,-20(s0)
2001631e:	feb42423          	sw	a1,-24(s0)
20016322:	fec42223          	sw	a2,-28(s0)
E:/8.AWS-FreeRTOS-HiFive1/Workspace/sifive-hifive1-revb-i2c/freedom-metal/gloss/sys_lseek.c:7
  errno = ENOSYS;
20016326:	2a11                	jal	2001643a <__errno>
20016328:	872a                	mv	a4,a0
2001632a:	05800793          	li	a5,88
2001632e:	c31c                	sw	a5,0(a4)
E:/8.AWS-FreeRTOS-HiFive1/Workspace/sifive-hifive1-revb-i2c/freedom-metal/gloss/sys_lseek.c:8
  return -1;
20016330:	57fd                	li	a5,-1
E:/8.AWS-FreeRTOS-HiFive1/Workspace/sifive-hifive1-revb-i2c/freedom-metal/gloss/sys_lseek.c:9
}
20016332:	853e                	mv	a0,a5
20016334:	40f2                	lw	ra,28(sp)
20016336:	4462                	lw	s0,24(sp)
20016338:	6105                	addi	sp,sp,32
2001633a:	8082                	ret

2001633c <_read>:
_read():
E:/8.AWS-FreeRTOS-HiFive1/Workspace/sifive-hifive1-revb-i2c/freedom-metal/gloss/sys_read.c:6
#include <sys/types.h>
#include <errno.h>

ssize_t
_read(int file, void *ptr, size_t len)
{
2001633c:	1101                	addi	sp,sp,-32
2001633e:	ce06                	sw	ra,28(sp)
20016340:	cc22                	sw	s0,24(sp)
20016342:	1000                	addi	s0,sp,32
20016344:	fea42623          	sw	a0,-20(s0)
20016348:	feb42423          	sw	a1,-24(s0)
2001634c:	fec42223          	sw	a2,-28(s0)
E:/8.AWS-FreeRTOS-HiFive1/Workspace/sifive-hifive1-revb-i2c/freedom-metal/gloss/sys_read.c:7
  errno = ENOSYS;
20016350:	20ed                	jal	2001643a <__errno>
20016352:	872a                	mv	a4,a0
20016354:	05800793          	li	a5,88
20016358:	c31c                	sw	a5,0(a4)
E:/8.AWS-FreeRTOS-HiFive1/Workspace/sifive-hifive1-revb-i2c/freedom-metal/gloss/sys_read.c:8
  return -1;
2001635a:	57fd                	li	a5,-1
E:/8.AWS-FreeRTOS-HiFive1/Workspace/sifive-hifive1-revb-i2c/freedom-metal/gloss/sys_read.c:9
}
2001635c:	853e                	mv	a0,a5
2001635e:	40f2                	lw	ra,28(sp)
20016360:	4462                	lw	s0,24(sp)
20016362:	6105                	addi	sp,sp,32
20016364:	8082                	ret

20016366 <_sbrk>:
_sbrk():
E:/8.AWS-FreeRTOS-HiFive1/Workspace/sifive-hifive1-revb-i2c/freedom-metal/gloss/sys_sbrk.c:22
  return 0;
}

char *
_sbrk(ptrdiff_t incr)
{
20016366:	7179                	addi	sp,sp,-48
20016368:	d622                	sw	s0,44(sp)
2001636a:	1800                	addi	s0,sp,48
2001636c:	fca42e23          	sw	a0,-36(s0)
E:/8.AWS-FreeRTOS-HiFive1/Workspace/sifive-hifive1-revb-i2c/freedom-metal/gloss/sys_sbrk.c:23
  char *old = brk;
20016370:	8401a783          	lw	a5,-1984(gp) # 80000ac8 <brk>
20016374:	fef42623          	sw	a5,-20(s0)
E:/8.AWS-FreeRTOS-HiFive1/Workspace/sifive-hifive1-revb-i2c/freedom-metal/gloss/sys_sbrk.c:26

  /* If __heap_size == 0, we can't allocate memory on the heap */
  if(&metal_segment_heap_target_start == &metal_segment_heap_target_end) {
20016378:	ce818713          	addi	a4,gp,-792 # 80000f70 <_sp>
2001637c:	4e818793          	addi	a5,gp,1256 # 80001770 <metal_segment_heap_target_end>
20016380:	00f71463          	bne	a4,a5,20016388 <_sbrk+0x22>
E:/8.AWS-FreeRTOS-HiFive1/Workspace/sifive-hifive1-revb-i2c/freedom-metal/gloss/sys_sbrk.c:27
    return (void *)-1;
20016384:	57fd                	li	a5,-1
20016386:	a80d                	j	200163b8 <_sbrk+0x52>
E:/8.AWS-FreeRTOS-HiFive1/Workspace/sifive-hifive1-revb-i2c/freedom-metal/gloss/sys_sbrk.c:31
  }

  /* Don't move the break past the end of the heap */
  if ((brk + incr) < &metal_segment_heap_target_end) {
20016388:	8401a703          	lw	a4,-1984(gp) # 80000ac8 <brk>
2001638c:	fdc42783          	lw	a5,-36(s0)
20016390:	973e                	add	a4,a4,a5
20016392:	4e818793          	addi	a5,gp,1256 # 80001770 <metal_segment_heap_target_end>
20016396:	00f77c63          	bgeu	a4,a5,200163ae <_sbrk+0x48>
E:/8.AWS-FreeRTOS-HiFive1/Workspace/sifive-hifive1-revb-i2c/freedom-metal/gloss/sys_sbrk.c:32
    brk += incr;
2001639a:	8401a703          	lw	a4,-1984(gp) # 80000ac8 <brk>
2001639e:	fdc42783          	lw	a5,-36(s0)
200163a2:	973e                	add	a4,a4,a5
200163a4:	84e1a023          	sw	a4,-1984(gp) # 80000ac8 <brk>
E:/8.AWS-FreeRTOS-HiFive1/Workspace/sifive-hifive1-revb-i2c/freedom-metal/gloss/sys_sbrk.c:38
  } else {
    brk = &metal_segment_heap_target_end;
    return (void *)-1;
  }

  return old;
200163a8:	fec42783          	lw	a5,-20(s0)
200163ac:	a031                	j	200163b8 <_sbrk+0x52>
E:/8.AWS-FreeRTOS-HiFive1/Workspace/sifive-hifive1-revb-i2c/freedom-metal/gloss/sys_sbrk.c:34
    brk = &metal_segment_heap_target_end;
200163ae:	4e818713          	addi	a4,gp,1256 # 80001770 <metal_segment_heap_target_end>
200163b2:	84e1a023          	sw	a4,-1984(gp) # 80000ac8 <brk>
E:/8.AWS-FreeRTOS-HiFive1/Workspace/sifive-hifive1-revb-i2c/freedom-metal/gloss/sys_sbrk.c:35
    return (void *)-1;
200163b6:	57fd                	li	a5,-1
E:/8.AWS-FreeRTOS-HiFive1/Workspace/sifive-hifive1-revb-i2c/freedom-metal/gloss/sys_sbrk.c:39
}
200163b8:	853e                	mv	a0,a5
200163ba:	5432                	lw	s0,44(sp)
200163bc:	6145                	addi	sp,sp,48
200163be:	8082                	ret

200163c0 <_write>:
_write():
E:/8.AWS-FreeRTOS-HiFive1/Workspace/sifive-hifive1-revb-i2c/freedom-metal/gloss/sys_write.c:9
#include <unistd.h>

/* Write to a file.  */
ssize_t
_write(int file, const void *ptr, size_t len)
{
200163c0:	7179                	addi	sp,sp,-48
200163c2:	d606                	sw	ra,44(sp)
200163c4:	d422                	sw	s0,40(sp)
200163c6:	1800                	addi	s0,sp,48
200163c8:	fca42e23          	sw	a0,-36(s0)
200163cc:	fcb42c23          	sw	a1,-40(s0)
200163d0:	fcc42a23          	sw	a2,-44(s0)
E:/8.AWS-FreeRTOS-HiFive1/Workspace/sifive-hifive1-revb-i2c/freedom-metal/gloss/sys_write.c:10
  if (file != STDOUT_FILENO) {
200163d4:	fdc42703          	lw	a4,-36(s0)
200163d8:	4785                	li	a5,1
200163da:	00f70963          	beq	a4,a5,200163ec <_write+0x2c>
E:/8.AWS-FreeRTOS-HiFive1/Workspace/sifive-hifive1-revb-i2c/freedom-metal/gloss/sys_write.c:11
    errno = ENOSYS;
200163de:	28b1                	jal	2001643a <__errno>
200163e0:	872a                	mv	a4,a0
200163e2:	05800793          	li	a5,88
200163e6:	c31c                	sw	a5,0(a4)
E:/8.AWS-FreeRTOS-HiFive1/Workspace/sifive-hifive1-revb-i2c/freedom-metal/gloss/sys_write.c:12
    return -1;
200163e8:	57fd                	li	a5,-1
200163ea:	a835                	j	20016426 <_write+0x66>
E:/8.AWS-FreeRTOS-HiFive1/Workspace/sifive-hifive1-revb-i2c/freedom-metal/gloss/sys_write.c:15
  }

  const char *bptr = ptr;
200163ec:	fd842783          	lw	a5,-40(s0)
200163f0:	fef42423          	sw	a5,-24(s0)
E:/8.AWS-FreeRTOS-HiFive1/Workspace/sifive-hifive1-revb-i2c/freedom-metal/gloss/sys_write.c:16
  for (size_t i = 0; i < len; ++i)
200163f4:	fe042623          	sw	zero,-20(s0)
200163f8:	a005                	j	20016418 <_write+0x58>
E:/8.AWS-FreeRTOS-HiFive1/Workspace/sifive-hifive1-revb-i2c/freedom-metal/gloss/sys_write.c:17 (discriminator 3)
    metal_tty_putc(bptr[i]);
200163fa:	fe842703          	lw	a4,-24(s0)
200163fe:	fec42783          	lw	a5,-20(s0)
20016402:	97ba                	add	a5,a5,a4
20016404:	0007c783          	lbu	a5,0(a5) # 8000 <__heap_size+0x7800>
20016408:	853e                	mv	a0,a5
2001640a:	10b000ef          	jal	ra,20016d14 <metal_tty_putc>
E:/8.AWS-FreeRTOS-HiFive1/Workspace/sifive-hifive1-revb-i2c/freedom-metal/gloss/sys_write.c:16 (discriminator 3)
  for (size_t i = 0; i < len; ++i)
2001640e:	fec42783          	lw	a5,-20(s0)
20016412:	0785                	addi	a5,a5,1
20016414:	fef42623          	sw	a5,-20(s0)
E:/8.AWS-FreeRTOS-HiFive1/Workspace/sifive-hifive1-revb-i2c/freedom-metal/gloss/sys_write.c:16 (discriminator 1)
20016418:	fec42703          	lw	a4,-20(s0)
2001641c:	fd442783          	lw	a5,-44(s0)
20016420:	fcf76de3          	bltu	a4,a5,200163fa <_write+0x3a>
E:/8.AWS-FreeRTOS-HiFive1/Workspace/sifive-hifive1-revb-i2c/freedom-metal/gloss/sys_write.c:18
  return 0;
20016424:	4781                	li	a5,0
E:/8.AWS-FreeRTOS-HiFive1/Workspace/sifive-hifive1-revb-i2c/freedom-metal/gloss/sys_write.c:19
}
20016426:	853e                	mv	a0,a5
20016428:	50b2                	lw	ra,44(sp)
2001642a:	5422                	lw	s0,40(sp)
2001642c:	6145                	addi	sp,sp,48
2001642e:	8082                	ret

20016430 <atexit>:
atexit():
20016430:	85aa                	mv	a1,a0
20016432:	4681                	li	a3,0
20016434:	4601                	li	a2,0
20016436:	4501                	li	a0,0
20016438:	a8f1                	j	20016514 <__register_exitproc>

2001643a <__errno>:
__errno():
2001643a:	5ffea797          	auipc	a5,0x5ffea
2001643e:	65278793          	addi	a5,a5,1618 # 80000a8c <_impure_ptr>
20016442:	4388                	lw	a0,0(a5)
20016444:	8082                	ret

20016446 <exit>:
exit():
20016446:	1141                	addi	sp,sp,-16
20016448:	c422                	sw	s0,8(sp)
2001644a:	c606                	sw	ra,12(sp)
2001644c:	00000797          	auipc	a5,0x0
20016450:	15078793          	addi	a5,a5,336 # 2001659c <__call_exitprocs>
20016454:	842a                	mv	s0,a0
20016456:	c399                	beqz	a5,2001645c <exit+0x16>
20016458:	4581                	li	a1,0
2001645a:	2289                	jal	2001659c <__call_exitprocs>
2001645c:	5ffea797          	auipc	a5,0x5ffea
20016460:	63478793          	addi	a5,a5,1588 # 80000a90 <_global_impure_ptr>
20016464:	4388                	lw	a0,0(a5)
20016466:	551c                	lw	a5,40(a0)
20016468:	c391                	beqz	a5,2001646c <exit+0x26>
2001646a:	9782                	jalr	a5
2001646c:	8522                	mv	a0,s0
2001646e:	11f000ef          	jal	ra,20016d8c <_exit>

20016472 <__libc_fini_array>:
__libc_fini_array():
20016472:	1141                	addi	sp,sp,-16
20016474:	00002797          	auipc	a5,0x2
20016478:	85078793          	addi	a5,a5,-1968 # 20017cc4 <__fini_array_end>
2001647c:	c422                	sw	s0,8(sp)
2001647e:	00002417          	auipc	s0,0x2
20016482:	84640413          	addi	s0,s0,-1978 # 20017cc4 <__fini_array_end>
20016486:	8c1d                	sub	s0,s0,a5
20016488:	c226                	sw	s1,4(sp)
2001648a:	c606                	sw	ra,12(sp)
2001648c:	8409                	srai	s0,s0,0x2
2001648e:	84be                	mv	s1,a5
20016490:	e411                	bnez	s0,2001649c <__libc_fini_array+0x2a>
20016492:	40b2                	lw	ra,12(sp)
20016494:	4422                	lw	s0,8(sp)
20016496:	4492                	lw	s1,4(sp)
20016498:	0141                	addi	sp,sp,16
2001649a:	8082                	ret
2001649c:	147d                	addi	s0,s0,-1
2001649e:	00241793          	slli	a5,s0,0x2
200164a2:	97a6                	add	a5,a5,s1
200164a4:	439c                	lw	a5,0(a5)
200164a6:	9782                	jalr	a5
200164a8:	b7e5                	j	20016490 <__libc_fini_array+0x1e>

200164aa <__libc_init_array>:
__libc_init_array():
200164aa:	1141                	addi	sp,sp,-16
200164ac:	00002797          	auipc	a5,0x2
200164b0:	80c78793          	addi	a5,a5,-2036 # 20017cb8 <__init_array_start>
200164b4:	c422                	sw	s0,8(sp)
200164b6:	00002417          	auipc	s0,0x2
200164ba:	80240413          	addi	s0,s0,-2046 # 20017cb8 <__init_array_start>
200164be:	8c1d                	sub	s0,s0,a5
200164c0:	c226                	sw	s1,4(sp)
200164c2:	c04a                	sw	s2,0(sp)
200164c4:	c606                	sw	ra,12(sp)
200164c6:	8409                	srai	s0,s0,0x2
200164c8:	4481                	li	s1,0
200164ca:	893e                	mv	s2,a5
200164cc:	02849663          	bne	s1,s0,200164f8 <__libc_init_array+0x4e>
200164d0:	00001797          	auipc	a5,0x1
200164d4:	7e878793          	addi	a5,a5,2024 # 20017cb8 <__init_array_start>
200164d8:	00001417          	auipc	s0,0x1
200164dc:	7ec40413          	addi	s0,s0,2028 # 20017cc4 <__fini_array_end>
200164e0:	8c1d                	sub	s0,s0,a5
200164e2:	8409                	srai	s0,s0,0x2
200164e4:	4481                	li	s1,0
200164e6:	893e                	mv	s2,a5
200164e8:	00849f63          	bne	s1,s0,20016506 <__libc_init_array+0x5c>
200164ec:	40b2                	lw	ra,12(sp)
200164ee:	4422                	lw	s0,8(sp)
200164f0:	4492                	lw	s1,4(sp)
200164f2:	4902                	lw	s2,0(sp)
200164f4:	0141                	addi	sp,sp,16
200164f6:	8082                	ret
200164f8:	00249793          	slli	a5,s1,0x2
200164fc:	97ca                	add	a5,a5,s2
200164fe:	439c                	lw	a5,0(a5)
20016500:	0485                	addi	s1,s1,1
20016502:	9782                	jalr	a5
20016504:	b7e1                	j	200164cc <__libc_init_array+0x22>
20016506:	00249793          	slli	a5,s1,0x2
2001650a:	97ca                	add	a5,a5,s2
2001650c:	439c                	lw	a5,0(a5)
2001650e:	0485                	addi	s1,s1,1
20016510:	9782                	jalr	a5
20016512:	bfd9                	j	200164e8 <__libc_init_array+0x3e>

20016514 <__register_exitproc>:
__register_exitproc():
20016514:	5ffea797          	auipc	a5,0x5ffea
20016518:	5c878793          	addi	a5,a5,1480 # 80000adc <_global_atexit>
2001651c:	439c                	lw	a5,0(a5)
2001651e:	8e2a                	mv	t3,a0
20016520:	e39d                	bnez	a5,20016546 <__register_exitproc+0x32>
20016522:	5ffea717          	auipc	a4,0x5ffea
20016526:	5be70713          	addi	a4,a4,1470 # 80000ae0 <_global_atexit0>
2001652a:	5ffea797          	auipc	a5,0x5ffea
2001652e:	5ae7a923          	sw	a4,1458(a5) # 80000adc <_global_atexit>
20016532:	dffea517          	auipc	a0,0xdffea
20016536:	ace50513          	addi	a0,a0,-1330 # 0 <__metal_boot_hart>
2001653a:	87ba                	mv	a5,a4
2001653c:	c509                	beqz	a0,20016546 <__register_exitproc+0x32>
2001653e:	411c                	lw	a5,0(a0)
20016540:	8ef1a023          	sw	a5,-1824(gp) # 80000b68 <_global_atexit0+0x88>
20016544:	87ba                	mv	a5,a4
20016546:	43d8                	lw	a4,4(a5)
20016548:	487d                	li	a6,31
2001654a:	557d                	li	a0,-1
2001654c:	04e84763          	blt	a6,a4,2001659a <__register_exitproc+0x86>
20016550:	020e0e63          	beqz	t3,2001658c <__register_exitproc+0x78>
20016554:	0887a803          	lw	a6,136(a5)
20016558:	04080163          	beqz	a6,2001659a <__register_exitproc+0x86>
2001655c:	00271893          	slli	a7,a4,0x2
20016560:	98c2                	add	a7,a7,a6
20016562:	00c8a023          	sw	a2,0(a7)
20016566:	10082303          	lw	t1,256(a6)
2001656a:	4605                	li	a2,1
2001656c:	00e61633          	sll	a2,a2,a4
20016570:	00c36333          	or	t1,t1,a2
20016574:	10682023          	sw	t1,256(a6)
20016578:	08d8a023          	sw	a3,128(a7)
2001657c:	4689                	li	a3,2
2001657e:	00de1763          	bne	t3,a3,2001658c <__register_exitproc+0x78>
20016582:	10482683          	lw	a3,260(a6)
20016586:	8e55                	or	a2,a2,a3
20016588:	10c82223          	sw	a2,260(a6)
2001658c:	00170693          	addi	a3,a4,1
20016590:	070a                	slli	a4,a4,0x2
20016592:	c3d4                	sw	a3,4(a5)
20016594:	97ba                	add	a5,a5,a4
20016596:	c78c                	sw	a1,8(a5)
20016598:	4501                	li	a0,0
2001659a:	8082                	ret

2001659c <__call_exitprocs>:
__call_exitprocs():
2001659c:	7179                	addi	sp,sp,-48
2001659e:	cc52                	sw	s4,24(sp)
200165a0:	ca56                	sw	s5,20(sp)
200165a2:	c85a                	sw	s6,16(sp)
200165a4:	c65e                	sw	s7,12(sp)
200165a6:	d606                	sw	ra,44(sp)
200165a8:	d422                	sw	s0,40(sp)
200165aa:	d226                	sw	s1,36(sp)
200165ac:	d04a                	sw	s2,32(sp)
200165ae:	ce4e                	sw	s3,28(sp)
200165b0:	c462                	sw	s8,8(sp)
200165b2:	8b2a                	mv	s6,a0
200165b4:	8a2e                	mv	s4,a1
200165b6:	5ffeaa97          	auipc	s5,0x5ffea
200165ba:	526a8a93          	addi	s5,s5,1318 # 80000adc <_global_atexit>
200165be:	4b85                	li	s7,1
200165c0:	000aa403          	lw	s0,0(s5)
200165c4:	c811                	beqz	s0,200165d8 <__call_exitprocs+0x3c>
200165c6:	4044                	lw	s1,4(s0)
200165c8:	08842983          	lw	s3,136(s0)
200165cc:	fff48913          	addi	s2,s1,-1
200165d0:	048a                	slli	s1,s1,0x2
200165d2:	94a2                	add	s1,s1,s0
200165d4:	00095e63          	bgez	s2,200165f0 <__call_exitprocs+0x54>
200165d8:	50b2                	lw	ra,44(sp)
200165da:	5422                	lw	s0,40(sp)
200165dc:	5492                	lw	s1,36(sp)
200165de:	5902                	lw	s2,32(sp)
200165e0:	49f2                	lw	s3,28(sp)
200165e2:	4a62                	lw	s4,24(sp)
200165e4:	4ad2                	lw	s5,20(sp)
200165e6:	4b42                	lw	s6,16(sp)
200165e8:	4bb2                	lw	s7,12(sp)
200165ea:	4c22                	lw	s8,8(sp)
200165ec:	6145                	addi	sp,sp,48
200165ee:	8082                	ret
200165f0:	000a0e63          	beqz	s4,2001660c <__call_exitprocs+0x70>
200165f4:	00099563          	bnez	s3,200165fe <__call_exitprocs+0x62>
200165f8:	197d                	addi	s2,s2,-1
200165fa:	14f1                	addi	s1,s1,-4
200165fc:	bfe1                	j	200165d4 <__call_exitprocs+0x38>
200165fe:	00291793          	slli	a5,s2,0x2
20016602:	97ce                	add	a5,a5,s3
20016604:	0807a783          	lw	a5,128(a5)
20016608:	ff4798e3          	bne	a5,s4,200165f8 <__call_exitprocs+0x5c>
2001660c:	4058                	lw	a4,4(s0)
2001660e:	40dc                	lw	a5,4(s1)
20016610:	177d                	addi	a4,a4,-1
20016612:	03271863          	bne	a4,s2,20016642 <__call_exitprocs+0xa6>
20016616:	01242223          	sw	s2,4(s0)
2001661a:	dff9                	beqz	a5,200165f8 <__call_exitprocs+0x5c>
2001661c:	00442c03          	lw	s8,4(s0)
20016620:	00098863          	beqz	s3,20016630 <__call_exitprocs+0x94>
20016624:	1009a683          	lw	a3,256(s3)
20016628:	012b9733          	sll	a4,s7,s2
2001662c:	8ef9                	and	a3,a3,a4
2001662e:	ee89                	bnez	a3,20016648 <__call_exitprocs+0xac>
20016630:	9782                	jalr	a5
20016632:	4058                	lw	a4,4(s0)
20016634:	000aa783          	lw	a5,0(s5)
20016638:	f98714e3          	bne	a4,s8,200165c0 <__call_exitprocs+0x24>
2001663c:	faf40ee3          	beq	s0,a5,200165f8 <__call_exitprocs+0x5c>
20016640:	b741                	j	200165c0 <__call_exitprocs+0x24>
20016642:	0004a223          	sw	zero,4(s1)
20016646:	bfd1                	j	2001661a <__call_exitprocs+0x7e>
20016648:	00291693          	slli	a3,s2,0x2
2001664c:	96ce                	add	a3,a3,s3
2001664e:	428c                	lw	a1,0(a3)
20016650:	1049a683          	lw	a3,260(s3)
20016654:	8f75                	and	a4,a4,a3
20016656:	e701                	bnez	a4,2001665e <__call_exitprocs+0xc2>
20016658:	855a                	mv	a0,s6
2001665a:	9782                	jalr	a5
2001665c:	bfd9                	j	20016632 <__call_exitprocs+0x96>
2001665e:	852e                	mv	a0,a1
20016660:	9782                	jalr	a5
20016662:	bfc1                	j	20016632 <__call_exitprocs+0x96>

20016664 <__udivdi3>:
__udivdi3():
/scratch/carsteng/freedom-tools-master/obj/x86_64-w64-mingw32/build/riscv-gnu-toolchain/build-gcc-newlib-stage2/riscv64-unknown-elf/rv32imac/ilp32/libgcc/../../../../../riscv-gcc/libgcc/libgcc2.c:1319
20016664:	87ae                	mv	a5,a1
/scratch/carsteng/freedom-tools-master/obj/x86_64-w64-mingw32/build/riscv-gnu-toolchain/build-gcc-newlib-stage2/riscv64-unknown-elf/rv32imac/ilp32/libgcc/../../../../../riscv-gcc/libgcc/libgcc2.c:1024
20016666:	8832                	mv	a6,a2
/scratch/carsteng/freedom-tools-master/obj/x86_64-w64-mingw32/build/riscv-gnu-toolchain/build-gcc-newlib-stage2/riscv64-unknown-elf/rv32imac/ilp32/libgcc/../../../../../riscv-gcc/libgcc/libgcc2.c:1025
20016668:	8736                	mv	a4,a3
/scratch/carsteng/freedom-tools-master/obj/x86_64-w64-mingw32/build/riscv-gnu-toolchain/build-gcc-newlib-stage2/riscv64-unknown-elf/rv32imac/ilp32/libgcc/../../../../../riscv-gcc/libgcc/libgcc2.c:1026
2001666a:	832a                	mv	t1,a0
/scratch/carsteng/freedom-tools-master/obj/x86_64-w64-mingw32/build/riscv-gnu-toolchain/build-gcc-newlib-stage2/riscv64-unknown-elf/rv32imac/ilp32/libgcc/../../../../../riscv-gcc/libgcc/libgcc2.c:1064
2001666c:	20069663          	bnez	a3,20016878 <__udivdi3+0x214>
/scratch/carsteng/freedom-tools-master/obj/x86_64-w64-mingw32/build/riscv-gnu-toolchain/build-gcc-newlib-stage2/riscv64-unknown-elf/rv32imac/ilp32/libgcc/../../../../../riscv-gcc/libgcc/libgcc2.c:1066
20016670:	00001897          	auipc	a7,0x1
20016674:	54888893          	addi	a7,a7,1352 # 20017bb8 <__clz_tab>
20016678:	0ac5fe63          	bgeu	a1,a2,20016734 <__udivdi3+0xd0>
/scratch/carsteng/freedom-tools-master/obj/x86_64-w64-mingw32/build/riscv-gnu-toolchain/build-gcc-newlib-stage2/riscv64-unknown-elf/rv32imac/ilp32/libgcc/../../../../../riscv-gcc/libgcc/libgcc2.c:1070
2001667c:	6741                	lui	a4,0x10
2001667e:	0ae67463          	bgeu	a2,a4,20016726 <__udivdi3+0xc2>
20016682:	0ff00713          	li	a4,255
20016686:	00c73733          	sltu	a4,a4,a2
2001668a:	070e                	slli	a4,a4,0x3
2001668c:	00e656b3          	srl	a3,a2,a4
20016690:	98b6                	add	a7,a7,a3
20016692:	0008c683          	lbu	a3,0(a7)
20016696:	9736                	add	a4,a4,a3
20016698:	02000693          	li	a3,32
2001669c:	8e99                	sub	a3,a3,a4
/scratch/carsteng/freedom-tools-master/obj/x86_64-w64-mingw32/build/riscv-gnu-toolchain/build-gcc-newlib-stage2/riscv64-unknown-elf/rv32imac/ilp32/libgcc/../../../../../riscv-gcc/libgcc/libgcc2.c:1072
2001669e:	ca99                	beqz	a3,200166b4 <__udivdi3+0x50>
/scratch/carsteng/freedom-tools-master/obj/x86_64-w64-mingw32/build/riscv-gnu-toolchain/build-gcc-newlib-stage2/riscv64-unknown-elf/rv32imac/ilp32/libgcc/../../../../../riscv-gcc/libgcc/libgcc2.c:1078
200166a0:	00d797b3          	sll	a5,a5,a3
200166a4:	00e55733          	srl	a4,a0,a4
/scratch/carsteng/freedom-tools-master/obj/x86_64-w64-mingw32/build/riscv-gnu-toolchain/build-gcc-newlib-stage2/riscv64-unknown-elf/rv32imac/ilp32/libgcc/../../../../../riscv-gcc/libgcc/libgcc2.c:1077
200166a8:	00d61833          	sll	a6,a2,a3
/scratch/carsteng/freedom-tools-master/obj/x86_64-w64-mingw32/build/riscv-gnu-toolchain/build-gcc-newlib-stage2/riscv64-unknown-elf/rv32imac/ilp32/libgcc/../../../../../riscv-gcc/libgcc/libgcc2.c:1078
200166ac:	00f765b3          	or	a1,a4,a5
/scratch/carsteng/freedom-tools-master/obj/x86_64-w64-mingw32/build/riscv-gnu-toolchain/build-gcc-newlib-stage2/riscv64-unknown-elf/rv32imac/ilp32/libgcc/../../../../../riscv-gcc/libgcc/libgcc2.c:1079
200166b0:	00d51333          	sll	t1,a0,a3
/scratch/carsteng/freedom-tools-master/obj/x86_64-w64-mingw32/build/riscv-gnu-toolchain/build-gcc-newlib-stage2/riscv64-unknown-elf/rv32imac/ilp32/libgcc/../../../../../riscv-gcc/libgcc/libgcc2.c:1082
200166b4:	01085513          	srli	a0,a6,0x10
200166b8:	02a5f733          	remu	a4,a1,a0
200166bc:	01081613          	slli	a2,a6,0x10
200166c0:	8241                	srli	a2,a2,0x10
200166c2:	01035693          	srli	a3,t1,0x10
200166c6:	02a5d5b3          	divu	a1,a1,a0
200166ca:	0742                	slli	a4,a4,0x10
200166cc:	8ed9                	or	a3,a3,a4
200166ce:	02b607b3          	mul	a5,a2,a1
200166d2:	872e                	mv	a4,a1
200166d4:	00f6fc63          	bgeu	a3,a5,200166ec <__udivdi3+0x88>
200166d8:	96c2                	add	a3,a3,a6
200166da:	fff58713          	addi	a4,a1,-1
200166de:	0106e763          	bltu	a3,a6,200166ec <__udivdi3+0x88>
200166e2:	00f6f563          	bgeu	a3,a5,200166ec <__udivdi3+0x88>
200166e6:	ffe58713          	addi	a4,a1,-2
200166ea:	96c2                	add	a3,a3,a6
200166ec:	8e9d                	sub	a3,a3,a5
200166ee:	02a6f7b3          	remu	a5,a3,a0
200166f2:	0342                	slli	t1,t1,0x10
200166f4:	01035313          	srli	t1,t1,0x10
200166f8:	02a6d6b3          	divu	a3,a3,a0
200166fc:	07c2                	slli	a5,a5,0x10
200166fe:	0067e333          	or	t1,a5,t1
20016702:	02d605b3          	mul	a1,a2,a3
20016706:	8536                	mv	a0,a3
20016708:	00b37b63          	bgeu	t1,a1,2001671e <__udivdi3+0xba>
2001670c:	9342                	add	t1,t1,a6
2001670e:	fff68513          	addi	a0,a3,-1
20016712:	01036663          	bltu	t1,a6,2001671e <__udivdi3+0xba>
20016716:	00b37463          	bgeu	t1,a1,2001671e <__udivdi3+0xba>
2001671a:	ffe68513          	addi	a0,a3,-2
2001671e:	0742                	slli	a4,a4,0x10
20016720:	8f49                	or	a4,a4,a0
/scratch/carsteng/freedom-tools-master/obj/x86_64-w64-mingw32/build/riscv-gnu-toolchain/build-gcc-newlib-stage2/riscv64-unknown-elf/rv32imac/ilp32/libgcc/../../../../../riscv-gcc/libgcc/libgcc2.c:1209
20016722:	4581                	li	a1,0
20016724:	a84d                	j	200167d6 <__udivdi3+0x172>
/scratch/carsteng/freedom-tools-master/obj/x86_64-w64-mingw32/build/riscv-gnu-toolchain/build-gcc-newlib-stage2/riscv64-unknown-elf/rv32imac/ilp32/libgcc/../../../../../riscv-gcc/libgcc/libgcc2.c:1070
20016726:	010006b7          	lui	a3,0x1000
2001672a:	4741                	li	a4,16
2001672c:	f6d660e3          	bltu	a2,a3,2001668c <__udivdi3+0x28>
20016730:	4761                	li	a4,24
20016732:	bfa9                	j	2001668c <__udivdi3+0x28>
/scratch/carsteng/freedom-tools-master/obj/x86_64-w64-mingw32/build/riscv-gnu-toolchain/build-gcc-newlib-stage2/riscv64-unknown-elf/rv32imac/ilp32/libgcc/../../../../../riscv-gcc/libgcc/libgcc2.c:1091
20016734:	e601                	bnez	a2,2001673c <__udivdi3+0xd8>
/scratch/carsteng/freedom-tools-master/obj/x86_64-w64-mingw32/build/riscv-gnu-toolchain/build-gcc-newlib-stage2/riscv64-unknown-elf/rv32imac/ilp32/libgcc/../../../../../riscv-gcc/libgcc/libgcc2.c:1092
20016736:	4685                	li	a3,1
20016738:	02c6d833          	divu	a6,a3,a2
/scratch/carsteng/freedom-tools-master/obj/x86_64-w64-mingw32/build/riscv-gnu-toolchain/build-gcc-newlib-stage2/riscv64-unknown-elf/rv32imac/ilp32/libgcc/../../../../../riscv-gcc/libgcc/libgcc2.c:1094
2001673c:	66c1                	lui	a3,0x10
2001673e:	08d87e63          	bgeu	a6,a3,200167da <__udivdi3+0x176>
20016742:	0ff00693          	li	a3,255
20016746:	0106f363          	bgeu	a3,a6,2001674c <__udivdi3+0xe8>
2001674a:	4721                	li	a4,8
2001674c:	00e856b3          	srl	a3,a6,a4
20016750:	98b6                	add	a7,a7,a3
20016752:	0008c683          	lbu	a3,0(a7)
20016756:	96ba                	add	a3,a3,a4
20016758:	02000713          	li	a4,32
2001675c:	8f15                	sub	a4,a4,a3
/scratch/carsteng/freedom-tools-master/obj/x86_64-w64-mingw32/build/riscv-gnu-toolchain/build-gcc-newlib-stage2/riscv64-unknown-elf/rv32imac/ilp32/libgcc/../../../../../riscv-gcc/libgcc/libgcc2.c:1096
2001675e:	e749                	bnez	a4,200167e8 <__udivdi3+0x184>
/scratch/carsteng/freedom-tools-master/obj/x86_64-w64-mingw32/build/riscv-gnu-toolchain/build-gcc-newlib-stage2/riscv64-unknown-elf/rv32imac/ilp32/libgcc/../../../../../riscv-gcc/libgcc/libgcc2.c:1105
20016760:	410787b3          	sub	a5,a5,a6
/scratch/carsteng/freedom-tools-master/obj/x86_64-w64-mingw32/build/riscv-gnu-toolchain/build-gcc-newlib-stage2/riscv64-unknown-elf/rv32imac/ilp32/libgcc/../../../../../riscv-gcc/libgcc/libgcc2.c:1106
20016764:	4585                	li	a1,1
/scratch/carsteng/freedom-tools-master/obj/x86_64-w64-mingw32/build/riscv-gnu-toolchain/build-gcc-newlib-stage2/riscv64-unknown-elf/rv32imac/ilp32/libgcc/../../../../../riscv-gcc/libgcc/libgcc2.c:1124
20016766:	01085613          	srli	a2,a6,0x10
2001676a:	01081893          	slli	a7,a6,0x10
2001676e:	0108d893          	srli	a7,a7,0x10
20016772:	01035693          	srli	a3,t1,0x10
20016776:	02c7f733          	remu	a4,a5,a2
2001677a:	02c7d7b3          	divu	a5,a5,a2
2001677e:	0742                	slli	a4,a4,0x10
20016780:	8ed9                	or	a3,a3,a4
20016782:	02f88533          	mul	a0,a7,a5
20016786:	873e                	mv	a4,a5
20016788:	00a6fc63          	bgeu	a3,a0,200167a0 <__udivdi3+0x13c>
2001678c:	96c2                	add	a3,a3,a6
2001678e:	fff78713          	addi	a4,a5,-1
20016792:	0106e763          	bltu	a3,a6,200167a0 <__udivdi3+0x13c>
20016796:	00a6f563          	bgeu	a3,a0,200167a0 <__udivdi3+0x13c>
2001679a:	ffe78713          	addi	a4,a5,-2
2001679e:	96c2                	add	a3,a3,a6
200167a0:	8e89                	sub	a3,a3,a0
200167a2:	02c6f7b3          	remu	a5,a3,a2
200167a6:	0342                	slli	t1,t1,0x10
200167a8:	01035313          	srli	t1,t1,0x10
200167ac:	02c6d6b3          	divu	a3,a3,a2
200167b0:	07c2                	slli	a5,a5,0x10
200167b2:	0067e333          	or	t1,a5,t1
200167b6:	02d888b3          	mul	a7,a7,a3
200167ba:	8536                	mv	a0,a3
200167bc:	01137b63          	bgeu	t1,a7,200167d2 <__udivdi3+0x16e>
200167c0:	9342                	add	t1,t1,a6
200167c2:	fff68513          	addi	a0,a3,-1 # ffff <__heap_size+0xf7ff>
200167c6:	01036663          	bltu	t1,a6,200167d2 <__udivdi3+0x16e>
200167ca:	01137463          	bgeu	t1,a7,200167d2 <__udivdi3+0x16e>
200167ce:	ffe68513          	addi	a0,a3,-2
200167d2:	0742                	slli	a4,a4,0x10
200167d4:	8f49                	or	a4,a4,a0
/scratch/carsteng/freedom-tools-master/obj/x86_64-w64-mingw32/build/riscv-gnu-toolchain/build-gcc-newlib-stage2/riscv64-unknown-elf/rv32imac/ilp32/libgcc/../../../../../riscv-gcc/libgcc/libgcc2.c:1321
200167d6:	853a                	mv	a0,a4
200167d8:	8082                	ret
/scratch/carsteng/freedom-tools-master/obj/x86_64-w64-mingw32/build/riscv-gnu-toolchain/build-gcc-newlib-stage2/riscv64-unknown-elf/rv32imac/ilp32/libgcc/../../../../../riscv-gcc/libgcc/libgcc2.c:1094
200167da:	010006b7          	lui	a3,0x1000
200167de:	4741                	li	a4,16
200167e0:	f6d866e3          	bltu	a6,a3,2001674c <__udivdi3+0xe8>
200167e4:	4761                	li	a4,24
200167e6:	b79d                	j	2001674c <__udivdi3+0xe8>
/scratch/carsteng/freedom-tools-master/obj/x86_64-w64-mingw32/build/riscv-gnu-toolchain/build-gcc-newlib-stage2/riscv64-unknown-elf/rv32imac/ilp32/libgcc/../../../../../riscv-gcc/libgcc/libgcc2.c:1114
200167e8:	00e81833          	sll	a6,a6,a4
/scratch/carsteng/freedom-tools-master/obj/x86_64-w64-mingw32/build/riscv-gnu-toolchain/build-gcc-newlib-stage2/riscv64-unknown-elf/rv32imac/ilp32/libgcc/../../../../../riscv-gcc/libgcc/libgcc2.c:1115
200167ec:	00d7d5b3          	srl	a1,a5,a3
/scratch/carsteng/freedom-tools-master/obj/x86_64-w64-mingw32/build/riscv-gnu-toolchain/build-gcc-newlib-stage2/riscv64-unknown-elf/rv32imac/ilp32/libgcc/../../../../../riscv-gcc/libgcc/libgcc2.c:1117
200167f0:	00e51333          	sll	t1,a0,a4
/scratch/carsteng/freedom-tools-master/obj/x86_64-w64-mingw32/build/riscv-gnu-toolchain/build-gcc-newlib-stage2/riscv64-unknown-elf/rv32imac/ilp32/libgcc/../../../../../riscv-gcc/libgcc/libgcc2.c:1116
200167f4:	00d556b3          	srl	a3,a0,a3
/scratch/carsteng/freedom-tools-master/obj/x86_64-w64-mingw32/build/riscv-gnu-toolchain/build-gcc-newlib-stage2/riscv64-unknown-elf/rv32imac/ilp32/libgcc/../../../../../riscv-gcc/libgcc/libgcc2.c:1119
200167f8:	01085513          	srli	a0,a6,0x10
/scratch/carsteng/freedom-tools-master/obj/x86_64-w64-mingw32/build/riscv-gnu-toolchain/build-gcc-newlib-stage2/riscv64-unknown-elf/rv32imac/ilp32/libgcc/../../../../../riscv-gcc/libgcc/libgcc2.c:1116
200167fc:	00e797b3          	sll	a5,a5,a4
/scratch/carsteng/freedom-tools-master/obj/x86_64-w64-mingw32/build/riscv-gnu-toolchain/build-gcc-newlib-stage2/riscv64-unknown-elf/rv32imac/ilp32/libgcc/../../../../../riscv-gcc/libgcc/libgcc2.c:1119
20016800:	02a5f733          	remu	a4,a1,a0
/scratch/carsteng/freedom-tools-master/obj/x86_64-w64-mingw32/build/riscv-gnu-toolchain/build-gcc-newlib-stage2/riscv64-unknown-elf/rv32imac/ilp32/libgcc/../../../../../riscv-gcc/libgcc/libgcc2.c:1116
20016804:	00f6e8b3          	or	a7,a3,a5
/scratch/carsteng/freedom-tools-master/obj/x86_64-w64-mingw32/build/riscv-gnu-toolchain/build-gcc-newlib-stage2/riscv64-unknown-elf/rv32imac/ilp32/libgcc/../../../../../riscv-gcc/libgcc/libgcc2.c:1119
20016808:	01081793          	slli	a5,a6,0x10
2001680c:	83c1                	srli	a5,a5,0x10
2001680e:	0108d613          	srli	a2,a7,0x10
20016812:	02a5d5b3          	divu	a1,a1,a0
20016816:	0742                	slli	a4,a4,0x10
20016818:	8f51                	or	a4,a4,a2
2001681a:	02b786b3          	mul	a3,a5,a1
2001681e:	862e                	mv	a2,a1
20016820:	00d77c63          	bgeu	a4,a3,20016838 <__udivdi3+0x1d4>
20016824:	9742                	add	a4,a4,a6
20016826:	fff58613          	addi	a2,a1,-1
2001682a:	01076763          	bltu	a4,a6,20016838 <__udivdi3+0x1d4>
2001682e:	00d77563          	bgeu	a4,a3,20016838 <__udivdi3+0x1d4>
20016832:	ffe58613          	addi	a2,a1,-2
20016836:	9742                	add	a4,a4,a6
20016838:	40d706b3          	sub	a3,a4,a3
2001683c:	02a6f733          	remu	a4,a3,a0
20016840:	08c2                	slli	a7,a7,0x10
20016842:	0108d893          	srli	a7,a7,0x10
20016846:	02a6d6b3          	divu	a3,a3,a0
2001684a:	0742                	slli	a4,a4,0x10
2001684c:	02d785b3          	mul	a1,a5,a3
20016850:	011767b3          	or	a5,a4,a7
20016854:	8736                	mv	a4,a3
20016856:	00b7fc63          	bgeu	a5,a1,2001686e <__udivdi3+0x20a>
2001685a:	97c2                	add	a5,a5,a6
2001685c:	fff68713          	addi	a4,a3,-1 # ffffff <__heap_size+0xfff7ff>
20016860:	0107e763          	bltu	a5,a6,2001686e <__udivdi3+0x20a>
20016864:	00b7f563          	bgeu	a5,a1,2001686e <__udivdi3+0x20a>
20016868:	ffe68713          	addi	a4,a3,-2
2001686c:	97c2                	add	a5,a5,a6
2001686e:	8f8d                	sub	a5,a5,a1
20016870:	01061593          	slli	a1,a2,0x10
20016874:	8dd9                	or	a1,a1,a4
20016876:	bdc5                	j	20016766 <__udivdi3+0x102>
/scratch/carsteng/freedom-tools-master/obj/x86_64-w64-mingw32/build/riscv-gnu-toolchain/build-gcc-newlib-stage2/riscv64-unknown-elf/rv32imac/ilp32/libgcc/../../../../../riscv-gcc/libgcc/libgcc2.c:1140
20016878:	14d5e263          	bltu	a1,a3,200169bc <__udivdi3+0x358>
/scratch/carsteng/freedom-tools-master/obj/x86_64-w64-mingw32/build/riscv-gnu-toolchain/build-gcc-newlib-stage2/riscv64-unknown-elf/rv32imac/ilp32/libgcc/../../../../../riscv-gcc/libgcc/libgcc2.c:1159
2001687c:	6741                	lui	a4,0x10
2001687e:	02e6fe63          	bgeu	a3,a4,200168ba <__udivdi3+0x256>
20016882:	0ff00813          	li	a6,255
20016886:	00d83733          	sltu	a4,a6,a3
2001688a:	070e                	slli	a4,a4,0x3
2001688c:	00e6d833          	srl	a6,a3,a4
20016890:	00001597          	auipc	a1,0x1
20016894:	32858593          	addi	a1,a1,808 # 20017bb8 <__clz_tab>
20016898:	95c2                	add	a1,a1,a6
2001689a:	0005c803          	lbu	a6,0(a1)
2001689e:	02000593          	li	a1,32
200168a2:	983a                	add	a6,a6,a4
200168a4:	410585b3          	sub	a1,a1,a6
/scratch/carsteng/freedom-tools-master/obj/x86_64-w64-mingw32/build/riscv-gnu-toolchain/build-gcc-newlib-stage2/riscv64-unknown-elf/rv32imac/ilp32/libgcc/../../../../../riscv-gcc/libgcc/libgcc2.c:1160
200168a8:	e185                	bnez	a1,200168c8 <__udivdi3+0x264>
/scratch/carsteng/freedom-tools-master/obj/x86_64-w64-mingw32/build/riscv-gnu-toolchain/build-gcc-newlib-stage2/riscv64-unknown-elf/rv32imac/ilp32/libgcc/../../../../../riscv-gcc/libgcc/libgcc2.c:1172
200168aa:	4705                	li	a4,1
/scratch/carsteng/freedom-tools-master/obj/x86_64-w64-mingw32/build/riscv-gnu-toolchain/build-gcc-newlib-stage2/riscv64-unknown-elf/rv32imac/ilp32/libgcc/../../../../../riscv-gcc/libgcc/libgcc2.c:1170
200168ac:	f2f6e5e3          	bltu	a3,a5,200167d6 <__udivdi3+0x172>
200168b0:	00c53533          	sltu	a0,a0,a2
200168b4:	00154713          	xori	a4,a0,1
200168b8:	bf39                	j	200167d6 <__udivdi3+0x172>
/scratch/carsteng/freedom-tools-master/obj/x86_64-w64-mingw32/build/riscv-gnu-toolchain/build-gcc-newlib-stage2/riscv64-unknown-elf/rv32imac/ilp32/libgcc/../../../../../riscv-gcc/libgcc/libgcc2.c:1159
200168ba:	010005b7          	lui	a1,0x1000
200168be:	4741                	li	a4,16
200168c0:	fcb6e6e3          	bltu	a3,a1,2001688c <__udivdi3+0x228>
200168c4:	4761                	li	a4,24
200168c6:	b7d9                	j	2001688c <__udivdi3+0x228>
/scratch/carsteng/freedom-tools-master/obj/x86_64-w64-mingw32/build/riscv-gnu-toolchain/build-gcc-newlib-stage2/riscv64-unknown-elf/rv32imac/ilp32/libgcc/../../../../../riscv-gcc/libgcc/libgcc2.c:1194
200168c8:	01065733          	srl	a4,a2,a6
200168cc:	00b696b3          	sll	a3,a3,a1
200168d0:	8ed9                	or	a3,a3,a4
/scratch/carsteng/freedom-tools-master/obj/x86_64-w64-mingw32/build/riscv-gnu-toolchain/build-gcc-newlib-stage2/riscv64-unknown-elf/rv32imac/ilp32/libgcc/../../../../../riscv-gcc/libgcc/libgcc2.c:1200
200168d2:	0106de93          	srli	t4,a3,0x10
/scratch/carsteng/freedom-tools-master/obj/x86_64-w64-mingw32/build/riscv-gnu-toolchain/build-gcc-newlib-stage2/riscv64-unknown-elf/rv32imac/ilp32/libgcc/../../../../../riscv-gcc/libgcc/libgcc2.c:1196
200168d6:	0107d733          	srl	a4,a5,a6
/scratch/carsteng/freedom-tools-master/obj/x86_64-w64-mingw32/build/riscv-gnu-toolchain/build-gcc-newlib-stage2/riscv64-unknown-elf/rv32imac/ilp32/libgcc/../../../../../riscv-gcc/libgcc/libgcc2.c:1200
200168da:	03d778b3          	remu	a7,a4,t4
/scratch/carsteng/freedom-tools-master/obj/x86_64-w64-mingw32/build/riscv-gnu-toolchain/build-gcc-newlib-stage2/riscv64-unknown-elf/rv32imac/ilp32/libgcc/../../../../../riscv-gcc/libgcc/libgcc2.c:1197
200168de:	00b797b3          	sll	a5,a5,a1
200168e2:	01055833          	srl	a6,a0,a6
200168e6:	00f86333          	or	t1,a6,a5
/scratch/carsteng/freedom-tools-master/obj/x86_64-w64-mingw32/build/riscv-gnu-toolchain/build-gcc-newlib-stage2/riscv64-unknown-elf/rv32imac/ilp32/libgcc/../../../../../riscv-gcc/libgcc/libgcc2.c:1200
200168ea:	01069793          	slli	a5,a3,0x10
200168ee:	83c1                	srli	a5,a5,0x10
200168f0:	01035813          	srli	a6,t1,0x10
/scratch/carsteng/freedom-tools-master/obj/x86_64-w64-mingw32/build/riscv-gnu-toolchain/build-gcc-newlib-stage2/riscv64-unknown-elf/rv32imac/ilp32/libgcc/../../../../../riscv-gcc/libgcc/libgcc2.c:1195
200168f4:	00b61633          	sll	a2,a2,a1
/scratch/carsteng/freedom-tools-master/obj/x86_64-w64-mingw32/build/riscv-gnu-toolchain/build-gcc-newlib-stage2/riscv64-unknown-elf/rv32imac/ilp32/libgcc/../../../../../riscv-gcc/libgcc/libgcc2.c:1200
200168f8:	03d75733          	divu	a4,a4,t4
200168fc:	08c2                	slli	a7,a7,0x10
200168fe:	0108e833          	or	a6,a7,a6
20016902:	02e78f33          	mul	t5,a5,a4
20016906:	8e3a                	mv	t3,a4
20016908:	01e87c63          	bgeu	a6,t5,20016920 <__udivdi3+0x2bc>
2001690c:	9836                	add	a6,a6,a3
2001690e:	fff70e13          	addi	t3,a4,-1 # ffff <__heap_size+0xf7ff>
20016912:	00d86763          	bltu	a6,a3,20016920 <__udivdi3+0x2bc>
20016916:	01e87563          	bgeu	a6,t5,20016920 <__udivdi3+0x2bc>
2001691a:	ffe70e13          	addi	t3,a4,-2
2001691e:	9836                	add	a6,a6,a3
20016920:	41e80833          	sub	a6,a6,t5
20016924:	03d878b3          	remu	a7,a6,t4
20016928:	03d85833          	divu	a6,a6,t4
2001692c:	08c2                	slli	a7,a7,0x10
2001692e:	03078eb3          	mul	t4,a5,a6
20016932:	01031793          	slli	a5,t1,0x10
20016936:	83c1                	srli	a5,a5,0x10
20016938:	00f8e7b3          	or	a5,a7,a5
2001693c:	8742                	mv	a4,a6
2001693e:	01d7fc63          	bgeu	a5,t4,20016956 <__udivdi3+0x2f2>
20016942:	97b6                	add	a5,a5,a3
20016944:	fff80713          	addi	a4,a6,-1
20016948:	00d7e763          	bltu	a5,a3,20016956 <__udivdi3+0x2f2>
2001694c:	01d7f563          	bgeu	a5,t4,20016956 <__udivdi3+0x2f2>
20016950:	ffe80713          	addi	a4,a6,-2
20016954:	97b6                	add	a5,a5,a3
20016956:	0e42                	slli	t3,t3,0x10
20016958:	41d787b3          	sub	a5,a5,t4
/scratch/carsteng/freedom-tools-master/obj/x86_64-w64-mingw32/build/riscv-gnu-toolchain/build-gcc-newlib-stage2/riscv64-unknown-elf/rv32imac/ilp32/libgcc/../../../../../riscv-gcc/libgcc/libgcc2.c:1201
2001695c:	6ec1                	lui	t4,0x10
/scratch/carsteng/freedom-tools-master/obj/x86_64-w64-mingw32/build/riscv-gnu-toolchain/build-gcc-newlib-stage2/riscv64-unknown-elf/rv32imac/ilp32/libgcc/../../../../../riscv-gcc/libgcc/libgcc2.c:1200
2001695e:	00ee6733          	or	a4,t3,a4
/scratch/carsteng/freedom-tools-master/obj/x86_64-w64-mingw32/build/riscv-gnu-toolchain/build-gcc-newlib-stage2/riscv64-unknown-elf/rv32imac/ilp32/libgcc/../../../../../riscv-gcc/libgcc/libgcc2.c:1201
20016962:	fffe8813          	addi	a6,t4,-1 # ffff <__heap_size+0xf7ff>
20016966:	01077333          	and	t1,a4,a6
2001696a:	01075893          	srli	a7,a4,0x10
2001696e:	01067833          	and	a6,a2,a6
20016972:	8241                	srli	a2,a2,0x10
20016974:	03030e33          	mul	t3,t1,a6
20016978:	03088833          	mul	a6,a7,a6
2001697c:	010e5693          	srli	a3,t3,0x10
20016980:	02c30333          	mul	t1,t1,a2
20016984:	9342                	add	t1,t1,a6
20016986:	969a                	add	a3,a3,t1
20016988:	02c888b3          	mul	a7,a7,a2
2001698c:	0106f363          	bgeu	a3,a6,20016992 <__udivdi3+0x32e>
20016990:	98f6                	add	a7,a7,t4
20016992:	0106d613          	srli	a2,a3,0x10
20016996:	98b2                	add	a7,a7,a2
/scratch/carsteng/freedom-tools-master/obj/x86_64-w64-mingw32/build/riscv-gnu-toolchain/build-gcc-newlib-stage2/riscv64-unknown-elf/rv32imac/ilp32/libgcc/../../../../../riscv-gcc/libgcc/libgcc2.c:1203
20016998:	0317e063          	bltu	a5,a7,200169b8 <__udivdi3+0x354>
2001699c:	d91793e3          	bne	a5,a7,20016722 <__udivdi3+0xbe>
/scratch/carsteng/freedom-tools-master/obj/x86_64-w64-mingw32/build/riscv-gnu-toolchain/build-gcc-newlib-stage2/riscv64-unknown-elf/rv32imac/ilp32/libgcc/../../../../../riscv-gcc/libgcc/libgcc2.c:1201
200169a0:	67c1                	lui	a5,0x10
200169a2:	17fd                	addi	a5,a5,-1
200169a4:	8efd                	and	a3,a3,a5
200169a6:	06c2                	slli	a3,a3,0x10
200169a8:	00fe7e33          	and	t3,t3,a5
/scratch/carsteng/freedom-tools-master/obj/x86_64-w64-mingw32/build/riscv-gnu-toolchain/build-gcc-newlib-stage2/riscv64-unknown-elf/rv32imac/ilp32/libgcc/../../../../../riscv-gcc/libgcc/libgcc2.c:1198
200169ac:	00b51533          	sll	a0,a0,a1
/scratch/carsteng/freedom-tools-master/obj/x86_64-w64-mingw32/build/riscv-gnu-toolchain/build-gcc-newlib-stage2/riscv64-unknown-elf/rv32imac/ilp32/libgcc/../../../../../riscv-gcc/libgcc/libgcc2.c:1201
200169b0:	96f2                	add	a3,a3,t3
/scratch/carsteng/freedom-tools-master/obj/x86_64-w64-mingw32/build/riscv-gnu-toolchain/build-gcc-newlib-stage2/riscv64-unknown-elf/rv32imac/ilp32/libgcc/../../../../../riscv-gcc/libgcc/libgcc2.c:1209
200169b2:	4581                	li	a1,0
/scratch/carsteng/freedom-tools-master/obj/x86_64-w64-mingw32/build/riscv-gnu-toolchain/build-gcc-newlib-stage2/riscv64-unknown-elf/rv32imac/ilp32/libgcc/../../../../../riscv-gcc/libgcc/libgcc2.c:1203
200169b4:	e2d571e3          	bgeu	a0,a3,200167d6 <__udivdi3+0x172>
/scratch/carsteng/freedom-tools-master/obj/x86_64-w64-mingw32/build/riscv-gnu-toolchain/build-gcc-newlib-stage2/riscv64-unknown-elf/rv32imac/ilp32/libgcc/../../../../../riscv-gcc/libgcc/libgcc2.c:1205
200169b8:	177d                	addi	a4,a4,-1
/scratch/carsteng/freedom-tools-master/obj/x86_64-w64-mingw32/build/riscv-gnu-toolchain/build-gcc-newlib-stage2/riscv64-unknown-elf/rv32imac/ilp32/libgcc/../../../../../riscv-gcc/libgcc/libgcc2.c:1206
200169ba:	b3a5                	j	20016722 <__udivdi3+0xbe>
/scratch/carsteng/freedom-tools-master/obj/x86_64-w64-mingw32/build/riscv-gnu-toolchain/build-gcc-newlib-stage2/riscv64-unknown-elf/rv32imac/ilp32/libgcc/../../../../../riscv-gcc/libgcc/libgcc2.c:1145
200169bc:	4581                	li	a1,0
/scratch/carsteng/freedom-tools-master/obj/x86_64-w64-mingw32/build/riscv-gnu-toolchain/build-gcc-newlib-stage2/riscv64-unknown-elf/rv32imac/ilp32/libgcc/../../../../../riscv-gcc/libgcc/libgcc2.c:1144
200169be:	4701                	li	a4,0
200169c0:	bd19                	j	200167d6 <__udivdi3+0x172>

200169c2 <__umoddi3>:
__udivmoddi4():
/scratch/carsteng/freedom-tools-master/obj/x86_64-w64-mingw32/build/riscv-gnu-toolchain/build-gcc-newlib-stage2/riscv64-unknown-elf/rv32imac/ilp32/libgcc/../../../../../riscv-gcc/libgcc/libgcc2.c:1024
200169c2:	88b2                	mv	a7,a2
/scratch/carsteng/freedom-tools-master/obj/x86_64-w64-mingw32/build/riscv-gnu-toolchain/build-gcc-newlib-stage2/riscv64-unknown-elf/rv32imac/ilp32/libgcc/../../../../../riscv-gcc/libgcc/libgcc2.c:1025
200169c4:	8736                	mv	a4,a3
/scratch/carsteng/freedom-tools-master/obj/x86_64-w64-mingw32/build/riscv-gnu-toolchain/build-gcc-newlib-stage2/riscv64-unknown-elf/rv32imac/ilp32/libgcc/../../../../../riscv-gcc/libgcc/libgcc2.c:1026
200169c6:	87aa                	mv	a5,a0
/scratch/carsteng/freedom-tools-master/obj/x86_64-w64-mingw32/build/riscv-gnu-toolchain/build-gcc-newlib-stage2/riscv64-unknown-elf/rv32imac/ilp32/libgcc/../../../../../riscv-gcc/libgcc/libgcc2.c:1027
200169c8:	882e                	mv	a6,a1
/scratch/carsteng/freedom-tools-master/obj/x86_64-w64-mingw32/build/riscv-gnu-toolchain/build-gcc-newlib-stage2/riscv64-unknown-elf/rv32imac/ilp32/libgcc/../../../../../riscv-gcc/libgcc/libgcc2.c:1064
200169ca:	1c069863          	bnez	a3,20016b9a <__umoddi3+0x1d8>
/scratch/carsteng/freedom-tools-master/obj/x86_64-w64-mingw32/build/riscv-gnu-toolchain/build-gcc-newlib-stage2/riscv64-unknown-elf/rv32imac/ilp32/libgcc/../../../../../riscv-gcc/libgcc/libgcc2.c:1066
200169ce:	00001697          	auipc	a3,0x1
200169d2:	1ea68693          	addi	a3,a3,490 # 20017bb8 <__clz_tab>
200169d6:	0ac5f863          	bgeu	a1,a2,20016a86 <__umoddi3+0xc4>
/scratch/carsteng/freedom-tools-master/obj/x86_64-w64-mingw32/build/riscv-gnu-toolchain/build-gcc-newlib-stage2/riscv64-unknown-elf/rv32imac/ilp32/libgcc/../../../../../riscv-gcc/libgcc/libgcc2.c:1070
200169da:	6341                	lui	t1,0x10
200169dc:	08667e63          	bgeu	a2,t1,20016a78 <__umoddi3+0xb6>
200169e0:	0ff00313          	li	t1,255
200169e4:	00c37363          	bgeu	t1,a2,200169ea <__umoddi3+0x28>
200169e8:	4721                	li	a4,8
200169ea:	00e65333          	srl	t1,a2,a4
200169ee:	969a                	add	a3,a3,t1
200169f0:	0006ce03          	lbu	t3,0(a3)
200169f4:	02000313          	li	t1,32
200169f8:	9e3a                	add	t3,t3,a4
200169fa:	41c30333          	sub	t1,t1,t3
/scratch/carsteng/freedom-tools-master/obj/x86_64-w64-mingw32/build/riscv-gnu-toolchain/build-gcc-newlib-stage2/riscv64-unknown-elf/rv32imac/ilp32/libgcc/../../../../../riscv-gcc/libgcc/libgcc2.c:1072
200169fe:	00030c63          	beqz	t1,20016a16 <__umoddi3+0x54>
/scratch/carsteng/freedom-tools-master/obj/x86_64-w64-mingw32/build/riscv-gnu-toolchain/build-gcc-newlib-stage2/riscv64-unknown-elf/rv32imac/ilp32/libgcc/../../../../../riscv-gcc/libgcc/libgcc2.c:1078
20016a02:	006595b3          	sll	a1,a1,t1
20016a06:	01c55e33          	srl	t3,a0,t3
/scratch/carsteng/freedom-tools-master/obj/x86_64-w64-mingw32/build/riscv-gnu-toolchain/build-gcc-newlib-stage2/riscv64-unknown-elf/rv32imac/ilp32/libgcc/../../../../../riscv-gcc/libgcc/libgcc2.c:1077
20016a0a:	006618b3          	sll	a7,a2,t1
/scratch/carsteng/freedom-tools-master/obj/x86_64-w64-mingw32/build/riscv-gnu-toolchain/build-gcc-newlib-stage2/riscv64-unknown-elf/rv32imac/ilp32/libgcc/../../../../../riscv-gcc/libgcc/libgcc2.c:1078
20016a0e:	00be6833          	or	a6,t3,a1
/scratch/carsteng/freedom-tools-master/obj/x86_64-w64-mingw32/build/riscv-gnu-toolchain/build-gcc-newlib-stage2/riscv64-unknown-elf/rv32imac/ilp32/libgcc/../../../../../riscv-gcc/libgcc/libgcc2.c:1079
20016a12:	006517b3          	sll	a5,a0,t1
/scratch/carsteng/freedom-tools-master/obj/x86_64-w64-mingw32/build/riscv-gnu-toolchain/build-gcc-newlib-stage2/riscv64-unknown-elf/rv32imac/ilp32/libgcc/../../../../../riscv-gcc/libgcc/libgcc2.c:1082
20016a16:	0108d613          	srli	a2,a7,0x10
20016a1a:	02c87733          	remu	a4,a6,a2
20016a1e:	01089513          	slli	a0,a7,0x10
20016a22:	8141                	srli	a0,a0,0x10
20016a24:	0107d693          	srli	a3,a5,0x10
20016a28:	02c85833          	divu	a6,a6,a2
20016a2c:	0742                	slli	a4,a4,0x10
20016a2e:	8ed9                	or	a3,a3,a4
20016a30:	03050833          	mul	a6,a0,a6
20016a34:	0106f863          	bgeu	a3,a6,20016a44 <__umoddi3+0x82>
20016a38:	96c6                	add	a3,a3,a7
20016a3a:	0116e563          	bltu	a3,a7,20016a44 <__umoddi3+0x82>
20016a3e:	0106f363          	bgeu	a3,a6,20016a44 <__umoddi3+0x82>
20016a42:	96c6                	add	a3,a3,a7
20016a44:	410686b3          	sub	a3,a3,a6
20016a48:	02c6f733          	remu	a4,a3,a2
20016a4c:	07c2                	slli	a5,a5,0x10
20016a4e:	83c1                	srli	a5,a5,0x10
20016a50:	02c6d6b3          	divu	a3,a3,a2
20016a54:	02d506b3          	mul	a3,a0,a3
20016a58:	01071513          	slli	a0,a4,0x10
20016a5c:	8fc9                	or	a5,a5,a0
20016a5e:	00d7f863          	bgeu	a5,a3,20016a6e <__umoddi3+0xac>
20016a62:	97c6                	add	a5,a5,a7
20016a64:	0117e563          	bltu	a5,a7,20016a6e <__umoddi3+0xac>
20016a68:	00d7f363          	bgeu	a5,a3,20016a6e <__umoddi3+0xac>
20016a6c:	97c6                	add	a5,a5,a7
20016a6e:	8f95                	sub	a5,a5,a3
/scratch/carsteng/freedom-tools-master/obj/x86_64-w64-mingw32/build/riscv-gnu-toolchain/build-gcc-newlib-stage2/riscv64-unknown-elf/rv32imac/ilp32/libgcc/../../../../../riscv-gcc/libgcc/libgcc2.c:1131
20016a70:	0067d533          	srl	a0,a5,t1
/scratch/carsteng/freedom-tools-master/obj/x86_64-w64-mingw32/build/riscv-gnu-toolchain/build-gcc-newlib-stage2/riscv64-unknown-elf/rv32imac/ilp32/libgcc/../../../../../riscv-gcc/libgcc/libgcc2.c:1133
20016a74:	4581                	li	a1,0
__umoddi3():
/scratch/carsteng/freedom-tools-master/obj/x86_64-w64-mingw32/build/riscv-gnu-toolchain/build-gcc-newlib-stage2/riscv64-unknown-elf/rv32imac/ilp32/libgcc/../../../../../riscv-gcc/libgcc/libgcc2.c:1313
20016a76:	8082                	ret
__udivmoddi4():
/scratch/carsteng/freedom-tools-master/obj/x86_64-w64-mingw32/build/riscv-gnu-toolchain/build-gcc-newlib-stage2/riscv64-unknown-elf/rv32imac/ilp32/libgcc/../../../../../riscv-gcc/libgcc/libgcc2.c:1070
20016a78:	01000337          	lui	t1,0x1000
20016a7c:	4741                	li	a4,16
20016a7e:	f66666e3          	bltu	a2,t1,200169ea <__umoddi3+0x28>
20016a82:	4761                	li	a4,24
20016a84:	b79d                	j	200169ea <__umoddi3+0x28>
/scratch/carsteng/freedom-tools-master/obj/x86_64-w64-mingw32/build/riscv-gnu-toolchain/build-gcc-newlib-stage2/riscv64-unknown-elf/rv32imac/ilp32/libgcc/../../../../../riscv-gcc/libgcc/libgcc2.c:1091
20016a86:	e601                	bnez	a2,20016a8e <__umoddi3+0xcc>
/scratch/carsteng/freedom-tools-master/obj/x86_64-w64-mingw32/build/riscv-gnu-toolchain/build-gcc-newlib-stage2/riscv64-unknown-elf/rv32imac/ilp32/libgcc/../../../../../riscv-gcc/libgcc/libgcc2.c:1092
20016a88:	4605                	li	a2,1
20016a8a:	031658b3          	divu	a7,a2,a7
/scratch/carsteng/freedom-tools-master/obj/x86_64-w64-mingw32/build/riscv-gnu-toolchain/build-gcc-newlib-stage2/riscv64-unknown-elf/rv32imac/ilp32/libgcc/../../../../../riscv-gcc/libgcc/libgcc2.c:1094
20016a8e:	6641                	lui	a2,0x10
20016a90:	08c8f363          	bgeu	a7,a2,20016b16 <__umoddi3+0x154>
20016a94:	0ff00613          	li	a2,255
20016a98:	01167363          	bgeu	a2,a7,20016a9e <__umoddi3+0xdc>
20016a9c:	4721                	li	a4,8
20016a9e:	00e8d633          	srl	a2,a7,a4
20016aa2:	96b2                	add	a3,a3,a2
20016aa4:	0006ce03          	lbu	t3,0(a3)
20016aa8:	02000313          	li	t1,32
20016aac:	9e3a                	add	t3,t3,a4
20016aae:	41c30333          	sub	t1,t1,t3
/scratch/carsteng/freedom-tools-master/obj/x86_64-w64-mingw32/build/riscv-gnu-toolchain/build-gcc-newlib-stage2/riscv64-unknown-elf/rv32imac/ilp32/libgcc/../../../../../riscv-gcc/libgcc/libgcc2.c:1096
20016ab2:	06031963          	bnez	t1,20016b24 <__umoddi3+0x162>
/scratch/carsteng/freedom-tools-master/obj/x86_64-w64-mingw32/build/riscv-gnu-toolchain/build-gcc-newlib-stage2/riscv64-unknown-elf/rv32imac/ilp32/libgcc/../../../../../riscv-gcc/libgcc/libgcc2.c:1105
20016ab6:	411585b3          	sub	a1,a1,a7
/scratch/carsteng/freedom-tools-master/obj/x86_64-w64-mingw32/build/riscv-gnu-toolchain/build-gcc-newlib-stage2/riscv64-unknown-elf/rv32imac/ilp32/libgcc/../../../../../riscv-gcc/libgcc/libgcc2.c:1124
20016aba:	0108d713          	srli	a4,a7,0x10
20016abe:	01089513          	slli	a0,a7,0x10
20016ac2:	8141                	srli	a0,a0,0x10
20016ac4:	0107d613          	srli	a2,a5,0x10
20016ac8:	02e5f6b3          	remu	a3,a1,a4
20016acc:	02e5d5b3          	divu	a1,a1,a4
20016ad0:	06c2                	slli	a3,a3,0x10
20016ad2:	8ed1                	or	a3,a3,a2
20016ad4:	02b505b3          	mul	a1,a0,a1
20016ad8:	00b6f863          	bgeu	a3,a1,20016ae8 <__umoddi3+0x126>
20016adc:	96c6                	add	a3,a3,a7
20016ade:	0116e563          	bltu	a3,a7,20016ae8 <__umoddi3+0x126>
20016ae2:	00b6f363          	bgeu	a3,a1,20016ae8 <__umoddi3+0x126>
20016ae6:	96c6                	add	a3,a3,a7
20016ae8:	40b685b3          	sub	a1,a3,a1
20016aec:	02e5f6b3          	remu	a3,a1,a4
20016af0:	07c2                	slli	a5,a5,0x10
20016af2:	83c1                	srli	a5,a5,0x10
20016af4:	02e5d5b3          	divu	a1,a1,a4
20016af8:	02b505b3          	mul	a1,a0,a1
20016afc:	01069513          	slli	a0,a3,0x10
20016b00:	8fc9                	or	a5,a5,a0
20016b02:	00b7f863          	bgeu	a5,a1,20016b12 <__umoddi3+0x150>
20016b06:	97c6                	add	a5,a5,a7
20016b08:	0117e563          	bltu	a5,a7,20016b12 <__umoddi3+0x150>
20016b0c:	00b7f363          	bgeu	a5,a1,20016b12 <__umoddi3+0x150>
20016b10:	97c6                	add	a5,a5,a7
20016b12:	8f8d                	sub	a5,a5,a1
20016b14:	bfb1                	j	20016a70 <__umoddi3+0xae>
/scratch/carsteng/freedom-tools-master/obj/x86_64-w64-mingw32/build/riscv-gnu-toolchain/build-gcc-newlib-stage2/riscv64-unknown-elf/rv32imac/ilp32/libgcc/../../../../../riscv-gcc/libgcc/libgcc2.c:1094
20016b16:	01000637          	lui	a2,0x1000
20016b1a:	4741                	li	a4,16
20016b1c:	f8c8e1e3          	bltu	a7,a2,20016a9e <__umoddi3+0xdc>
20016b20:	4761                	li	a4,24
20016b22:	bfb5                	j	20016a9e <__umoddi3+0xdc>
/scratch/carsteng/freedom-tools-master/obj/x86_64-w64-mingw32/build/riscv-gnu-toolchain/build-gcc-newlib-stage2/riscv64-unknown-elf/rv32imac/ilp32/libgcc/../../../../../riscv-gcc/libgcc/libgcc2.c:1114
20016b24:	006898b3          	sll	a7,a7,t1
/scratch/carsteng/freedom-tools-master/obj/x86_64-w64-mingw32/build/riscv-gnu-toolchain/build-gcc-newlib-stage2/riscv64-unknown-elf/rv32imac/ilp32/libgcc/../../../../../riscv-gcc/libgcc/libgcc2.c:1115
20016b28:	01c5d733          	srl	a4,a1,t3
/scratch/carsteng/freedom-tools-master/obj/x86_64-w64-mingw32/build/riscv-gnu-toolchain/build-gcc-newlib-stage2/riscv64-unknown-elf/rv32imac/ilp32/libgcc/../../../../../riscv-gcc/libgcc/libgcc2.c:1117
20016b2c:	006517b3          	sll	a5,a0,t1
/scratch/carsteng/freedom-tools-master/obj/x86_64-w64-mingw32/build/riscv-gnu-toolchain/build-gcc-newlib-stage2/riscv64-unknown-elf/rv32imac/ilp32/libgcc/../../../../../riscv-gcc/libgcc/libgcc2.c:1116
20016b30:	01c55e33          	srl	t3,a0,t3
/scratch/carsteng/freedom-tools-master/obj/x86_64-w64-mingw32/build/riscv-gnu-toolchain/build-gcc-newlib-stage2/riscv64-unknown-elf/rv32imac/ilp32/libgcc/../../../../../riscv-gcc/libgcc/libgcc2.c:1119
20016b34:	0108d513          	srli	a0,a7,0x10
20016b38:	02a776b3          	remu	a3,a4,a0
/scratch/carsteng/freedom-tools-master/obj/x86_64-w64-mingw32/build/riscv-gnu-toolchain/build-gcc-newlib-stage2/riscv64-unknown-elf/rv32imac/ilp32/libgcc/../../../../../riscv-gcc/libgcc/libgcc2.c:1116
20016b3c:	006595b3          	sll	a1,a1,t1
20016b40:	00be6e33          	or	t3,t3,a1
/scratch/carsteng/freedom-tools-master/obj/x86_64-w64-mingw32/build/riscv-gnu-toolchain/build-gcc-newlib-stage2/riscv64-unknown-elf/rv32imac/ilp32/libgcc/../../../../../riscv-gcc/libgcc/libgcc2.c:1119
20016b44:	01089593          	slli	a1,a7,0x10
20016b48:	81c1                	srli	a1,a1,0x10
20016b4a:	010e5613          	srli	a2,t3,0x10
20016b4e:	02a75733          	divu	a4,a4,a0
20016b52:	06c2                	slli	a3,a3,0x10
20016b54:	8ed1                	or	a3,a3,a2
20016b56:	02e58733          	mul	a4,a1,a4
20016b5a:	00e6f863          	bgeu	a3,a4,20016b6a <__umoddi3+0x1a8>
20016b5e:	96c6                	add	a3,a3,a7
20016b60:	0116e563          	bltu	a3,a7,20016b6a <__umoddi3+0x1a8>
20016b64:	00e6f363          	bgeu	a3,a4,20016b6a <__umoddi3+0x1a8>
20016b68:	96c6                	add	a3,a3,a7
20016b6a:	40e68633          	sub	a2,a3,a4
20016b6e:	02a676b3          	remu	a3,a2,a0
20016b72:	0e42                	slli	t3,t3,0x10
20016b74:	010e5e13          	srli	t3,t3,0x10
20016b78:	02a65633          	divu	a2,a2,a0
20016b7c:	06c2                	slli	a3,a3,0x10
20016b7e:	02c58633          	mul	a2,a1,a2
20016b82:	01c6e5b3          	or	a1,a3,t3
20016b86:	00c5f863          	bgeu	a1,a2,20016b96 <__umoddi3+0x1d4>
20016b8a:	95c6                	add	a1,a1,a7
20016b8c:	0115e563          	bltu	a1,a7,20016b96 <__umoddi3+0x1d4>
20016b90:	00c5f363          	bgeu	a1,a2,20016b96 <__umoddi3+0x1d4>
20016b94:	95c6                	add	a1,a1,a7
20016b96:	8d91                	sub	a1,a1,a2
20016b98:	b70d                	j	20016aba <__umoddi3+0xf8>
/scratch/carsteng/freedom-tools-master/obj/x86_64-w64-mingw32/build/riscv-gnu-toolchain/build-gcc-newlib-stage2/riscv64-unknown-elf/rv32imac/ilp32/libgcc/../../../../../riscv-gcc/libgcc/libgcc2.c:1140
20016b9a:	ecd5eee3          	bltu	a1,a3,20016a76 <__umoddi3+0xb4>
/scratch/carsteng/freedom-tools-master/obj/x86_64-w64-mingw32/build/riscv-gnu-toolchain/build-gcc-newlib-stage2/riscv64-unknown-elf/rv32imac/ilp32/libgcc/../../../../../riscv-gcc/libgcc/libgcc2.c:1159
20016b9e:	6741                	lui	a4,0x10
20016ba0:	04e6f563          	bgeu	a3,a4,20016bea <__umoddi3+0x228>
20016ba4:	0ff00e93          	li	t4,255
20016ba8:	00deb733          	sltu	a4,t4,a3
20016bac:	070e                	slli	a4,a4,0x3
20016bae:	00e6d333          	srl	t1,a3,a4
20016bb2:	00001897          	auipc	a7,0x1
20016bb6:	00688893          	addi	a7,a7,6 # 20017bb8 <__clz_tab>
20016bba:	989a                	add	a7,a7,t1
20016bbc:	0008ce83          	lbu	t4,0(a7)
20016bc0:	02000e13          	li	t3,32
20016bc4:	9eba                	add	t4,t4,a4
20016bc6:	41de0e33          	sub	t3,t3,t4
/scratch/carsteng/freedom-tools-master/obj/x86_64-w64-mingw32/build/riscv-gnu-toolchain/build-gcc-newlib-stage2/riscv64-unknown-elf/rv32imac/ilp32/libgcc/../../../../../riscv-gcc/libgcc/libgcc2.c:1160
20016bca:	020e1763          	bnez	t3,20016bf8 <__umoddi3+0x236>
/scratch/carsteng/freedom-tools-master/obj/x86_64-w64-mingw32/build/riscv-gnu-toolchain/build-gcc-newlib-stage2/riscv64-unknown-elf/rv32imac/ilp32/libgcc/../../../../../riscv-gcc/libgcc/libgcc2.c:1170
20016bce:	00b6e463          	bltu	a3,a1,20016bd6 <__umoddi3+0x214>
20016bd2:	00c56963          	bltu	a0,a2,20016be4 <__umoddi3+0x222>
/scratch/carsteng/freedom-tools-master/obj/x86_64-w64-mingw32/build/riscv-gnu-toolchain/build-gcc-newlib-stage2/riscv64-unknown-elf/rv32imac/ilp32/libgcc/../../../../../riscv-gcc/libgcc/libgcc2.c:1173
20016bd6:	40c507b3          	sub	a5,a0,a2
20016bda:	8d95                	sub	a1,a1,a3
20016bdc:	00f53533          	sltu	a0,a0,a5
20016be0:	40a58833          	sub	a6,a1,a0
/scratch/carsteng/freedom-tools-master/obj/x86_64-w64-mingw32/build/riscv-gnu-toolchain/build-gcc-newlib-stage2/riscv64-unknown-elf/rv32imac/ilp32/libgcc/../../../../../riscv-gcc/libgcc/libgcc2.c:1184
20016be4:	853e                	mv	a0,a5
20016be6:	85c2                	mv	a1,a6
20016be8:	b579                	j	20016a76 <__umoddi3+0xb4>
/scratch/carsteng/freedom-tools-master/obj/x86_64-w64-mingw32/build/riscv-gnu-toolchain/build-gcc-newlib-stage2/riscv64-unknown-elf/rv32imac/ilp32/libgcc/../../../../../riscv-gcc/libgcc/libgcc2.c:1159
20016bea:	010008b7          	lui	a7,0x1000
20016bee:	4741                	li	a4,16
20016bf0:	fb16efe3          	bltu	a3,a7,20016bae <__umoddi3+0x1ec>
20016bf4:	4761                	li	a4,24
20016bf6:	bf65                	j	20016bae <__umoddi3+0x1ec>
/scratch/carsteng/freedom-tools-master/obj/x86_64-w64-mingw32/build/riscv-gnu-toolchain/build-gcc-newlib-stage2/riscv64-unknown-elf/rv32imac/ilp32/libgcc/../../../../../riscv-gcc/libgcc/libgcc2.c:1194
20016bf8:	01d65733          	srl	a4,a2,t4
20016bfc:	01c696b3          	sll	a3,a3,t3
20016c00:	8ed9                	or	a3,a3,a4
/scratch/carsteng/freedom-tools-master/obj/x86_64-w64-mingw32/build/riscv-gnu-toolchain/build-gcc-newlib-stage2/riscv64-unknown-elf/rv32imac/ilp32/libgcc/../../../../../riscv-gcc/libgcc/libgcc2.c:1200
20016c02:	0106d813          	srli	a6,a3,0x10
/scratch/carsteng/freedom-tools-master/obj/x86_64-w64-mingw32/build/riscv-gnu-toolchain/build-gcc-newlib-stage2/riscv64-unknown-elf/rv32imac/ilp32/libgcc/../../../../../riscv-gcc/libgcc/libgcc2.c:1196
20016c06:	01d5d733          	srl	a4,a1,t4
/scratch/carsteng/freedom-tools-master/obj/x86_64-w64-mingw32/build/riscv-gnu-toolchain/build-gcc-newlib-stage2/riscv64-unknown-elf/rv32imac/ilp32/libgcc/../../../../../riscv-gcc/libgcc/libgcc2.c:1200
20016c0a:	03077333          	remu	t1,a4,a6
/scratch/carsteng/freedom-tools-master/obj/x86_64-w64-mingw32/build/riscv-gnu-toolchain/build-gcc-newlib-stage2/riscv64-unknown-elf/rv32imac/ilp32/libgcc/../../../../../riscv-gcc/libgcc/libgcc2.c:1197
20016c0e:	01c595b3          	sll	a1,a1,t3
20016c12:	01d557b3          	srl	a5,a0,t4
20016c16:	8fcd                	or	a5,a5,a1
/scratch/carsteng/freedom-tools-master/obj/x86_64-w64-mingw32/build/riscv-gnu-toolchain/build-gcc-newlib-stage2/riscv64-unknown-elf/rv32imac/ilp32/libgcc/../../../../../riscv-gcc/libgcc/libgcc2.c:1200
20016c18:	01069593          	slli	a1,a3,0x10
20016c1c:	81c1                	srli	a1,a1,0x10
20016c1e:	0107d893          	srli	a7,a5,0x10
/scratch/carsteng/freedom-tools-master/obj/x86_64-w64-mingw32/build/riscv-gnu-toolchain/build-gcc-newlib-stage2/riscv64-unknown-elf/rv32imac/ilp32/libgcc/../../../../../riscv-gcc/libgcc/libgcc2.c:1195
20016c22:	01c61633          	sll	a2,a2,t3
/scratch/carsteng/freedom-tools-master/obj/x86_64-w64-mingw32/build/riscv-gnu-toolchain/build-gcc-newlib-stage2/riscv64-unknown-elf/rv32imac/ilp32/libgcc/../../../../../riscv-gcc/libgcc/libgcc2.c:1198
20016c26:	01c51533          	sll	a0,a0,t3
/scratch/carsteng/freedom-tools-master/obj/x86_64-w64-mingw32/build/riscv-gnu-toolchain/build-gcc-newlib-stage2/riscv64-unknown-elf/rv32imac/ilp32/libgcc/../../../../../riscv-gcc/libgcc/libgcc2.c:1200
20016c2a:	03075733          	divu	a4,a4,a6
20016c2e:	0342                	slli	t1,t1,0x10
20016c30:	011368b3          	or	a7,t1,a7
20016c34:	02e58f33          	mul	t5,a1,a4
20016c38:	833a                	mv	t1,a4
20016c3a:	01e8fc63          	bgeu	a7,t5,20016c52 <__umoddi3+0x290>
20016c3e:	98b6                	add	a7,a7,a3
20016c40:	fff70313          	addi	t1,a4,-1 # ffff <__heap_size+0xf7ff>
20016c44:	00d8e763          	bltu	a7,a3,20016c52 <__umoddi3+0x290>
20016c48:	01e8f563          	bgeu	a7,t5,20016c52 <__umoddi3+0x290>
20016c4c:	ffe70313          	addi	t1,a4,-2
20016c50:	98b6                	add	a7,a7,a3
20016c52:	41e888b3          	sub	a7,a7,t5
20016c56:	0308ff33          	remu	t5,a7,a6
20016c5a:	0308d8b3          	divu	a7,a7,a6
20016c5e:	0f42                	slli	t5,t5,0x10
20016c60:	03158833          	mul	a6,a1,a7
20016c64:	01079593          	slli	a1,a5,0x10
20016c68:	81c1                	srli	a1,a1,0x10
20016c6a:	00bf65b3          	or	a1,t5,a1
20016c6e:	87c6                	mv	a5,a7
20016c70:	0105fc63          	bgeu	a1,a6,20016c88 <__umoddi3+0x2c6>
20016c74:	95b6                	add	a1,a1,a3
20016c76:	fff88793          	addi	a5,a7,-1 # ffffff <__heap_size+0xfff7ff>
20016c7a:	00d5e763          	bltu	a1,a3,20016c88 <__umoddi3+0x2c6>
20016c7e:	0105f563          	bgeu	a1,a6,20016c88 <__umoddi3+0x2c6>
20016c82:	ffe88793          	addi	a5,a7,-2
20016c86:	95b6                	add	a1,a1,a3
20016c88:	0342                	slli	t1,t1,0x10
/scratch/carsteng/freedom-tools-master/obj/x86_64-w64-mingw32/build/riscv-gnu-toolchain/build-gcc-newlib-stage2/riscv64-unknown-elf/rv32imac/ilp32/libgcc/../../../../../riscv-gcc/libgcc/libgcc2.c:1201
20016c8a:	6f41                	lui	t5,0x10
/scratch/carsteng/freedom-tools-master/obj/x86_64-w64-mingw32/build/riscv-gnu-toolchain/build-gcc-newlib-stage2/riscv64-unknown-elf/rv32imac/ilp32/libgcc/../../../../../riscv-gcc/libgcc/libgcc2.c:1200
20016c8c:	00f36333          	or	t1,t1,a5
/scratch/carsteng/freedom-tools-master/obj/x86_64-w64-mingw32/build/riscv-gnu-toolchain/build-gcc-newlib-stage2/riscv64-unknown-elf/rv32imac/ilp32/libgcc/../../../../../riscv-gcc/libgcc/libgcc2.c:1201
20016c90:	ffff0793          	addi	a5,t5,-1 # ffff <__heap_size+0xf7ff>
20016c94:	00f378b3          	and	a7,t1,a5
/scratch/carsteng/freedom-tools-master/obj/x86_64-w64-mingw32/build/riscv-gnu-toolchain/build-gcc-newlib-stage2/riscv64-unknown-elf/rv32imac/ilp32/libgcc/../../../../../riscv-gcc/libgcc/libgcc2.c:1200
20016c98:	410585b3          	sub	a1,a1,a6
/scratch/carsteng/freedom-tools-master/obj/x86_64-w64-mingw32/build/riscv-gnu-toolchain/build-gcc-newlib-stage2/riscv64-unknown-elf/rv32imac/ilp32/libgcc/../../../../../riscv-gcc/libgcc/libgcc2.c:1201
20016c9c:	01035313          	srli	t1,t1,0x10
20016ca0:	01065813          	srli	a6,a2,0x10
20016ca4:	8ff1                	and	a5,a5,a2
20016ca6:	02f88733          	mul	a4,a7,a5
20016caa:	02f307b3          	mul	a5,t1,a5
20016cae:	030888b3          	mul	a7,a7,a6
20016cb2:	03030333          	mul	t1,t1,a6
20016cb6:	98be                	add	a7,a7,a5
20016cb8:	01075813          	srli	a6,a4,0x10
20016cbc:	9846                	add	a6,a6,a7
20016cbe:	00f87363          	bgeu	a6,a5,20016cc4 <__umoddi3+0x302>
20016cc2:	937a                	add	t1,t1,t5
20016cc4:	01085793          	srli	a5,a6,0x10
20016cc8:	933e                	add	t1,t1,a5
20016cca:	67c1                	lui	a5,0x10
20016ccc:	17fd                	addi	a5,a5,-1
20016cce:	00f87833          	and	a6,a6,a5
20016cd2:	0842                	slli	a6,a6,0x10
20016cd4:	8f7d                	and	a4,a4,a5
20016cd6:	9742                	add	a4,a4,a6
/scratch/carsteng/freedom-tools-master/obj/x86_64-w64-mingw32/build/riscv-gnu-toolchain/build-gcc-newlib-stage2/riscv64-unknown-elf/rv32imac/ilp32/libgcc/../../../../../riscv-gcc/libgcc/libgcc2.c:1203
20016cd8:	0065e663          	bltu	a1,t1,20016ce4 <__umoddi3+0x322>
20016cdc:	00659c63          	bne	a1,t1,20016cf4 <__umoddi3+0x332>
20016ce0:	00e57a63          	bgeu	a0,a4,20016cf4 <__umoddi3+0x332>
/scratch/carsteng/freedom-tools-master/obj/x86_64-w64-mingw32/build/riscv-gnu-toolchain/build-gcc-newlib-stage2/riscv64-unknown-elf/rv32imac/ilp32/libgcc/../../../../../riscv-gcc/libgcc/libgcc2.c:1206
20016ce4:	40c70633          	sub	a2,a4,a2
20016ce8:	00c73733          	sltu	a4,a4,a2
20016cec:	9736                	add	a4,a4,a3
20016cee:	40e30333          	sub	t1,t1,a4
20016cf2:	8732                	mv	a4,a2
/scratch/carsteng/freedom-tools-master/obj/x86_64-w64-mingw32/build/riscv-gnu-toolchain/build-gcc-newlib-stage2/riscv64-unknown-elf/rv32imac/ilp32/libgcc/../../../../../riscv-gcc/libgcc/libgcc2.c:1214
20016cf4:	40e50733          	sub	a4,a0,a4
20016cf8:	00e53533          	sltu	a0,a0,a4
20016cfc:	406585b3          	sub	a1,a1,t1
20016d00:	8d89                	sub	a1,a1,a0
/scratch/carsteng/freedom-tools-master/obj/x86_64-w64-mingw32/build/riscv-gnu-toolchain/build-gcc-newlib-stage2/riscv64-unknown-elf/rv32imac/ilp32/libgcc/../../../../../riscv-gcc/libgcc/libgcc2.c:1215
20016d02:	01d597b3          	sll	a5,a1,t4
20016d06:	01c75733          	srl	a4,a4,t3
/scratch/carsteng/freedom-tools-master/obj/x86_64-w64-mingw32/build/riscv-gnu-toolchain/build-gcc-newlib-stage2/riscv64-unknown-elf/rv32imac/ilp32/libgcc/../../../../../riscv-gcc/libgcc/libgcc2.c:1217
20016d0a:	00e7e533          	or	a0,a5,a4
20016d0e:	01c5d5b3          	srl	a1,a1,t3
__umoddi3():
/scratch/carsteng/freedom-tools-master/obj/x86_64-w64-mingw32/build/riscv-gnu-toolchain/build-gcc-newlib-stage2/riscv64-unknown-elf/rv32imac/ilp32/libgcc/../../../../../riscv-gcc/libgcc/libgcc2.c:1312
20016d12:	b395                	j	20016a76 <__umoddi3+0xb4>

20016d14 <metal_tty_putc>:
metal_tty_putc():
E:/8.AWS-FreeRTOS-HiFive1/Workspace/sifive-hifive1-revb-i2c/freedom-metal/src/tty.c:12

#if defined(__METAL_DT_STDOUT_UART_HANDLE)
/* This implementation serves as a small shim that interfaces with the first
 * UART on a system. */
int metal_tty_putc(int c)
{
20016d14:	1101                	addi	sp,sp,-32
20016d16:	ce06                	sw	ra,28(sp)
20016d18:	cc22                	sw	s0,24(sp)
20016d1a:	1000                	addi	s0,sp,32
20016d1c:	fea42623          	sw	a0,-20(s0)
E:/8.AWS-FreeRTOS-HiFive1/Workspace/sifive-hifive1-revb-i2c/freedom-metal/src/tty.c:13
    if (c == '\n') {
20016d20:	fec42703          	lw	a4,-20(s0)
20016d24:	47a9                	li	a5,10
20016d26:	00f71463          	bne	a4,a5,20016d2e <metal_tty_putc+0x1a>
E:/8.AWS-FreeRTOS-HiFive1/Workspace/sifive-hifive1-revb-i2c/freedom-metal/src/tty.c:14
        metal_tty_putc_raw( '\r' );
20016d2a:	4535                	li	a0,13
20016d2c:	2811                	jal	20016d40 <metal_tty_putc_raw>
E:/8.AWS-FreeRTOS-HiFive1/Workspace/sifive-hifive1-revb-i2c/freedom-metal/src/tty.c:16
    }
    return metal_tty_putc_raw( c );
20016d2e:	fec42503          	lw	a0,-20(s0)
20016d32:	2039                	jal	20016d40 <metal_tty_putc_raw>
20016d34:	87aa                	mv	a5,a0
E:/8.AWS-FreeRTOS-HiFive1/Workspace/sifive-hifive1-revb-i2c/freedom-metal/src/tty.c:17
}
20016d36:	853e                	mv	a0,a5
20016d38:	40f2                	lw	ra,28(sp)
20016d3a:	4462                	lw	s0,24(sp)
20016d3c:	6105                	addi	sp,sp,32
20016d3e:	8082                	ret

20016d40 <metal_tty_putc_raw>:
metal_tty_putc_raw():
E:/8.AWS-FreeRTOS-HiFive1/Workspace/sifive-hifive1-revb-i2c/freedom-metal/src/tty.c:20

int metal_tty_putc_raw(int c)
{
20016d40:	1101                	addi	sp,sp,-32
20016d42:	ce06                	sw	ra,28(sp)
20016d44:	cc22                	sw	s0,24(sp)
20016d46:	1000                	addi	s0,sp,32
20016d48:	fea42623          	sw	a0,-20(s0)
E:/8.AWS-FreeRTOS-HiFive1/Workspace/sifive-hifive1-revb-i2c/freedom-metal/src/tty.c:21
    return metal_uart_putc(__METAL_DT_STDOUT_UART_HANDLE, c);
20016d4c:	fec42583          	lw	a1,-20(s0)
20016d50:	800017b7          	lui	a5,0x80001
20016d54:	a2078513          	addi	a0,a5,-1504 # 80000a20 <metal_segment_heap_target_end+0xfffff2b0>
20016d58:	9d6ff0ef          	jal	ra,20015f2e <metal_uart_putc>
20016d5c:	87aa                	mv	a5,a0
E:/8.AWS-FreeRTOS-HiFive1/Workspace/sifive-hifive1-revb-i2c/freedom-metal/src/tty.c:22
}
20016d5e:	853e                	mv	a0,a5
20016d60:	40f2                	lw	ra,28(sp)
20016d62:	4462                	lw	s0,24(sp)
20016d64:	6105                	addi	sp,sp,32
20016d66:	8082                	ret

20016d68 <metal_tty_init>:
metal_tty_init():
E:/8.AWS-FreeRTOS-HiFive1/Workspace/sifive-hifive1-revb-i2c/freedom-metal/src/tty.c:40
#define __METAL_DT_STDOUT_UART_BAUD 115200
#endif

static void metal_tty_init(void) __attribute__((constructor));
static void metal_tty_init(void)
{
20016d68:	1141                	addi	sp,sp,-16
20016d6a:	c606                	sw	ra,12(sp)
20016d6c:	c422                	sw	s0,8(sp)
20016d6e:	0800                	addi	s0,sp,16
E:/8.AWS-FreeRTOS-HiFive1/Workspace/sifive-hifive1-revb-i2c/freedom-metal/src/tty.c:41
    metal_uart_init(__METAL_DT_STDOUT_UART_HANDLE, __METAL_DT_STDOUT_UART_BAUD);
20016d70:	67f1                	lui	a5,0x1c
20016d72:	20078593          	addi	a1,a5,512 # 1c200 <__heap_size+0x1ba00>
20016d76:	800017b7          	lui	a5,0x80001
20016d7a:	a2078513          	addi	a0,a5,-1504 # 80000a20 <metal_segment_heap_target_end+0xfffff2b0>
20016d7e:	984ff0ef          	jal	ra,20015f02 <metal_uart_init>
E:/8.AWS-FreeRTOS-HiFive1/Workspace/sifive-hifive1-revb-i2c/freedom-metal/src/tty.c:42
}
20016d82:	0001                	nop
20016d84:	40b2                	lw	ra,12(sp)
20016d86:	4422                	lw	s0,8(sp)
20016d88:	0141                	addi	sp,sp,16
20016d8a:	8082                	ret

20016d8c <_exit>:
_exit():
E:/8.AWS-FreeRTOS-HiFive1/Workspace/sifive-hifive1-revb-i2c/freedom-metal/gloss/sys_exit.c:5
#include <metal/shutdown.h>

void
_exit(int exit_status)
{
20016d8c:	1101                	addi	sp,sp,-32
20016d8e:	ce06                	sw	ra,28(sp)
20016d90:	cc22                	sw	s0,24(sp)
20016d92:	1000                	addi	s0,sp,32
20016d94:	fea42623          	sw	a0,-20(s0)
E:/8.AWS-FreeRTOS-HiFive1/Workspace/sifive-hifive1-revb-i2c/freedom-metal/gloss/sys_exit.c:6
  metal_shutdown(exit_status);
20016d98:	fec42503          	lw	a0,-20(s0)
20016d9c:	834ff0ef          	jal	ra,20015dd0 <metal_shutdown>
